 MyDynLib

 Timestamp is 59f8d560 (Tue Oct 31 15:56:16 2017)

 Preferred load address is 10000000

 Start         Length     Name                   Class
 0001:00000000 00000020H .text$di                CODE
 0001:00000020 000deca0H .text$mn                CODE
 0001:000decc0 00000dd0H .text$x                 CODE
 0001:000dfa90 0000000fH .text$yd                CODE
 0002:00000000 00000354H .idata$5                DATA
 0002:00000354 00000004H .00cfg                  DATA
 0002:00000358 00000004H .CRT$XCA                DATA
 0002:0000035c 00000004H .CRT$XCL                DATA
 0002:00000360 00000004H .CRT$XCZ                DATA
 0002:00000364 00000004H .CRT$XIA                DATA
 0002:00000368 00000004H .CRT$XIZ                DATA
 0002:0000036c 00000004H .CRT$XPA                DATA
 0002:00000370 00000004H .CRT$XPZ                DATA
 0002:00000374 00000004H .CRT$XTA                DATA
 0002:00000378 00000008H .CRT$XTZ                DATA
 0002:0000037c 00000000H .gfids$y                DATA
 0002:00000380 0000c1c0H .rdata                  DATA
 0002:0000c540 000005c0H .rdata$r                DATA
 0002:0000cb00 00000118H .rdata$sxdata           DATA
 0002:0000cc18 0000033cH .rdata$zzzdbg           DATA
 0002:0000cf54 00000004H .rtc$IAA                DATA
 0002:0000cf58 0000000cH .rtc$IMZ                DATA
 0002:0000cf64 00000004H .rtc$IZZ                DATA
 0002:0000cf68 00000004H .rtc$TAA                DATA
 0002:0000cf6c 0000000cH .rtc$TMZ                DATA
 0002:0000cf78 00000008H .rtc$TZZ                DATA
 0002:0000cf80 00000fe0H .xdata$x                DATA
 0002:0000df60 000004f8H .edata                  DATA
 0002:0000e458 00000050H .idata$2                DATA
 0002:0000e4a8 00000014H .idata$3                DATA
 0002:0000e4bc 00000354H .idata$4                DATA
 0002:0000e810 0000174eH .idata$6                DATA
 0003:00000000 0000236cH .data                   DATA
 0003:0000236c 000002ccH .data$r                 DATA
 0003:00002638 000008c8H .bss                    DATA
 0004:00000000 00000060H .rsrc$01                DATA
 0004:00000060 00000180H .rsrc$02                DATA

  Address         Publics by Value              Rva+Base       Lib:Object

 0000:00000000       ___guard_fids_count        00000000     <absolute>
 0000:00000000       ___guard_longjmp_table     00000000     <absolute>
 0000:00000000       ___guard_iat_count         00000000     <absolute>
 0000:00000000       ___hybrid_code_map_count   00000000     <absolute>
 0000:00000000       ___enclave_config          00000000     <absolute>
 0000:00000000       ___guard_iat_table         00000000     <absolute>
 0000:00000000       ___hybrid_code_map         00000000     <absolute>
 0000:00000000       ___hybrid_auxiliary_iat    00000000     <absolute>
 0000:00000000       ___guard_longjmp_count     00000000     <absolute>
 0000:00000000       ___dynamic_value_reloc_table 00000000     <absolute>
 0000:00000000       ___guard_fids_table        00000000     <absolute>
 0000:00000046       ___safe_se_handler_count   00000046     <absolute>
 0000:00000100       ___guard_flags             00000100     <absolute>
 0000:00000000       ___ImageBase               10000000     <linker-defined>
 0001:00000020       ___local_stdio_printf_options 10001020 f i jpeg:jerror.obj
 0001:00000030       __vfprintf_l               10001030 f i jpeg:jerror.obj
 0001:00000060       _fprintf                   10001060 f i jpeg:jerror.obj
 0001:00000090       __vsnprintf_l              10001090 f i jpeg:jerror.obj
 0001:000000c0       __vsprintf_l               100010c0 f i jpeg:jerror.obj
 0001:000000f0       _sprintf                   100010f0 f i jpeg:jerror.obj
 0001:000002b0       _jpeg_std_error            100012b0 f   jpeg:jerror.obj
 0001:00000320       _jpeg_CreateDecompress     10001320 f   jpeg:jdapimin.obj
 0001:00000640       _jpeg_destroy_decompress   10001640 f   jpeg:jdapimin.obj
 0001:00000670       _jpeg_abort_decompress     10001670 f   jpeg:jdapimin.obj
 0001:000008b0       _jpeg_read_header          100018b0 f   jpeg:jdapimin.obj
 0001:00000a10       _jpeg_consume_input        10001a10 f   jpeg:jdapimin.obj
 0001:00000ad0       _jpeg_input_complete       10001ad0 f   jpeg:jdapimin.obj
 0001:00000b10       _jpeg_has_multiple_scans   10001b10 f   jpeg:jdapimin.obj
 0001:00000b50       _jpeg_finish_decompress    10001b50 f   jpeg:jdapimin.obj
 0001:00000d80       _jpeg_stdio_src            10001d80 f   jpeg:jdatasrc.obj
 0001:00000df0       _jpeg_mem_src              10001df0 f   jpeg:jdatasrc.obj
 0001:00000e60       _jpeg_start_decompress     10001e60 f   jpeg:jdapistd.obj
 0001:00001040       _jpeg_read_scanlines       10002040 f   jpeg:jdapistd.obj
 0001:000010e0       _jpeg_read_raw_data        100020e0 f   jpeg:jdapistd.obj
 0001:00001190       _jpeg_start_output         10002190 f   jpeg:jdapistd.obj
 0001:000011f0       _jpeg_finish_output        100021f0 f   jpeg:jdapistd.obj
 0001:00001290       _jpeg_abort                10002290 f   jpeg:jcomapi.obj
 0001:000012d0       _jpeg_destroy              100022d0 f   jpeg:jcomapi.obj
 0001:00001300       _jpeg_alloc_quant_table    10002300 f   jpeg:jcomapi.obj
 0001:00001320       _jpeg_alloc_huff_table     10002320 f   jpeg:jcomapi.obj
 0001:00001340       ___local_stdio_scanf_options 10002340 f i jpeg:jmemmgr.obj
 0001:00001350       __vsscanf_l                10002350 f i jpeg:jmemmgr.obj
 0001:00001370       _sscanf                    10002370 f i jpeg:jmemmgr.obj
 0001:00001f90       _jinit_memory_mgr          10002f90 f   jpeg:jmemmgr.obj
 0001:00004500       _jpeg_resync_to_restart    10005500 f   jpeg:jdmarker.obj
 0001:00004640       _jinit_marker_reader       10005640 f   jpeg:jdmarker.obj
 0001:000046f0       _jpeg_save_markers         100056f0 f   jpeg:jdmarker.obj
 0001:000047c0       _jpeg_set_marker_processor 100057c0 f   jpeg:jdmarker.obj
 0001:00004810       _jpeg_core_output_dimensions 10005810 f   jpeg:jdinput.obj
 0001:00005790       _jinit_input_controller    10006790 f   jpeg:jdinput.obj
 0001:00005890       _jpeg_calc_output_dimensions 10006890 f   jpeg:jdmaster.obj
 0001:00006520       _jpeg_new_colormap         10007520 f   jpeg:jdmaster.obj
 0001:00006590       _jinit_master_decompress   10007590 f   jpeg:jdmaster.obj
 0001:000065d0       _jpeg_get_small            100075d0 f   jpeg:jmemnobs.obj
 0001:000065e0       _jpeg_free_small           100075e0 f   jpeg:jmemnobs.obj
 0001:000065f0       _jpeg_get_large            100075f0 f   jpeg:jmemnobs.obj
 0001:00006600       _jpeg_free_large           10007600 f   jpeg:jmemnobs.obj
 0001:00006610       _jpeg_mem_available        10007610 f   jpeg:jmemnobs.obj
 0001:00006620       _jpeg_open_backing_store   10007620 f   jpeg:jmemnobs.obj
 0001:00006640       _jpeg_mem_init             10007640 f   jpeg:jmemnobs.obj
 0001:00006650       _jpeg_mem_term             10007650 f   jpeg:jmemnobs.obj
 0001:00006660       _jdiv_round_up             10007660 f   jpeg:jutils.obj
 0001:00006670       _jround_up                 10007670 f   jpeg:jutils.obj
 0001:00006690       _jcopy_sample_rows         10007690 f   jpeg:jutils.obj
 0001:000066d0       _jcopy_block_row           100076d0 f   jpeg:jutils.obj
 0001:000074a0       _jinit_1pass_quantizer     100084a0 f   jpeg:jquant1.obj
 0001:00007b70       _jinit_merged_upsampler    10008b70 f   jpeg:jdmerge.obj
 0001:00008060       _jinit_upsampler           10009060 f   jpeg:jdsample.obj
 0001:00009f40       _jinit_huff_decoder        1000af40 f   jpeg:jdhuff.obj
 0001:0000bb10       _jinit_2pass_quantizer     1000cb10 f   jpeg:jquant2.obj
 0001:0000cd40       _jinit_arith_decoder       1000dd40 f   jpeg:jdarith.obj
 0001:0000dee0       _jinit_d_coef_controller   1000eee0 f   jpeg:jdcoefct.obj
 0001:0000ea90       _jinit_color_deconverter   1000fa90 f   jpeg:jdcolor.obj
 0001:0000f790       _jinit_d_main_controller   10010790 f   jpeg:jdmainct.obj
 0001:0000ffa0       _jinit_inverse_dct         10010fa0 f   jpeg:jddctmgr.obj
 0001:000102d0       _jinit_d_post_controller   100112d0 f   jpeg:jdpostct.obj
 0001:00010370       _jpeg_idct_islow           10011370 f   jpeg:jidctint.obj
 0001:00010820       _jpeg_idct_7x7             10011820 f   jpeg:jidctint.obj
 0001:00011c40       _jpeg_idct_6x6             10012c40 f   jpeg:jidctint.obj
 0001:00012760       _jpeg_idct_5x5             10013760 f   jpeg:jidctint.obj
 0001:00012ee0       _jpeg_idct_4x4             10013ee0 f   jpeg:jidctint.obj
 0001:00013330       _jpeg_idct_3x3             10014330 f   jpeg:jidctint.obj
 0001:00013570       _jpeg_idct_2x2             10014570 f   jpeg:jidctint.obj
 0001:00013630       _jpeg_idct_1x1             10014630 f   jpeg:jidctint.obj
 0001:00013680       _jpeg_idct_9x9             10014680 f   jpeg:jidctint.obj
 0001:00013a60       _jpeg_idct_10x10           10014a60 f   jpeg:jidctint.obj
 0001:00013ec0       _jpeg_idct_11x11           10014ec0 f   jpeg:jidctint.obj
 0001:00014410       _jpeg_idct_12x12           10015410 f   jpeg:jidctint.obj
 0001:00014910       _jpeg_idct_13x13           10015910 f   jpeg:jidctint.obj
 0001:00014f10       _jpeg_idct_14x14           10015f10 f   jpeg:jidctint.obj
 0001:00015500       _jpeg_idct_15x15           10016500 f   jpeg:jidctint.obj
 0001:00015b30       _jpeg_idct_16x16           10016b30 f   jpeg:jidctint.obj
 0001:00016240       _jpeg_idct_16x8            10017240 f   jpeg:jidctint.obj
 0001:00016830       _jpeg_idct_14x7            10017830 f   jpeg:jidctint.obj
 0001:000176d0       _jpeg_idct_12x6            100186d0 f   jpeg:jidctint.obj
 0001:000180b0       _jpeg_idct_10x5            100190b0 f   jpeg:jidctint.obj
 0001:00018940       _jpeg_idct_8x4             10019940 f   jpeg:jidctint.obj
 0001:00018f00       _jpeg_idct_6x3             10019f00 f   jpeg:jidctint.obj
 0001:000193e0       _jpeg_idct_4x2             1001a3e0 f   jpeg:jidctint.obj
 0001:000195a0       _jpeg_idct_2x1             1001a5a0 f   jpeg:jidctint.obj
 0001:00019610       _jpeg_idct_8x16            1001a610 f   jpeg:jidctint.obj
 0001:00019b60       _jpeg_idct_7x14            1001ab60 f   jpeg:jidctint.obj
 0001:0001a010       _jpeg_idct_6x12            1001b010 f   jpeg:jidctint.obj
 0001:0001a3d0       _jpeg_idct_5x10            1001b3d0 f   jpeg:jidctint.obj
 0001:0001ae60       _jpeg_idct_4x8             1001be60 f   jpeg:jidctint.obj
 0001:0001b580       _jpeg_idct_3x6             1001c580 f   jpeg:jidctint.obj
 0001:0001ba80       _jpeg_idct_2x4             1001ca80 f   jpeg:jidctint.obj
 0001:0001bc70       _jpeg_idct_1x2             1001cc70 f   jpeg:jidctint.obj
 0001:0001bce0       _jpeg_idct_ifast           1001cce0 f   jpeg:jidctfst.obj
 0001:0001c0f0       _jpeg_idct_float           1001d0f0 f   jpeg:jidctflt.obj
 0001:0001c6a0       _sqlite3_libversion        1001d6a0 f   sqlite3.obj
 0001:0001c6d0       _sqlite3_sourceid          1001d6d0 f   sqlite3.obj
 0001:0001c700       _sqlite3_libversion_number 1001d700 f   sqlite3.obj
 0001:0001c730       _sqlite3_compileoption_used 1001d730 f   sqlite3.obj
 0001:0001c850       _sqlite3_compileoption_get 1001d850 f   sqlite3.obj
 0001:0001c8f0       _sqlite3_threadsafe        1001d8f0 f   sqlite3.obj
 0001:0001c920       _sqlite3_close             1001d920 f   sqlite3.obj
 0001:0001c960       _sqlite3_close_v2          1001d960 f   sqlite3.obj
 0001:0001c9a0       _sqlite3_exec              1001d9a0 f   sqlite3.obj
 0001:0001e550       _sqlite3_db_config         1001f550 f   sqlite3.obj
 0001:0001ef00       _sqlite3_extended_result_codes 1001ff00 f   sqlite3.obj
 0001:0001ef80       _sqlite3_last_insert_rowid 1001ff80 f   sqlite3.obj
 0001:0001efb0       _sqlite3_set_last_insert_rowid 1001ffb0 f   sqlite3.obj
 0001:0001f1b0       _sqlite3_changes           100201b0 f   sqlite3.obj
 0001:0001f1e0       _sqlite3_total_changes     100201e0 f   sqlite3.obj
 0001:0001f210       _sqlite3_interrupt         10020210 f   sqlite3.obj
 0001:0001f250       _sqlite3_complete          10020250 f   sqlite3.obj
 0001:0001f700       _sqlite3_complete16        10020700 f   sqlite3.obj
 0001:0001f7b0       _sqlite3_busy_handler      100207b0 f   sqlite3.obj
 0001:0001f840       _sqlite3_busy_timeout      10020840 f   sqlite3.obj
 0001:0001fb30       _sqlite3_get_table         10020b30 f   sqlite3.obj
 0001:0001fd90       _sqlite3_free_table        10020d90 f   sqlite3.obj
 0001:0001fe80       _sqlite3_mprintf           10020e80 f   sqlite3.obj
 0001:0001fef0       _sqlite3_vmprintf          10020ef0 f   sqlite3.obj
 0001:000201f0       _sqlite3_snprintf          100211f0 f   sqlite3.obj
 0001:000202a0       _sqlite3_vsnprintf         100212a0 f   sqlite3.obj
 0001:00020360       _sqlite3_malloc            10021360 f   sqlite3.obj
 0001:000203d0       _sqlite3_malloc64          100213d0 f   sqlite3.obj
 0001:00020420       _sqlite3_realloc           10021420 f   sqlite3.obj
 0001:00020480       _sqlite3_realloc64         10021480 f   sqlite3.obj
 0001:00020530       _sqlite3_free              10021530 f   sqlite3.obj
 0001:000205e0       _sqlite3_msize             100215e0 f   sqlite3.obj
 0001:00020650       _sqlite3_memory_used       10021650 f   sqlite3.obj
 0001:000206f0       _sqlite3_memory_highwater  100216f0 f   sqlite3.obj
 0001:00020790       _sqlite3_randomness        10021790 f   sqlite3.obj
 0001:00020b70       _sqlite3_set_authorizer    10021b70 f   sqlite3.obj
 0001:00020ce0       _sqlite3_trace             10021ce0 f   sqlite3.obj
 0001:00020d80       _sqlite3_profile           10021d80 f   sqlite3.obj
 0001:00021010       _sqlite3_trace_v2          10022010 f   sqlite3.obj
 0001:000210a0       _sqlite3_progress_handler  100220a0 f   sqlite3.obj
 0001:00021150       _sqlite3_open              10022150 f   sqlite3.obj
 0001:000211a0       _sqlite3_open16            100221a0 f   sqlite3.obj
 0001:000214a0       _sqlite3_open_v2           100224a0 f   sqlite3.obj
 0001:000214f0       _sqlite3_uri_parameter     100224f0 f   sqlite3.obj
 0001:000215b0       _sqlite3_uri_boolean       100225b0 f   sqlite3.obj
 0001:000216f0       _sqlite3_uri_int64         100226f0 f   sqlite3.obj
 0001:000217a0       _sqlite3_errcode           100227a0 f   sqlite3.obj
 0001:00021820       _sqlite3_extended_errcode  10022820 f   sqlite3.obj
 0001:000218a0       _sqlite3_errmsg            100228a0 f   sqlite3.obj
 0001:00021980       _sqlite3_errmsg16          10022980 f   sqlite3.obj
 0001:00021a70       _sqlite3_errstr            10022a70 f   sqlite3.obj
 0001:00021b10       _sqlite3_limit             10022b10 f   sqlite3.obj
 0001:00021bf0       _sqlite3_prepare           10022bf0 f   sqlite3.obj
 0001:00021fd0       _sqlite3_prepare_v2        10022fd0 f   sqlite3.obj
 0001:00022030       _sqlite3_prepare_v3        10023030 f   sqlite3.obj
 0001:000220a0       _sqlite3_prepare16         100230a0 f   sqlite3.obj
 0001:00022100       _sqlite3_prepare16_v2      10023100 f   sqlite3.obj
 0001:00022230       _sqlite3_prepare16_v3      10023230 f   sqlite3.obj
 0001:000222a0       _sqlite3_sql               100232a0 f   sqlite3.obj
 0001:00022300       _sqlite3_expanded_sql      10023300 f   sqlite3.obj
 0001:00022390       _sqlite3_stmt_readonly     10023390 f   sqlite3.obj
 0001:000223f0       _sqlite3_stmt_busy         100233f0 f   sqlite3.obj
 0001:00022590       _sqlite3_bind_blob         10023590 f   sqlite3.obj
 0001:000225e0       _sqlite3_bind_blob64       100235e0 f   sqlite3.obj
 0001:00022660       _sqlite3_bind_double       10023660 f   sqlite3.obj
 0001:00022720       _sqlite3_bind_int          10023720 f   sqlite3.obj
 0001:00022770       _sqlite3_bind_int64        10023770 f   sqlite3.obj
 0001:00022800       _sqlite3_bind_null         10023800 f   sqlite3.obj
 0001:000228a0       _sqlite3_bind_text         100238a0 f   sqlite3.obj
 0001:00022920       _sqlite3_bind_text16       10023920 f   sqlite3.obj
 0001:00022970       _sqlite3_bind_text64       10023970 f   sqlite3.obj
 0001:00022bd0       _sqlite3_bind_value        10023bd0 f   sqlite3.obj
 0001:00022e20       _sqlite3_bind_pointer      10023e20 f   sqlite3.obj
 0001:00022f20       _sqlite3_bind_zeroblob     10023f20 f   sqlite3.obj
 0001:00022fb0       _sqlite3_bind_zeroblob64   10023fb0 f   sqlite3.obj
 0001:00023480       _sqlite3_bind_parameter_count 10024480 f   sqlite3.obj
 0001:000235a0       _sqlite3_bind_parameter_name 100245a0 f   sqlite3.obj
 0001:00023600       _sqlite3_bind_parameter_index 10024600 f   sqlite3.obj
 0001:00023870       _sqlite3_clear_bindings    10024870 f   sqlite3.obj
 0001:00023940       _sqlite3_column_count      10024940 f   sqlite3.obj
 0001:000239a0       _sqlite3_column_name       100249a0 f   sqlite3.obj
 0001:000239f0       _sqlite3_column_name16     100249f0 f   sqlite3.obj
 0001:00023ca0       _sqlite3_column_decltype   10024ca0 f   sqlite3.obj
 0001:00023cf0       _sqlite3_column_decltype16 10024cf0 f   sqlite3.obj
 0001:00023d40       _sqlite3_step              10024d40 f   sqlite3.obj
 0001:00023f90       _sqlite3_data_count        10024f90 f   sqlite3.obj
 0001:00024060       _sqlite3_column_blob       10025060 f   sqlite3.obj
 0001:000240f0       _sqlite3_column_double     100250f0 f   sqlite3.obj
 0001:000241c0       _sqlite3_column_int        100251c0 f   sqlite3.obj
 0001:000242c0       _sqlite3_column_int64      100252c0 f   sqlite3.obj
 0001:00024470       _sqlite3_column_text       10025470 f   sqlite3.obj
 0001:000244d0       _sqlite3_column_text16     100254d0 f   sqlite3.obj
 0001:000245a0       _sqlite3_column_value      100255a0 f   sqlite3.obj
 0001:00024630       _sqlite3_column_bytes      10025630 f   sqlite3.obj
 0001:00024690       _sqlite3_column_bytes16    10025690 f   sqlite3.obj
 0001:00024de0       _sqlite3_column_type       10025de0 f   sqlite3.obj
 0001:00025020       _sqlite3_finalize          10026020 f   sqlite3.obj
 0001:00025110       _sqlite3_reset             10026110 f   sqlite3.obj
 0001:00025340       _sqlite3_create_function   10026340 f   sqlite3.obj
 0001:00025f20       _sqlite3_create_function16 10026f20 f   sqlite3.obj
 0001:00026730       _sqlite3_create_function_v2 10027730 f   sqlite3.obj
 0001:00026850       _sqlite3_aggregate_count   10027850 f   sqlite3.obj
 0001:000268b0       _sqlite3_expired           100278b0 f   sqlite3.obj
 0001:000269d0       _sqlite3_transfer_bindings 100279d0 f   sqlite3.obj
 0001:00026ab0       _sqlite3_thread_cleanup    10027ab0 f   sqlite3.obj
 0001:00026b40       _sqlite3_value_blob        10027b40 f   sqlite3.obj
 0001:00026cb0       _sqlite3_value_double      10027cb0 f   sqlite3.obj
 0001:00026d80       _sqlite3_value_int         10027d80 f   sqlite3.obj
 0001:00026e20       _sqlite3_value_int64       10027e20 f   sqlite3.obj
 0001:00026f90       _sqlite3_value_pointer     10027f90 f   sqlite3.obj
 0001:00027020       _sqlite3_value_text        10028020 f   sqlite3.obj
 0001:000270b0       _sqlite3_value_text16      100280b0 f   sqlite3.obj
 0001:000271e0       _sqlite3_value_text16le    100281e0 f   sqlite3.obj
 0001:00027220       _sqlite3_value_text16be    10028220 f   sqlite3.obj
 0001:00027260       _sqlite3_value_bytes       10028260 f   sqlite3.obj
 0001:00027500       _sqlite3_value_bytes16     10028500 f   sqlite3.obj
 0001:00027570       _sqlite3_value_type        10028570 f   sqlite3.obj
 0001:000275b0       _sqlite3_value_numeric_type 100285b0 f   sqlite3.obj
 0001:00027620       _sqlite3_value_subtype     10028620 f   sqlite3.obj
 0001:00027680       _sqlite3_value_dup         10028680 f   sqlite3.obj
 0001:00027820       _sqlite3_value_free        10028820 f   sqlite3.obj
 0001:000278a0       _sqlite3_aggregate_context 100288a0 f   sqlite3.obj
 0001:00027910       _sqlite3_user_data         10028910 f   sqlite3.obj
 0001:00027bb0       _sqlite3_context_db_handle 10028bb0 f   sqlite3.obj
 0001:00027be0       _sqlite3_get_auxdata       10028be0 f   sqlite3.obj
 0001:00027fa0       _sqlite3_set_auxdata       10028fa0 f   sqlite3.obj
 0001:00028130       _sqlite3_result_blob       10029130 f   sqlite3.obj
 0001:00028180       _sqlite3_result_blob64     10029180 f   sqlite3.obj
 0001:000282d0       _sqlite3_result_double     100292d0 f   sqlite3.obj
 0001:00028350       _sqlite3_result_error      10029350 f   sqlite3.obj
 0001:000283b0       _sqlite3_result_error16    100293b0 f   sqlite3.obj
 0001:00028440       _sqlite3_result_error_toobig 10029440 f   sqlite3.obj
 0001:000284a0       _sqlite3_result_error_nomem 100294a0 f   sqlite3.obj
 0001:00028550       _sqlite3_result_error_code 10029550 f   sqlite3.obj
 0001:00028600       _sqlite3_result_int        10029600 f   sqlite3.obj
 0001:000286a0       _sqlite3_result_int64      100296a0 f   sqlite3.obj
 0001:000286f0       _sqlite3_result_null       100296f0 f   sqlite3.obj
 0001:00028b10       _sqlite3_result_text       10029b10 f   sqlite3.obj
 0001:00028f70       _sqlite3_result_text64     10029f70 f   sqlite3.obj
 0001:00029030       _sqlite3_result_text16     1002a030 f   sqlite3.obj
 0001:00029080       _sqlite3_result_text16le   1002a080 f   sqlite3.obj
 0001:000290d0       _sqlite3_result_text16be   1002a0d0 f   sqlite3.obj
 0001:00029120       _sqlite3_result_value      1002a120 f   sqlite3.obj
 0001:00029170       _sqlite3_result_pointer    1002a170 f   sqlite3.obj
 0001:000291e0       _sqlite3_result_zeroblob   1002a1e0 f   sqlite3.obj
 0001:00029230       _sqlite3_result_zeroblob64 1002a230 f   sqlite3.obj
 0001:000292c0       _sqlite3_result_subtype    1002a2c0 f   sqlite3.obj
 0001:00029310       _sqlite3_create_collation  1002a310 f   sqlite3.obj
 0001:00029490       _sqlite3_create_collation_v2 1002a490 f   sqlite3.obj
 0001:00029520       _sqlite3_create_collation16 1002a520 f   sqlite3.obj
 0001:000295e0       _sqlite3_collation_needed  1002a5e0 f   sqlite3.obj
 0001:000297a0       _sqlite3_collation_needed16 1002a7a0 f   sqlite3.obj
 0001:00029820       _sqlite3_sleep             1002a820 f   sqlite3.obj
 0001:00029890       _sqlite3_get_autocommit    1002a890 f   sqlite3.obj
 0001:00029990       _sqlite3_db_handle         1002a990 f   sqlite3.obj
 0001:000299e0       _sqlite3_db_filename       1002a9e0 f   sqlite3.obj
 0001:00029a50       _sqlite3_db_readonly       1002aa50 f   sqlite3.obj
 0001:00029b60       _sqlite3_next_stmt         1002ab60 f   sqlite3.obj
 0001:00029bd0       _sqlite3_commit_hook       1002abd0 f   sqlite3.obj
 0001:00029ce0       _sqlite3_rollback_hook     1002ace0 f   sqlite3.obj
 0001:00029d60       _sqlite3_update_hook       1002ad60 f   sqlite3.obj
 0001:0002a4a0       _sqlite3_enable_shared_cache 1002b4a0 f   sqlite3.obj
 0001:0002a5e0       _sqlite3_release_memory    1002b5e0 f   sqlite3.obj
 0001:0002a610       _sqlite3_db_release_memory 1002b610 f   sqlite3.obj
 0001:0002a6d0       _sqlite3_soft_heap_limit64 1002b6d0 f   sqlite3.obj
 0001:0002a8a0       _sqlite3_soft_heap_limit   1002b8a0 f   sqlite3.obj
 0001:0002aab0       _sqlite3_table_column_metadata 1002bab0 f   sqlite3.obj
 0001:0002ae60       _sqlite3_load_extension    1002be60 f   sqlite3.obj
 0001:0002af60       _sqlite3_auto_extension    1002bf60 f   sqlite3.obj
 0001:0002b080       _sqlite3_cancel_auto_extension 1002c080 f   sqlite3.obj
 0001:0002b150       _sqlite3_reset_auto_extension 1002c150 f   sqlite3.obj
 0001:0002b850       _sqlite3_create_module     1002c850 f   sqlite3.obj
 0001:0002b8a0       _sqlite3_create_module_v2  1002c8a0 f   sqlite3.obj
 0001:0002b8f0       _sqlite3_declare_vtab      1002c8f0 f   sqlite3.obj
 0001:0002bc00       _sqlite3_overload_function 1002cc00 f   sqlite3.obj
 0001:0002bcb0       _sqlite3_blob_open         1002ccb0 f   sqlite3.obj
 0001:0002c430       _sqlite3_blob_reopen       1002d430 f   sqlite3.obj
 0001:0002c580       _sqlite3_blob_close        1002d580 f   sqlite3.obj
 0001:0002c620       _sqlite3_blob_bytes        1002d620 f   sqlite3.obj
 0001:0002c680       _sqlite3_blob_read         1002d680 f   sqlite3.obj
 0001:0002c6d0       _sqlite3_blob_write        1002d6d0 f   sqlite3.obj
 0001:0002c720       _sqlite3_vfs_find          1002d720 f   sqlite3.obj
 0001:0002c7d0       _sqlite3_vfs_register      1002d7d0 f   sqlite3.obj
 0001:0002c890       _sqlite3_vfs_unregister    1002d890 f   sqlite3.obj
 0001:0002c900       _sqlite3_mutex_alloc       1002d900 f   sqlite3.obj
 0001:0002c970       _sqlite3_mutex_free        1002d970 f   sqlite3.obj
 0001:0002c9c0       _sqlite3_mutex_enter       1002d9c0 f   sqlite3.obj
 0001:0002ca10       _sqlite3_mutex_try         1002da10 f   sqlite3.obj
 0001:0002ca70       _sqlite3_mutex_leave       1002da70 f   sqlite3.obj
 0001:0002cbf0       _sqlite3_db_mutex          1002dbf0 f   sqlite3.obj
 0001:0002cc20       _sqlite3_file_control      1002dc20 f   sqlite3.obj
 0001:0002cd50       _sqlite3_test_control      1002dd50 f   sqlite3.obj
 0001:0002d290       _sqlite3_status            1002e290 f   sqlite3.obj
 0001:0002d3d0       _sqlite3_status64          1002e3d0 f   sqlite3.obj
 0001:0002d500       _sqlite3_db_status         1002e500 f   sqlite3.obj
 0001:0002db60       _sqlite3_stmt_status       1002eb60 f   sqlite3.obj
 0001:0002e0f0       _sqlite3_backup_init       1002f0f0 f   sqlite3.obj
 0001:0002e320       _sqlite3_backup_step       1002f320 f   sqlite3.obj
 0001:0002eb50       _sqlite3_backup_finish     1002fb50 f   sqlite3.obj
 0001:0002ecd0       _sqlite3_backup_remaining  1002fcd0 f   sqlite3.obj
 0001:0002ed00       _sqlite3_backup_pagecount  1002fd00 f   sqlite3.obj
 0001:0002ed90       _sqlite3_stricmp           1002fd90 f   sqlite3.obj
 0001:0002ee10       _sqlite3_strnicmp          1002fe10 f   sqlite3.obj
 0001:0002ef30       _sqlite3_strglob           1002ff30 f   sqlite3.obj
 0001:0002efe0       _sqlite3_strlike           1002ffe0 f   sqlite3.obj
 0001:0002f030       _sqlite3_log               10030030 f   sqlite3.obj
 0001:0002f0e0       _sqlite3_wal_hook          100300e0 f   sqlite3.obj
 0001:0002f160       _sqlite3_wal_autocheckpoint 10030160 f   sqlite3.obj
 0001:0002f1d0       _sqlite3_wal_checkpoint    100301d0 f   sqlite3.obj
 0001:0002f220       _sqlite3_wal_checkpoint_v2 10030220 f   sqlite3.obj
 0001:0002f370       _sqlite3_vtab_config       10030370 f   sqlite3.obj
 0001:0002f460       _sqlite3_vtab_on_conflict  10030460 f   sqlite3.obj
 0001:0002f660       _sqlite3_db_cacheflush     10030660 f   sqlite3.obj
 0001:0002f780       _sqlite3_system_errno      10030780 f   sqlite3.obj
 0001:000ae3e0       _sqlite3_config            100af3e0 f   sqlite3.obj
 0001:000ae840       _sqlite3_enable_load_extension 100af840 f   sqlite3.obj
 0001:000aeaf0       _sqlite3_global_recover    100afaf0 f   sqlite3.obj
 0001:000aeb20       _sqlite3_initialize        100afb20 f   sqlite3.obj
 0001:000aed20       _sqlite3_memory_alarm      100afd20 f   sqlite3.obj
 0001:000aed50       _sqlite3_os_end            100afd50 f   sqlite3.obj
 0001:000aed80       _sqlite3_os_init           100afd80 f   sqlite3.obj
 0001:000aee20       _sqlite3_shutdown          100afe20 f   sqlite3.obj
 0001:000aeed0       _sqlite3_win32_is_nt       100afed0 f   sqlite3.obj
 0001:000aef00       _sqlite3_win32_mbcs_to_utf8 100aff00 f   sqlite3.obj
 0001:000aef70       _sqlite3_win32_mbcs_to_utf8_v2 100aff70 f   sqlite3.obj
 0001:000aefc0       _sqlite3_win32_set_directory 100affc0 f   sqlite3.obj
 0001:000af090       _sqlite3_win32_sleep       100b0090 f   sqlite3.obj
 0001:000af0e0       _sqlite3_win32_unicode_to_utf8 100b00e0 f   sqlite3.obj
 0001:000af130       _sqlite3_win32_utf8_to_mbcs 100b0130 f   sqlite3.obj
 0001:000af1a0       _sqlite3_win32_utf8_to_mbcs_v2 100b01a0 f   sqlite3.obj
 0001:000af1f0       _sqlite3_win32_utf8_to_unicode 100b01f0 f   sqlite3.obj
 0001:000af240       _sqlite3_win32_write_debug 100b0240 f   sqlite3.obj
 0001:000c9950       _DllMain@12                100ca950 f   dllmain.obj
 0001:000c9990       ??$?0$$V@?$_Compressed_pair@V?$allocator@D@std@@V?$_String_val@U?$_Simple_types@D@std@@@2@$00@std@@QAE@U_Zero_then_variadic_args_t@1@@Z 100ca990 f i MyDynLib.obj
 0001:000c99e0       ??$?0$$V@?$_Compressed_pair@V?$allocator@E@std@@V?$_Vector_val@U?$_Simple_types@E@std@@@2@$00@std@@QAE@U_Zero_then_variadic_args_t@1@@Z 100ca9e0 f i MyDynLib.obj
 0001:000c9a30       ??$?0$$V@?$_Compressed_pair@V?$allocator@U?$_Tree_node@U?$pair@$$CB_KPAVIResource@@@std@@PAX@std@@@std@@V?$_Tree_val@U?$_Tree_simple_types@U?$pair@$$CB_KPAVIResource@@@std@@@std@@@2@$00@std@@QAE@U_Zero_then_variadic_args_t@1@@Z 100caa30 f i MyDynLib.obj
 0001:000c9a80       ??$?0AAV?$_Tree_const_iterator@V?$_Tree_val@U?$_Tree_simple_types@U?$pair@$$CB_KPAVIResource@@@std@@@std@@@std@@@std@@AAV01@X$0A@@?$pair@V?$_Tree_const_iterator@V?$_Tree_val@U?$_Tree_simple_types@U?$pair@$$CB_KPAVIResource@@@std@@@std@@@std@@@std@@V12@@std@@QAE@AAV?$_Tree_const_iterator@V?$_Tree_val@U?$_Tree_simple_types@U?$pair@$$CB_KPAVIResource@@@std@@@std@@@std@@@1@0@Z 100caa80 f i MyDynLib.obj
 0001:000c9af0       ??$?0AAV?$_Tree_iterator@V?$_Tree_val@U?$_Tree_simple_types@U?$pair@$$CB_KPAVIResource@@@std@@@std@@@std@@@std@@_NX$0A@@?$pair@V?$_Tree_iterator@V?$_Tree_val@U?$_Tree_simple_types@U?$pair@$$CB_KPAVIResource@@@std@@@std@@@std@@@std@@_N@std@@QAE@AAV?$_Tree_iterator@V?$_Tree_val@U?$_Tree_simple_types@U?$pair@$$CB_KPAVIResource@@@std@@@std@@@std@@@1@$$QA_N@Z 100caaf0 f i MyDynLib.obj
 0001:000c9b60       ??$?0AA_KAAPAVIResource@@X$0A@@?$pair@_KPAVIResource@@@std@@QAE@AA_KAAPAVIResource@@@Z 100cab60 f i MyDynLib.obj
 0001:000c9bd0       ??$?0ABU?$less@_K@std@@U_Zero_then_variadic_args_t@1@@?$_Compressed_pair@U?$less@_K@std@@V?$_Compressed_pair@V?$allocator@U?$_Tree_node@U?$pair@$$CB_KPAVIResource@@@std@@PAX@std@@@std@@V?$_Tree_val@U?$_Tree_simple_types@U?$pair@$$CB_KPAVIResource@@@std@@@std@@@2@$00@2@$00@std@@QAE@U_One_then_variadic_args_t@1@ABU?$less@_K@1@$$QAU_Zero_then_variadic_args_t@1@@Z 100cabd0 f i MyDynLib.obj
 0001:000c9c40       ??$?0ABV?$allocator@D@std@@$$V@?$_Compressed_pair@V?$allocator@D@std@@V?$_String_val@U?$_Simple_types@D@std@@@2@$00@std@@QAE@U_One_then_variadic_args_t@1@ABV?$allocator@D@1@@Z 100cac40 f i MyDynLib.obj
 0001:000c9c90       ??$?0ABV?$allocator@D@std@@X@?$_String_alloc@U?$_String_base_types@DV?$allocator@D@std@@@std@@@std@@QAE@ABV?$allocator@D@1@@Z 100cac90 f i MyDynLib.obj
 0001:000c9d30       ??$?0D@?$allocator@U_Container_proxy@std@@@std@@QAE@ABV?$allocator@D@1@@Z 100cad30 f i MyDynLib.obj
 0001:000c9d60       ??$?0E@?$allocator@U_Container_proxy@std@@@std@@QAE@ABV?$allocator@E@1@@Z 100cad60 f i MyDynLib.obj
 0001:000c9d90       ??$?0PADX@?$basic_string@DU?$char_traits@D@std@@V?$allocator@D@2@@std@@QAE@PAD0ABV?$allocator@D@1@@Z 100cad90 f i MyDynLib.obj
 0001:000c9e60       ??$?0U?$_Tree_node@U?$pair@$$CB_KPAVIResource@@@std@@PAX@std@@@?$allocator@U_Container_proxy@std@@@std@@QAE@ABV?$allocator@U?$_Tree_node@U?$pair@$$CB_KPAVIResource@@@std@@PAX@std@@@1@@Z 100cae60 f i MyDynLib.obj
 0001:000c9e90       ??$?0V?$_Tree_iterator@V?$_Tree_val@U?$_Tree_simple_types@U?$pair@$$CB_KPAVIResource@@@std@@@std@@@std@@@std@@_NX$0A@@?$pair@V?$_Tree_iterator@V?$_Tree_val@U?$_Tree_simple_types@U?$pair@$$CB_KPAVIResource@@@std@@@std@@@std@@@std@@_N@std@@QAE@$$QAV?$_Tree_iterator@V?$_Tree_val@U?$_Tree_simple_types@U?$pair@$$CB_KPAVIResource@@@std@@@std@@@std@@@1@$$QA_N@Z 100cae90 f i MyDynLib.obj
 0001:000c9f00       ??$?0V?$allocator@D@std@@$$V@?$_Compressed_pair@V?$allocator@D@std@@V?$_String_val@U?$_Simple_types@D@std@@@2@$00@std@@QAE@U_One_then_variadic_args_t@1@$$QAV?$allocator@D@1@@Z 100caf00 f i MyDynLib.obj
 0001:000c9f50       ??$?0V?$allocator@D@std@@X@?$_String_alloc@U?$_String_base_types@DV?$allocator@D@std@@@std@@@std@@QAE@$$QAV?$allocator@D@1@@Z 100caf50 f i MyDynLib.obj
 0001:000c9ff0       ??$?0_KPAVIResource@@X$0A@@?$pair@$$CB_KPAVIResource@@@std@@QAE@$$QAU?$pair@_KPAVIResource@@@1@@Z 100caff0 f i MyDynLib.obj
 0001:000ca060       ??$?6U?$char_traits@D@std@@@std@@YAAAV?$basic_ostream@DU?$char_traits@D@std@@@0@AAV10@D@Z 100cb060 f i MyDynLib.obj
 0001:000ca4c0       ??$?6U?$char_traits@D@std@@@std@@YAAAV?$basic_ostream@DU?$char_traits@D@std@@@0@AAV10@PBD@Z 100cb4c0 f i MyDynLib.obj
 0001:000ca960       ??$?8DU?$char_traits@D@std@@V?$allocator@D@1@@std@@YA_NABV?$basic_string@DU?$char_traits@D@std@@V?$allocator@D@2@@0@QBD@Z 100cb960 f i MyDynLib.obj
 0001:000ca9a0       ??$?HDU?$char_traits@D@std@@V?$allocator@D@1@@std@@YA?AV?$basic_string@DU?$char_traits@D@std@@V?$allocator@D@2@@0@$$QAV10@0@Z 100cb9a0 f i MyDynLib.obj
 0001:000caa90       ??$?HDU?$char_traits@D@std@@V?$allocator@D@1@@std@@YA?AV?$basic_string@DU?$char_traits@D@std@@V?$allocator@D@2@@0@$$QAV10@ABV10@@Z 100cba90 f i MyDynLib.obj
 0001:000cab00       ??$?HDU?$char_traits@D@std@@V?$allocator@D@1@@std@@YA?AV?$basic_string@DU?$char_traits@D@std@@V?$allocator@D@2@@0@$$QAV10@QBD@Z 100cbb00 f i MyDynLib.obj
 0001:000cab70       ??$?HDU?$char_traits@D@std@@V?$allocator@D@1@@std@@YA?AV?$basic_string@DU?$char_traits@D@std@@V?$allocator@D@2@@0@QBD$$QAV10@@Z 100cbb70 f i MyDynLib.obj
 0001:000cabe0       ??$_Buynode@U?$pair@_KPAVIResource@@@std@@@?$_Tree_comp_alloc@V?$_Tmap_traits@_KPAVIResource@@U?$less@_K@std@@V?$allocator@U?$pair@$$CB_KPAVIResource@@@std@@@3@$0A@@std@@@std@@QAEPAU?$_Tree_node@U?$pair@$$CB_KPAVIResource@@@std@@PAX@1@$$QAU?$pair@_KPAVIResource@@@1@@Z 100cbbe0 f i MyDynLib.obj
 0001:000cacd0       ??$_Buynode_if_nil@AAU?$pair@$$CB_KPAVIResource@@@std@@@?$_Tree@V?$_Tmap_traits@_KPAVIResource@@U?$less@_K@std@@V?$allocator@U?$pair@$$CB_KPAVIResource@@@std@@@3@$0A@@std@@@std@@IAEPAU?$_Tree_node@U?$pair@$$CB_KPAVIResource@@@std@@PAX@1@PAU21@AAU?$pair@$$CB_KPAVIResource@@@1@@Z 100cbcd0 f i MyDynLib.obj
 0001:000cad00       ??$_Convert_size@I@std@@YAII@Z 100cbd00 f i MyDynLib.obj
 0001:000cad30       ??$_Copy_memmove@PAEPAE@std@@YAPAEPAE00@Z 100cbd30 f i MyDynLib.obj
 0001:000cada0       ??$_Copy_memmove@PAPAVIResource@@PAPAV1@@std@@YAPAPAVIResource@@PAPAV1@00@Z 100cbda0 f i MyDynLib.obj
 0001:000cae10       ??$_Deallocate_plain@V?$allocator@U_Container_proxy@std@@@std@@$0A@@std@@YAXAAV?$allocator@U_Container_proxy@std@@@0@QAU_Container_proxy@0@@Z 100cbe10 f i MyDynLib.obj
 0001:000cae60       ??$_Debug_lt_pred@AAU?$less@_K@std@@AB_KAB_K@std@@YA_NAAU?$less@_K@0@AB_K1PB_WI@Z 100cbe60 f i MyDynLib.obj
 0001:000caf30       ??$_Debug_lt_pred@ABU?$less@_K@std@@AB_KAB_K@std@@YA_NABU?$less@_K@0@AB_K1PB_WI@Z 100cbf30 f i MyDynLib.obj
 0001:000cb000       ??$_Debug_range2@PAD@std@@YAXPAD0PB_WIUrandom_access_iterator_tag@0@@Z 100cc000 f i MyDynLib.obj
 0001:000cb080       ??$_Debug_range@PAD@std@@YAXPAD0PB_WI@Z 100cc080 f i MyDynLib.obj
 0001:000cb0e0       ??$_Destroy_range1@V?$allocator@E@std@@@std@@YAXPAE0AAV?$allocator@E@0@U?$integral_constant@_N$00@0@@Z 100cc0e0 f i MyDynLib.obj
 0001:000cb110       ??$_Destroy_range1@V?$allocator@PAVIResource@@@std@@@std@@YAXPAPAVIResource@@0AAV?$allocator@PAVIResource@@@0@U?$integral_constant@_N$00@0@@Z 100cc110 f i MyDynLib.obj
 0001:000cb140       ??$_Destroy_range@V?$allocator@E@std@@@std@@YAXPAE0AAV?$allocator@E@0@@Z 100cc140 f i MyDynLib.obj
 0001:000cb190       ??$_Destroy_range@V?$allocator@PAVIResource@@@std@@@std@@YAXPAPAVIResource@@0AAV?$allocator@PAVIResource@@@0@@Z 100cc190 f i MyDynLib.obj
 0001:000cb1e0       ??$_Distance1@V?$_Tree_const_iterator@V?$_Tree_val@U?$_Tree_simple_types@U?$pair@$$CB_KPAVIResource@@@std@@@std@@@std@@@std@@@std@@YAHV?$_Tree_const_iterator@V?$_Tree_val@U?$_Tree_simple_types@U?$pair@$$CB_KPAVIResource@@@std@@@std@@@std@@@0@0Uinput_iterator_tag@0@@Z 100cc1e0 f i MyDynLib.obj
 0001:000cb2a0       ??$_Emplace_back_with_unused_capacity@ABE@?$vector@EV?$allocator@E@std@@@std@@AAEXABE@Z 100cc2a0 f i MyDynLib.obj
 0001:000cb350       ??$_Emplace_back_with_unused_capacity@ABQAVIResource@@@?$vector@PAVIResource@@V?$allocator@PAVIResource@@@std@@@std@@AAEXABQAVIResource@@@Z 100cc350 f i MyDynLib.obj
 0001:000cb400       ??$_Eqrange@_K@?$_Tree@V?$_Tmap_traits@_KPAVIResource@@U?$less@_K@std@@V?$allocator@U?$pair@$$CB_KPAVIResource@@@std@@@3@$0A@@std@@@std@@IBE?AU?$pair@V?$_Tree_const_iterator@V?$_Tree_val@U?$_Tree_simple_types@U?$pair@$$CB_KPAVIResource@@@std@@@std@@@std@@@std@@V12@@1@AB_K@Z 100cc400 f i MyDynLib.obj
 0001:000cb6a0       ??$_Fgetc@D@std@@YA_NAADPAU_iobuf@@@Z 100cc6a0 f i MyDynLib.obj
 0001:000cb710       ??$_Fputc@D@std@@YA_NDPAU_iobuf@@@Z 100cc710 f i MyDynLib.obj
 0001:000cb780       ??$_Insert_at@AAU?$pair@$$CB_KPAVIResource@@@std@@PAU?$_Tree_node@U?$pair@$$CB_KPAVIResource@@@std@@PAX@2@@?$_Tree@V?$_Tmap_traits@_KPAVIResource@@U?$less@_K@std@@V?$allocator@U?$pair@$$CB_KPAVIResource@@@std@@@3@$0A@@std@@@std@@IAE?AV?$_Tree_iterator@V?$_Tree_val@U?$_Tree_simple_types@U?$pair@$$CB_KPAVIResource@@@std@@@std@@@std@@@1@_NPAU?$_Tree_node@U?$pair@$$CB_KPAVIResource@@@std@@PAX@1@AAU?$pair@$$CB_KPAVIResource@@@1@1@Z 100cc780 f i MyDynLib.obj
 0001:000cba60       ??$_Insert_nohint@AAU?$pair@$$CB_KPAVIResource@@@std@@PAU?$_Tree_node@U?$pair@$$CB_KPAVIResource@@@std@@PAX@2@@?$_Tree@V?$_Tmap_traits@_KPAVIResource@@U?$less@_K@std@@V?$allocator@U?$pair@$$CB_KPAVIResource@@@std@@@3@$0A@@std@@@std@@IAE?AU?$pair@V?$_Tree_iterator@V?$_Tree_val@U?$_Tree_simple_types@U?$pair@$$CB_KPAVIResource@@@std@@@std@@@std@@@std@@_N@1@_NAAU?$pair@$$CB_KPAVIResource@@@1@PAU?$_Tree_node@U?$pair@$$CB_KPAVIResource@@@std@@PAX@1@@Z 100cca60 f i MyDynLib.obj
 0001:000cbf70       ??$_Integral_to_string@DH@std@@YA?AV?$basic_string@DU?$char_traits@D@std@@V?$allocator@D@2@@0@H@Z 100ccf70 f i MyDynLib.obj
 0001:000cc080       ??$_Integral_to_string@D_K@std@@YA?AV?$basic_string@DU?$char_traits@D@std@@V?$allocator@D@2@@0@_K@Z 100cd080 f i MyDynLib.obj
 0001:000cc1a0       ??$_Kfn@$$CB_KPAVIResource@@@?$_Tmap_traits@_KPAVIResource@@U?$less@_K@std@@V?$allocator@U?$pair@$$CB_KPAVIResource@@@std@@@3@$0A@@std@@SAAB_KABU?$pair@$$CB_KPAVIResource@@@1@@Z 100cd1a0 f i MyDynLib.obj
 0001:000cc1d0       ??$_Lbound@_K@?$_Tree@V?$_Tmap_traits@_KPAVIResource@@U?$less@_K@std@@V?$allocator@U?$pair@$$CB_KPAVIResource@@@std@@@3@$0A@@std@@@std@@IBEPAU?$_Tree_node@U?$pair@$$CB_KPAVIResource@@@std@@PAX@1@AB_K@Z 100cd1d0 f i MyDynLib.obj
 0001:000cc270       ??$_Max_value@I@std@@YAABIABI0@Z 100cd270 f i MyDynLib.obj
 0001:000cc2d0       ??$_Min_value@I@std@@YAABIABI0@Z 100cd2d0 f i MyDynLib.obj
 0001:000cc330       ??$_Ptr_move_cat@EE@std@@YA?AU_Really_trivial_ptr_iterator_tag@0@ABQAE0@Z 100cd330 f i MyDynLib.obj
 0001:000cc360       ??$_Ptr_move_cat@PAVIResource@@PAV1@@std@@YA?AU_Really_trivial_ptr_iterator_tag@0@ABQAPAVIResource@@0@Z 100cd360 f i MyDynLib.obj
 0001:000ccb70       ??$_Rechecked@PAEPAE@std@@YAAAPAEAAPAEPAE@Z 100cdb70 f i MyDynLib.obj
 0001:000ccba0       ??$_Rechecked@PAPAVIResource@@PAPAV1@@std@@YAAAPAPAVIResource@@AAPAPAV1@PAPAV1@@Z 100cdba0 f i MyDynLib.obj
 0001:000ccbd0       ??$_Refancy@PAD$0A@@std@@YAPADPAD@Z 100cdbd0 f i MyDynLib.obj
 0001:000ccc00       ??$_Traits_equal@U?$char_traits@D@std@@@std@@YA_NQBDI0I@Z 100cdc00 f i MyDynLib.obj
 0001:000ccc70       ??$_Traits_find@U?$char_traits@D@std@@@std@@YAIQBDII0I@Z 100cdc70 f i MyDynLib.obj
 0001:000ccd30       ??$_Traits_find_last_of@U?$char_traits@D@std@@@std@@YAIQBDII0I@Z 100cdd30 f i MyDynLib.obj
 0001:000ccdd0       ??$_UIntegral_to_buff@DI@std@@YAPADPADI@Z 100cddd0 f i MyDynLib.obj
 0001:000ccea0       ??$_UIntegral_to_buff@D_K@std@@YAPADPAD_K@Z 100cdea0 f i MyDynLib.obj
 0001:000ccfb0       ??$_Unchecked@PAD@std@@YAPADPAD@Z 100cdfb0 f i MyDynLib.obj
 0001:000ccfe0       ??$_Unchecked@PAE@std@@YAPAEPAE@Z 100cdfe0 f i MyDynLib.obj
 0001:000cd010       ??$_Unchecked@PAPAVIResource@@@std@@YAPAPAVIResource@@PAPAV1@@Z 100ce010 f i MyDynLib.obj
 0001:000cd040       ??$_Unfancy@$$CBD@std@@YAPBDPBD@Z 100ce040 f i MyDynLib.obj
 0001:000cd070       ??$_Unfancy@D@std@@YAPADPAD@Z 100ce070 f i MyDynLib.obj
 0001:000cd0a0       ??$_Unfancy@E@std@@YAPAEPAE@Z 100ce0a0 f i MyDynLib.obj
 0001:000cd0d0       ??$_Unfancy@PAVIResource@@@std@@YAPAPAVIResource@@PAPAV1@@Z 100ce0d0 f i MyDynLib.obj
 0001:000cd100       ??$_Unfancy@U_Container_proxy@std@@@std@@YAPAU_Container_proxy@0@PAU10@@Z 100ce100 f i MyDynLib.obj
 0001:000cd130       ??$_Ungetc@D@std@@YA_NABDPAU_iobuf@@@Z 100ce130 f i MyDynLib.obj
 0001:000cd1a0       ??$_Uninitialized_move@PAEPAEV?$allocator@E@std@@@std@@YAPAEPAE00AAV?$allocator@E@0@@Z 100ce1a0 f i MyDynLib.obj
 0001:000cd2a0       ??$_Uninitialized_move@PAPAVIResource@@PAPAV1@V?$allocator@PAVIResource@@@std@@@std@@YAPAPAVIResource@@PAPAV1@00AAV?$allocator@PAVIResource@@@0@@Z 100ce2a0 f i MyDynLib.obj
 0001:000cd3a0       ??$_Uninitialized_move_al_unchecked@EEV?$allocator@E@std@@@std@@YAPAEPAE00AAV?$allocator@E@0@U_Really_trivial_ptr_iterator_tag@0@U?$integral_constant@_N$00@0@@Z 100ce3a0 f i MyDynLib.obj
 0001:000cd3f0       ??$_Uninitialized_move_al_unchecked@PAVIResource@@PAV1@V?$allocator@PAVIResource@@@std@@@std@@YAPAPAVIResource@@PAPAV1@00AAV?$allocator@PAVIResource@@@0@U_Really_trivial_ptr_iterator_tag@0@U?$integral_constant@_N$00@0@@Z 100ce3f0 f i MyDynLib.obj
 0001:000cd440       ??$__vcrt_va_start_verify_argument_type@QBD@@YAXXZ 100ce440 f i MyDynLib.obj
 0001:000cd470       ??$addressof@$$CBV?$_Tree_val@U?$_Tree_simple_types@U?$pair@$$CB_KPAVIResource@@@std@@@std@@@std@@@std@@YAPBV?$_Tree_val@U?$_Tree_simple_types@U?$pair@$$CB_KPAVIResource@@@std@@@std@@@0@ABV10@@Z 100ce470 f i MyDynLib.obj
 0001:000cd4a0       ??$addressof@PAD@std@@YAPAPADAAPAD@Z 100ce4a0 f i MyDynLib.obj
 0001:000cd4d0       ??$addressof@PAU?$_Tree_node@U?$pair@$$CB_KPAVIResource@@@std@@PAX@std@@@std@@YAPAPAU?$_Tree_node@U?$pair@$$CB_KPAVIResource@@@std@@PAX@0@AAPAU10@@Z 100ce4d0 f i MyDynLib.obj
 0001:000cd500       ??$addressof@U?$pair@$$CB_KPAVIResource@@@std@@@std@@YAPAU?$pair@$$CB_KPAVIResource@@@0@AAU10@@Z 100ce500 f i MyDynLib.obj
 0001:000cd530       ??$addressof@V?$_String_val@U?$_Simple_types@D@std@@@std@@@std@@YAPAV?$_String_val@U?$_Simple_types@D@std@@@0@AAV10@@Z 100ce530 f i MyDynLib.obj
 0001:000cd560       ??$addressof@V?$_Tree_val@U?$_Tree_simple_types@U?$pair@$$CB_KPAVIResource@@@std@@@std@@@std@@@std@@YAPAV?$_Tree_val@U?$_Tree_simple_types@U?$pair@$$CB_KPAVIResource@@@std@@@std@@@0@AAV10@@Z 100ce560 f i MyDynLib.obj
 0001:000cd590       ??$addressof@V?$_Vector_val@U?$_Simple_types@E@std@@@std@@@std@@YAPAV?$_Vector_val@U?$_Simple_types@E@std@@@0@AAV10@@Z 100ce590 f i MyDynLib.obj
 0001:000cd5c0       ??$construct@EABE@?$_Default_allocator_traits@V?$allocator@E@std@@@std@@SAXAAV?$allocator@E@1@QAEABE@Z 100ce5c0 f i MyDynLib.obj
 0001:000cd620       ??$construct@PADABQAD@?$_Default_allocator_traits@V?$allocator@D@std@@@std@@SAXAAV?$allocator@D@1@QAPADABQAD@Z 100ce620 f i MyDynLib.obj
 0001:000cd680       ??$construct@PAU?$_Tree_node@U?$pair@$$CB_KPAVIResource@@@std@@PAX@std@@AAPAU12@@?$_Default_allocator_traits@V?$allocator@U?$_Tree_node@U?$pair@$$CB_KPAVIResource@@@std@@PAX@std@@@std@@@std@@SAXAAV?$allocator@U?$_Tree_node@U?$pair@$$CB_KPAVIResource@@@std@@PAX@std@@@1@QAPAU?$_Tree_node@U?$pair@$$CB_KPAVIResource@@@std@@PAX@1@AAPAU31@@Z 100ce680 f i MyDynLib.obj
 0001:000cd6e0       ??$construct@PAVIResource@@ABQAV1@@?$_Default_allocator_traits@V?$allocator@PAVIResource@@@std@@@std@@SAXAAV?$allocator@PAVIResource@@@1@QAPAVIResource@@ABQAV3@@Z 100ce6e0 f i MyDynLib.obj
 0001:000cd740       ??$construct@U?$pair@$$CB_KPAVIResource@@@std@@U?$pair@_KPAVIResource@@@2@@?$_Default_allocator_traits@V?$allocator@U?$_Tree_node@U?$pair@$$CB_KPAVIResource@@@std@@PAX@std@@@std@@@std@@SAXAAV?$allocator@U?$_Tree_node@U?$pair@$$CB_KPAVIResource@@@std@@PAX@std@@@1@QAU?$pair@$$CB_KPAVIResource@@@1@$$QAU?$pair@_KPAVIResource@@@1@@Z 100ce740 f i MyDynLib.obj
 0001:000cd7a0       ??$construct@U_Container_proxy@std@@U12@@?$_Default_allocator_traits@V?$allocator@U_Container_proxy@std@@@std@@@std@@SAXAAV?$allocator@U_Container_proxy@std@@@1@QAU_Container_proxy@1@$$QAU31@@Z 100ce7a0 f i MyDynLib.obj
 0001:000cd810       ??$destroy@E@?$_Default_allocator_traits@V?$allocator@E@std@@@std@@SAXAAV?$allocator@E@1@QAE@Z 100ce810 f i MyDynLib.obj
 0001:000cd840       ??$destroy@PAD@?$_Default_allocator_traits@V?$allocator@D@std@@@std@@SAXAAV?$allocator@D@1@QAPAD@Z 100ce840 f i MyDynLib.obj
 0001:000cd870       ??$destroy@PAU?$_Tree_node@U?$pair@$$CB_KPAVIResource@@@std@@PAX@std@@@?$_Default_allocator_traits@V?$allocator@U?$_Tree_node@U?$pair@$$CB_KPAVIResource@@@std@@PAX@std@@@std@@@std@@SAXAAV?$allocator@U?$_Tree_node@U?$pair@$$CB_KPAVIResource@@@std@@PAX@std@@@1@QAPAU?$_Tree_node@U?$pair@$$CB_KPAVIResource@@@std@@PAX@1@@Z 100ce870 f i MyDynLib.obj
 0001:000cd8a0       ??$destroy@PAVIResource@@@?$_Default_allocator_traits@V?$allocator@PAVIResource@@@std@@@std@@SAXAAV?$allocator@PAVIResource@@@1@QAPAVIResource@@@Z 100ce8a0 f i MyDynLib.obj
 0001:000cd8d0       ??$destroy@U?$pair@$$CB_KPAVIResource@@@std@@@?$_Default_allocator_traits@V?$allocator@U?$_Tree_node@U?$pair@$$CB_KPAVIResource@@@std@@PAX@std@@@std@@@std@@SAXAAV?$allocator@U?$_Tree_node@U?$pair@$$CB_KPAVIResource@@@std@@PAX@std@@@1@QAU?$pair@$$CB_KPAVIResource@@@1@@Z 100ce8d0 f i MyDynLib.obj
 0001:000cd900       ??$destroy@U_Container_proxy@std@@@?$_Default_allocator_traits@V?$allocator@U_Container_proxy@std@@@std@@@std@@SAXAAV?$allocator@U_Container_proxy@std@@@1@QAU_Container_proxy@1@@Z 100ce900 f i MyDynLib.obj
 0001:000cd930       ??$distance@V?$_Tree_const_iterator@V?$_Tree_val@U?$_Tree_simple_types@U?$pair@$$CB_KPAVIResource@@@std@@@std@@@std@@@std@@@std@@YAHV?$_Tree_const_iterator@V?$_Tree_val@U?$_Tree_simple_types@U?$pair@$$CB_KPAVIResource@@@std@@@std@@@std@@@0@0@Z 100ce930 f i MyDynLib.obj
 0001:000cda00       ??$emplace@U?$pair@_KPAVIResource@@@std@@@?$_Tree@V?$_Tmap_traits@_KPAVIResource@@U?$less@_K@std@@V?$allocator@U?$pair@$$CB_KPAVIResource@@@std@@@3@$0A@@std@@@std@@QAE?AU?$pair@V?$_Tree_iterator@V?$_Tree_val@U?$_Tree_simple_types@U?$pair@$$CB_KPAVIResource@@@std@@@std@@@std@@@std@@_N@1@$$QAU?$pair@_KPAVIResource@@@1@@Z 100cea00 f i MyDynLib.obj
 0001:000cda90       ??$emplace_back@ABE@?$vector@EV?$allocator@E@std@@@std@@QAE@ABE@Z 100cea90 f i MyDynLib.obj
 0001:000cdc50       ??$emplace_back@ABQAVIResource@@@?$vector@PAVIResource@@V?$allocator@PAVIResource@@@std@@@std@@QAE@ABQAVIResource@@@Z 100cec50 f i MyDynLib.obj
 0001:000cde10       ??$end@D$0BF@@std@@YAPADAAY0BF@D@Z 100cee10 f i MyDynLib.obj
 0001:000cde40       ??$endl@DU?$char_traits@D@std@@@std@@YAAAV?$basic_ostream@DU?$char_traits@D@std@@@0@AAV10@@Z 100cee40 f i MyDynLib.obj
 0001:000cdec0       ??$forward@AAPAU?$_Tree_node@U?$pair@$$CB_KPAVIResource@@@std@@PAX@std@@@std@@YAAAPAU?$_Tree_node@U?$pair@$$CB_KPAVIResource@@@std@@PAX@0@AAPAU10@@Z 100ceec0 f i MyDynLib.obj
 0001:000cdef0       ??$forward@AAPAVIResource@@@std@@YAAAPAVIResource@@AAPAV1@@Z 100ceef0 f i MyDynLib.obj
 0001:000cdf20       ??$forward@AAU?$pair@$$CB_KPAVIResource@@@std@@@std@@YAAAU?$pair@$$CB_KPAVIResource@@@0@AAU10@@Z 100cef20 f i MyDynLib.obj
 0001:000cdf50       ??$forward@AAV?$_Tree_const_iterator@V?$_Tree_val@U?$_Tree_simple_types@U?$pair@$$CB_KPAVIResource@@@std@@@std@@@std@@@std@@@std@@YAAAV?$_Tree_const_iterator@V?$_Tree_val@U?$_Tree_simple_types@U?$pair@$$CB_KPAVIResource@@@std@@@std@@@std@@@0@AAV10@@Z 100cef50 f i MyDynLib.obj
 0001:000cdf80       ??$forward@AAV?$_Tree_iterator@V?$_Tree_val@U?$_Tree_simple_types@U?$pair@$$CB_KPAVIResource@@@std@@@std@@@std@@@std@@@std@@YAAAV?$_Tree_iterator@V?$_Tree_val@U?$_Tree_simple_types@U?$pair@$$CB_KPAVIResource@@@std@@@std@@@std@@@0@AAV10@@Z 100cef80 f i MyDynLib.obj
 0001:000cdfb0       ??$forward@AA_K@std@@YAAA_KAA_K@Z 100cefb0 f i MyDynLib.obj
 0001:000cdfe0       ??$forward@ABE@std@@YAABEABE@Z 100cefe0 f i MyDynLib.obj
 0001:000ce010       ??$forward@ABQAD@std@@YAABQADABQAD@Z 100cf010 f i MyDynLib.obj
 0001:000ce040       ??$forward@ABQAVIResource@@@std@@YAABQAVIResource@@ABQAV1@@Z 100cf040 f i MyDynLib.obj
 0001:000ce070       ??$forward@ABU?$less@_K@std@@@std@@YAABU?$less@_K@0@ABU10@@Z 100cf070 f i MyDynLib.obj
 0001:000ce0a0       ??$forward@ABV?$allocator@D@std@@@std@@YAABV?$allocator@D@0@ABV10@@Z 100cf0a0 f i MyDynLib.obj
 0001:000ce0d0       ??$forward@PAVIResource@@@std@@YA$$QAPAVIResource@@AAPAV1@@Z 100cf0d0 f i MyDynLib.obj
 0001:000ce100       ??$forward@U?$pair@_KPAVIResource@@@std@@@std@@YA$$QAU?$pair@_KPAVIResource@@@0@AAU10@@Z 100cf100 f i MyDynLib.obj
 0001:000ce130       ??$forward@U_Container_proxy@std@@@std@@YA$$QAU_Container_proxy@0@AAU10@@Z 100cf130 f i MyDynLib.obj
 0001:000ce160       ??$forward@U_Zero_then_variadic_args_t@std@@@std@@YA$$QAU_Zero_then_variadic_args_t@0@AAU10@@Z 100cf160 f i MyDynLib.obj
 0001:000ce190       ??$forward@V?$_Tree_iterator@V?$_Tree_val@U?$_Tree_simple_types@U?$pair@$$CB_KPAVIResource@@@std@@@std@@@std@@@std@@@std@@YA$$QAV?$_Tree_iterator@V?$_Tree_val@U?$_Tree_simple_types@U?$pair@$$CB_KPAVIResource@@@std@@@std@@@std@@@0@AAV10@@Z 100cf190 f i MyDynLib.obj
 0001:000ce1c0       ??$forward@V?$allocator@D@std@@@std@@YA$$QAV?$allocator@D@0@AAV10@@Z 100cf1c0 f i MyDynLib.obj
 0001:000ce1f0       ??$forward@_K@std@@YA$$QA_KAA_K@Z 100cf1f0 f i MyDynLib.obj
 0001:000ce220       ??$forward@_N@std@@YA$$QA_NAA_N@Z 100cf220 f i MyDynLib.obj
 0001:000ce250       ??$insert@U?$pair@_KPAVIResource@@@std@@X@?$map@_KPAVIResource@@U?$less@_K@std@@V?$allocator@U?$pair@$$CB_KPAVIResource@@@std@@@3@@std@@QAE?AU?$pair@V?$_Tree_iterator@V?$_Tree_val@U?$_Tree_simple_types@U?$pair@$$CB_KPAVIResource@@@std@@@std@@@std@@@std@@_N@1@$$QAU?$pair@_KPAVIResource@@@1@@Z 100cf250 f i MyDynLib.obj
 0001:000ce2c0       ??$move@AAV?$allocator@D@std@@@std@@YA$$QAV?$allocator@D@0@AAV10@@Z 100cf2c0 f i MyDynLib.obj
 0001:000ce2f0       ??$move@AAV?$basic_string@DU?$char_traits@D@std@@V?$allocator@D@2@@std@@@std@@YA$$QAV?$basic_string@DU?$char_traits@D@std@@V?$allocator@D@2@@0@AAV10@@Z 100cf2f0 f i MyDynLib.obj
 0001:000ce320       ??$use_facet@V?$codecvt@DDU_Mbstatet@@@std@@@std@@YAABV?$codecvt@DDU_Mbstatet@@@0@ABVlocale@0@@Z 100cf320 f i MyDynLib.obj
 0001:000ce4d0       ??0?$_String_alloc@U?$_String_base_types@DV?$allocator@D@std@@@std@@@std@@QAE@XZ 100cf4d0 f i MyDynLib.obj
 0001:000ce560       ??0?$_String_const_iterator@V?$_String_val@U?$_Simple_types@D@std@@@std@@@std@@QAE@PBDPBU_Container_base12@1@@Z 100cf560 f i MyDynLib.obj
 0001:000ce5c0       ??0?$_String_iterator@V?$_String_val@U?$_Simple_types@D@std@@@std@@@std@@QAE@PADPBU_Container_base12@1@@Z 100cf5c0 f i MyDynLib.obj
 0001:000ce610       ??0?$_String_val@U?$_Simple_types@D@std@@@std@@QAE@XZ 100cf610 f i MyDynLib.obj
 0001:000ce6b0       ??0?$_Tree@V?$_Tmap_traits@_KPAVIResource@@U?$less@_K@std@@V?$allocator@U?$pair@$$CB_KPAVIResource@@@std@@@3@$0A@@std@@@std@@QAE@ABU?$less@_K@1@@Z 100cf6b0 f i MyDynLib.obj
 0001:000ce700       ??0?$_Tree_comp_alloc@V?$_Tmap_traits@_KPAVIResource@@U?$less@_K@std@@V?$allocator@U?$pair@$$CB_KPAVIResource@@@std@@@3@$0A@@std@@@std@@QAE@ABU?$less@_K@1@@Z 100cf700 f i MyDynLib.obj
 0001:000ce7a0       ??0?$_Tree_const_iterator@V?$_Tree_val@U?$_Tree_simple_types@U?$pair@$$CB_KPAVIResource@@@std@@@std@@@std@@@std@@QAE@$$QAV01@@Z 100cf7a0 f i MyDynLib.obj
 0001:000ce7f0       ??0?$_Tree_const_iterator@V?$_Tree_val@U?$_Tree_simple_types@U?$pair@$$CB_KPAVIResource@@@std@@@std@@@std@@@std@@QAE@ABV01@@Z 100cf7f0 f i MyDynLib.obj
 0001:000ce840       ??0?$_Tree_const_iterator@V?$_Tree_val@U?$_Tree_simple_types@U?$pair@$$CB_KPAVIResource@@@std@@@std@@@std@@@std@@QAE@PAU?$_Tree_node@U?$pair@$$CB_KPAVIResource@@@std@@PAX@1@PBV?$_Tree_val@U?$_Tree_simple_types@U?$pair@$$CB_KPAVIResource@@@std@@@std@@@1@@Z 100cf840 f i MyDynLib.obj
 0001:000ce890       ??0?$_Tree_iterator@V?$_Tree_val@U?$_Tree_simple_types@U?$pair@$$CB_KPAVIResource@@@std@@@std@@@std@@@std@@QAE@$$QAV01@@Z 100cf890 f i MyDynLib.obj
 0001:000ce8e0       ??0?$_Tree_iterator@V?$_Tree_val@U?$_Tree_simple_types@U?$pair@$$CB_KPAVIResource@@@std@@@std@@@std@@@std@@QAE@ABV01@@Z 100cf8e0 f i MyDynLib.obj
 0001:000ce930       ??0?$_Tree_iterator@V?$_Tree_val@U?$_Tree_simple_types@U?$pair@$$CB_KPAVIResource@@@std@@@std@@@std@@@std@@QAE@PAU?$_Tree_node@U?$pair@$$CB_KPAVIResource@@@std@@PAX@1@PBV?$_Tree_val@U?$_Tree_simple_types@U?$pair@$$CB_KPAVIResource@@@std@@@std@@@1@@Z 100cf930 f i MyDynLib.obj
 0001:000ce980       ??0?$_Tree_unchecked_const_iterator@V?$_Tree_val@U?$_Tree_simple_types@U?$pair@$$CB_KPAVIResource@@@std@@@std@@@std@@U_Iterator_base12@2@@std@@QAE@$$QAV01@@Z 100cf980 f i MyDynLib.obj
 0001:000ce9e0       ??0?$_Tree_unchecked_const_iterator@V?$_Tree_val@U?$_Tree_simple_types@U?$pair@$$CB_KPAVIResource@@@std@@@std@@@std@@U_Iterator_base12@2@@std@@QAE@ABV01@@Z 100cf9e0 f i MyDynLib.obj
 0001:000cea40       ??0?$_Tree_unchecked_const_iterator@V?$_Tree_val@U?$_Tree_simple_types@U?$pair@$$CB_KPAVIResource@@@std@@@std@@@std@@U_Iterator_base12@2@@std@@QAE@PAU?$_Tree_node@U?$pair@$$CB_KPAVIResource@@@std@@PAX@1@PBV?$_Tree_val@U?$_Tree_simple_types@U?$pair@$$CB_KPAVIResource@@@std@@@std@@@1@@Z 100cfa40 f i MyDynLib.obj
 0001:000ceaa0       ??0?$_Tree_val@U?$_Tree_simple_types@U?$pair@$$CB_KPAVIResource@@@std@@@std@@@std@@QAE@XZ 100cfaa0 f i MyDynLib.obj
 0001:000ceb00       ??0?$_Vector_alloc@U?$_Vec_base_types@EV?$allocator@E@std@@@std@@@std@@QAE@XZ 100cfb00 f i MyDynLib.obj
 0001:000ceb90       ??0?$_Vector_const_iterator@V?$_Vector_val@U?$_Simple_types@E@std@@@std@@@std@@QAE@PAEPBU_Container_base12@1@@Z 100cfb90 f i MyDynLib.obj
 0001:000cebf0       ??0?$_Vector_iterator@V?$_Vector_val@U?$_Simple_types@E@std@@@std@@@std@@QAE@PAEPBU_Container_base12@1@@Z 100cfbf0 f i MyDynLib.obj
 0001:000cec40       ??0?$_Vector_val@U?$_Simple_types@E@std@@@std@@QAE@XZ 100cfc40 f i MyDynLib.obj
 0001:000ceca0       ??0?$allocator@D@std@@QAE@XZ 100cfca0 f i MyDynLib.obj
 0001:000cecd0       ??0?$allocator@E@std@@QAE@XZ 100cfcd0 f i MyDynLib.obj
 0001:000ced00       ??0?$allocator@U?$_Tree_node@U?$pair@$$CB_KPAVIResource@@@std@@PAX@std@@@std@@QAE@XZ 100cfd00 f i MyDynLib.obj
 0001:000ced30       ??0?$basic_filebuf@DU?$char_traits@D@std@@@std@@QAE@PAU_iobuf@@@Z 100cfd30 f i MyDynLib.obj
 0001:000cedd0       ??0?$basic_ifstream@DU?$char_traits@D@std@@@std@@QAE@ABV?$basic_string@DU?$char_traits@D@std@@V?$allocator@D@2@@1@HH@Z 100cfdd0 f i MyDynLib.obj
 0001:000cee60       ??0?$basic_ifstream@DU?$char_traits@D@std@@@std@@QAE@PBDHH@Z 100cfe60 f i MyDynLib.obj
 0001:000cefb0       ??0?$basic_string@DU?$char_traits@D@std@@V?$allocator@D@2@@std@@QAE@$$QAV01@@Z 100cffb0 f i MyDynLib.obj
 0001:000cf060       ??0?$basic_string@DU?$char_traits@D@std@@V?$allocator@D@2@@std@@QAE@ABV01@IIABV?$allocator@D@1@@Z 100d0060 f i MyDynLib.obj
 0001:000cf100       ??0?$basic_string@DU?$char_traits@D@std@@V?$allocator@D@2@@std@@QAE@ID@Z 100d0100 f i MyDynLib.obj
 0001:000cf1a0       ??0?$basic_string@DU?$char_traits@D@std@@V?$allocator@D@2@@std@@QAE@QBD@Z 100d01a0 f i MyDynLib.obj
 0001:000cf230       ??0?$basic_string@DU?$char_traits@D@std@@V?$allocator@D@2@@std@@QAE@XZ 100d0230 f i MyDynLib.obj
 0001:000cf2b0       ??0?$fpos@U_Mbstatet@@@std@@QAE@U_Mbstatet@@_J@Z 100d02b0 f i MyDynLib.obj
 0001:000cf310       ??0?$fpos@U_Mbstatet@@@std@@QAE@_J@Z 100d0310 f i MyDynLib.obj
 0001:000cf370       ??0?$map@_KPAVIResource@@U?$less@_K@std@@V?$allocator@U?$pair@$$CB_KPAVIResource@@@std@@@3@@std@@QAE@XZ 100d0370 f i MyDynLib.obj
 0001:000cf3c0       ??0?$vector@EV?$allocator@E@std@@@std@@QAE@XZ 100d03c0 f i MyDynLib.obj
 0001:000cf430       ??0CImageResource@@QAE@PBD_K@Z 100d0430 f i MyDynLib.obj
 0001:000cf4d0       ??0CResource@@QAE@PBD_K@Z  100d04d0 f i MyDynLib.obj
 0001:000cf570       ??0CResourceCollection@@QAE@XZ 100d0570 f i MyDynLib.obj
 0001:000cf690       ??0IImageResource@@QAE@$$QAV0@@Z 100d0690 f i MyDynLib.obj
 0001:000cf6f0       ??0IImageResource@@QAE@ABV0@@Z 100d06f0 f i MyDynLib.obj
 0001:000cf750       ??0IImageResource@@QAE@XZ  100d0750 f i MyDynLib.obj
 0001:000cf7a0       ??0IResource@@QAE@$$QAV0@@Z 100d07a0 f i MyDynLib.obj
 0001:000cf7e0       ??0IResource@@QAE@ABV0@@Z  100d07e0 f i MyDynLib.obj
 0001:000cf820       ??0IResource@@QAE@XZ       100d0820 f i MyDynLib.obj
 0001:000cf860       ??0IResourceCollection@@QAE@$$QAV0@@Z 100d0860 f i MyDynLib.obj
 0001:000cf8a0       ??0IResourceCollection@@QAE@ABV0@@Z 100d08a0 f i MyDynLib.obj
 0001:000cf8e0       ??0IResourceCollection@@QAE@XZ 100d08e0 f i MyDynLib.obj
 0001:000cf920       ??0IVideoResource@@QAE@$$QAV0@@Z 100d0920 f i MyDynLib.obj
 0001:000cf980       ??0IVideoResource@@QAE@ABV0@@Z 100d0980 f i MyDynLib.obj
 0001:000cf9e0       ??0IVideoResource@@QAE@XZ  100d09e0 f i MyDynLib.obj
 0001:000cfa30       ??0_Bxty@?$_String_val@U?$_Simple_types@D@std@@@std@@QAE@XZ 100d0a30 f i MyDynLib.obj
 0001:000cfa60       ??0_Container_base12@std@@QAE@XZ 100d0a60 f i MyDynLib.obj
 0001:000cfaa0       ??0_Container_proxy@std@@QAE@XZ 100d0aa0 f i MyDynLib.obj
 0001:000cfae0       ??0_Iterator_base12@std@@QAE@ABU01@@Z 100d0ae0 f i MyDynLib.obj
 0001:000cfb40       ??0_Iterator_base12@std@@QAE@XZ 100d0b40 f i MyDynLib.obj
 0001:000cfb80       ??0_Sentry_base@?$basic_ostream@DU?$char_traits@D@std@@@std@@QAE@AAV12@@Z 100d0b80 f i MyDynLib.obj
 0001:000cfc40       ??0bad_cast@std@@QAE@ABV01@@Z 100d0c40 f i MyDynLib.obj
 0001:000cfca0       ??0bad_cast@std@@QAE@XZ    100d0ca0 f i MyDynLib.obj
 0001:000cfd00       ??0exception@std@@QAE@ABV01@@Z 100d0d00 f i MyDynLib.obj
 0001:000cfd70       ??0exception@std@@QAE@QBDH@Z 100d0d70 f i MyDynLib.obj
 0001:000cfdc0       ??0random_device@std@@QAE@ABV?$basic_string@DU?$char_traits@D@std@@V?$allocator@D@2@@1@@Z 100d0dc0 f i MyDynLib.obj
 0001:000cfe10       ??0sentry@?$basic_ostream@DU?$char_traits@D@std@@@std@@QAE@AAV12@@Z 100d0e10 f i MyDynLib.obj
 0001:000cff50       ??1?$_Compressed_pair@U?$less@_K@std@@V?$_Compressed_pair@V?$allocator@U?$_Tree_node@U?$pair@$$CB_KPAVIResource@@@std@@PAX@std@@@std@@V?$_Tree_val@U?$_Tree_simple_types@U?$pair@$$CB_KPAVIResource@@@std@@@std@@@2@$00@2@$00@std@@QAE@XZ 100d0f50 f i MyDynLib.obj
 0001:000cff90       ??1?$_Compressed_pair@V?$allocator@D@std@@V?$_String_val@U?$_Simple_types@D@std@@@2@$00@std@@QAE@XZ 100d0f90 f i MyDynLib.obj
 0001:000cffd0       ??1?$_Compressed_pair@V?$allocator@E@std@@V?$_Vector_val@U?$_Simple_types@E@std@@@2@$00@std@@QAE@XZ 100d0fd0 f i MyDynLib.obj
 0001:000d0010       ??1?$_Compressed_pair@V?$allocator@U?$_Tree_node@U?$pair@$$CB_KPAVIResource@@@std@@PAX@std@@@std@@V?$_Tree_val@U?$_Tree_simple_types@U?$pair@$$CB_KPAVIResource@@@std@@@std@@@2@$00@std@@QAE@XZ 100d1010 f i MyDynLib.obj
 0001:000d0050       ??1?$_String_alloc@U?$_String_base_types@DV?$allocator@D@std@@@std@@@std@@QAE@XZ 100d1050 f i MyDynLib.obj
 0001:000d00d0       ??1?$_String_const_iterator@V?$_String_val@U?$_Simple_types@D@std@@@std@@@std@@QAE@XZ 100d10d0 f i MyDynLib.obj
 0001:000d0110       ??1?$_String_iterator@V?$_String_val@U?$_Simple_types@D@std@@@std@@@std@@QAE@XZ 100d1110 f i MyDynLib.obj
 0001:000d0150       ??1?$_String_val@U?$_Simple_types@D@std@@@std@@QAE@XZ 100d1150 f i MyDynLib.obj
 0001:000d01a0       ??1?$_Tree_const_iterator@V?$_Tree_val@U?$_Tree_simple_types@U?$pair@$$CB_KPAVIResource@@@std@@@std@@@std@@@std@@QAE@XZ 100d11a0 f i MyDynLib.obj
 0001:000d01e0       ??1?$_Tree_iterator@V?$_Tree_val@U?$_Tree_simple_types@U?$pair@$$CB_KPAVIResource@@@std@@@std@@@std@@@std@@QAE@XZ 100d11e0 f i MyDynLib.obj
 0001:000d0220       ??1?$_Tree_unchecked_const_iterator@V?$_Tree_val@U?$_Tree_simple_types@U?$pair@$$CB_KPAVIResource@@@std@@@std@@@std@@U_Iterator_base12@2@@std@@QAE@XZ 100d1220 f i MyDynLib.obj
 0001:000d0260       ??1?$_Tree_val@U?$_Tree_simple_types@U?$pair@$$CB_KPAVIResource@@@std@@@std@@@std@@QAE@XZ 100d1260 f i MyDynLib.obj
 0001:000d02a0       ??1?$_Vector_alloc@U?$_Vec_base_types@EV?$allocator@E@std@@@std@@@std@@QAE@XZ 100d12a0 f i MyDynLib.obj
 0001:000d0320       ??1?$_Vector_const_iterator@V?$_Vector_val@U?$_Simple_types@E@std@@@std@@@std@@QAE@XZ 100d1320 f i MyDynLib.obj
 0001:000d0360       ??1?$_Vector_iterator@V?$_Vector_val@U?$_Simple_types@E@std@@@std@@@std@@QAE@XZ 100d1360 f i MyDynLib.obj
 0001:000d03a0       ??1?$_Vector_val@U?$_Simple_types@E@std@@@std@@QAE@XZ 100d13a0 f i MyDynLib.obj
 0001:000d03e0       ??1?$basic_filebuf@DU?$char_traits@D@std@@@std@@UAE@XZ 100d13e0 f i MyDynLib.obj
 0001:000d0480       ??1?$basic_ifstream@DU?$char_traits@D@std@@@std@@UAE@XZ 100d1480 f i MyDynLib.obj
 0001:000d0510       ??1?$basic_string@DU?$char_traits@D@std@@V?$allocator@D@2@@std@@QAE@XZ 100d1510 f i MyDynLib.obj
 0001:000d0590       ??1?$pair@V?$_Tree_const_iterator@V?$_Tree_val@U?$_Tree_simple_types@U?$pair@$$CB_KPAVIResource@@@std@@@std@@@std@@@std@@V12@@std@@QAE@XZ 100d1590 f i MyDynLib.obj
 0001:000d05e0       ??1?$pair@V?$_Tree_iterator@V?$_Tree_val@U?$_Tree_simple_types@U?$pair@$$CB_KPAVIResource@@@std@@@std@@@std@@@std@@_N@std@@QAE@XZ 100d15e0 f i MyDynLib.obj
 0001:000d0620       ??1?$vector@EV?$allocator@E@std@@@std@@QAE@XZ 100d1620 f i MyDynLib.obj
 0001:000d06a0       ??1_Bxty@?$_String_val@U?$_Simple_types@D@std@@@std@@QAE@XZ 100d16a0 f i MyDynLib.obj
 0001:000d06d0       ??1_Container_base12@std@@QAE@XZ 100d16d0 f i MyDynLib.obj
 0001:000d0710       ??1_Iterator_base12@std@@QAE@XZ 100d1710 f i MyDynLib.obj
 0001:000d07e0       ??1_Sentry_base@?$basic_ostream@DU?$char_traits@D@std@@@std@@QAE@XZ 100d17e0 f i MyDynLib.obj
 0001:000d08c0       ??1bad_cast@std@@UAE@XZ    100d18c0 f i MyDynLib.obj
 0001:000d0900       ??1exception@std@@UAE@XZ   100d1900 f i MyDynLib.obj
 0001:000d0950       ??1locale@std@@QAE@XZ      100d1950 f i MyDynLib.obj
 0001:000d0a20       ??1sentry@?$basic_ostream@DU?$char_traits@D@std@@@std@@QAE@XZ 100d1a20 f i MyDynLib.obj
 0001:000d0ab0       ??2@YAPAXIPAX@Z            100d1ab0 f i MyDynLib.obj
 0001:000d0ae0       ??4IImageResource@@QAEAAV0@$$QAV0@@Z 100d1ae0 f i MyDynLib.obj
 0001:000d0b30       ??4IImageResource@@QAEAAV0@ABV0@@Z 100d1b30 f i MyDynLib.obj
 0001:000d0b80       ??4IResource@@QAEAAV0@$$QAV0@@Z 100d1b80 f i MyDynLib.obj
 0001:000d0bb0       ??4IResource@@QAEAAV0@ABV0@@Z 100d1bb0 f i MyDynLib.obj
 0001:000d0be0       ??4IResourceCollection@@QAEAAV0@$$QAV0@@Z 100d1be0 f i MyDynLib.obj
 0001:000d0c10       ??4IResourceCollection@@QAEAAV0@ABV0@@Z 100d1c10 f i MyDynLib.obj
 0001:000d0c40       ??4IVideoResource@@QAEAAV0@$$QAV0@@Z 100d1c40 f i MyDynLib.obj
 0001:000d0c90       ??4IVideoResource@@QAEAAV0@ABV0@@Z 100d1c90 f i MyDynLib.obj
 0001:000d0ce0       ??4_Iterator_base12@std@@QAEAAU01@ABU01@@Z 100d1ce0 f i MyDynLib.obj
 0001:000d0de0       ??8?$_Tree_const_iterator@V?$_Tree_val@U?$_Tree_simple_types@U?$pair@$$CB_KPAVIResource@@@std@@@std@@@std@@@std@@QBE_NABV01@@Z 100d1de0 f i MyDynLib.obj
 0001:000d0ea0       ??8?$_Vector_const_iterator@V?$_Vector_val@U?$_Simple_types@E@std@@@std@@@std@@QBE_NABV01@@Z 100d1ea0 f i MyDynLib.obj
 0001:000d0f10       ??9?$_Tree_const_iterator@V?$_Tree_val@U?$_Tree_simple_types@U?$pair@$$CB_KPAVIResource@@@std@@@std@@@std@@@std@@QBE_NABV01@@Z 100d1f10 f i MyDynLib.obj
 0001:000d0f80       ??9?$_Vector_const_iterator@V?$_Vector_val@U?$_Simple_types@E@std@@@std@@@std@@QBE_NABV01@@Z 100d1f80 f i MyDynLib.obj
 0001:000d0ff0       ??B?$fpos@U_Mbstatet@@@std@@QBE_JXZ 100d1ff0 f i MyDynLib.obj
 0001:000d1030       ??Bsentry@?$basic_ostream@DU?$char_traits@D@std@@@std@@QBE_NXZ 100d2030 f i MyDynLib.obj
 0001:000d1060       ??C?$_Tree_iterator@V?$_Tree_val@U?$_Tree_simple_types@U?$pair@$$CB_KPAVIResource@@@std@@@std@@@std@@@std@@QBEPAU?$pair@$$CB_KPAVIResource@@@1@XZ 100d2060 f i MyDynLib.obj
 0001:000d10b0       ??D?$_String_const_iterator@V?$_String_val@U?$_Simple_types@D@std@@@std@@@std@@QBEABDXZ 100d20b0 f i MyDynLib.obj
 0001:000d1200       ??D?$_String_iterator@V?$_String_val@U?$_Simple_types@D@std@@@std@@@std@@QBEAADXZ 100d2200 f i MyDynLib.obj
 0001:000d1240       ??D?$_Tree_const_iterator@V?$_Tree_val@U?$_Tree_simple_types@U?$pair@$$CB_KPAVIResource@@@std@@@std@@@std@@@std@@QBEABU?$pair@$$CB_KPAVIResource@@@1@XZ 100d2240 f i MyDynLib.obj
 0001:000d12f0       ??D?$_Tree_iterator@V?$_Tree_val@U?$_Tree_simple_types@U?$pair@$$CB_KPAVIResource@@@std@@@std@@@std@@@std@@QBEAAU?$pair@$$CB_KPAVIResource@@@1@XZ 100d22f0 f i MyDynLib.obj
 0001:000d1330       ??D?$_Vector_const_iterator@V?$_Vector_val@U?$_Simple_types@E@std@@@std@@@std@@QBEABEXZ 100d2330 f i MyDynLib.obj
 0001:000d13e0       ??D?$_Vector_iterator@V?$_Vector_val@U?$_Simple_types@E@std@@@std@@@std@@QBEAAEXZ 100d23e0 f i MyDynLib.obj
 0001:000d1420       ??E?$_Tree_const_iterator@V?$_Tree_val@U?$_Tree_simple_types@U?$pair@$$CB_KPAVIResource@@@std@@@std@@@std@@@std@@QAEAAV01@XZ 100d2420 f i MyDynLib.obj
 0001:000d14d0       ??E?$_Tree_iterator@V?$_Tree_val@U?$_Tree_simple_types@U?$pair@$$CB_KPAVIResource@@@std@@@std@@@std@@@std@@QAEAAV01@XZ 100d24d0 f i MyDynLib.obj
 0001:000d1520       ??E?$_Tree_unchecked_const_iterator@V?$_Tree_val@U?$_Tree_simple_types@U?$pair@$$CB_KPAVIResource@@@std@@@std@@@std@@U_Iterator_base12@2@@std@@QAEAAV01@XZ 100d2520 f i MyDynLib.obj
 0001:000d15d0       ??E?$_Vector_const_iterator@V?$_Vector_val@U?$_Simple_types@E@std@@@std@@@std@@QAEAAV01@XZ 100d25d0 f i MyDynLib.obj
 0001:000d1680       ??E?$_Vector_iterator@V?$_Vector_val@U?$_Simple_types@E@std@@@std@@@std@@QAEAAV01@XZ 100d2680 f i MyDynLib.obj
 0001:000d16d0       ??F?$_Tree_const_iterator@V?$_Tree_val@U?$_Tree_simple_types@U?$pair@$$CB_KPAVIResource@@@std@@@std@@@std@@@std@@QAEAAV01@XZ 100d26d0 f i MyDynLib.obj
 0001:000d17c0       ??F?$_Tree_iterator@V?$_Tree_val@U?$_Tree_simple_types@U?$pair@$$CB_KPAVIResource@@@std@@@std@@@std@@@std@@QAEAAV01@XZ 100d27c0 f i MyDynLib.obj
 0001:000d1810       ??F?$_Tree_unchecked_const_iterator@V?$_Tree_val@U?$_Tree_simple_types@U?$pair@$$CB_KPAVIResource@@@std@@@std@@@std@@U_Iterator_base12@2@@std@@QAEAAV01@XZ 100d2810 f i MyDynLib.obj
 0001:000d1b70       ??R?$less@_K@std@@QBE_NAB_K0@Z 100d2b70 f i MyDynLib.obj
 0001:000d1c00       ??Rrandom_device@std@@QAEIXZ 100d2c00 f i MyDynLib.obj
 0001:000d1c40       ??_D?$basic_ifstream@DU?$char_traits@D@std@@@std@@QAEXXZ 100d2c40 f i MyDynLib.obj
 0001:000d1c97       ??_E?$basic_ifstream@DU?$char_traits@D@std@@@std@@$4PPPPPPPM@A@AEPAXI@Z 100d2c97 f i MyDynLib.obj
 0001:000d1ca0       ??_E?$basic_filebuf@DU?$char_traits@D@std@@@std@@UAEPAXI@Z 100d2ca0 f i MyDynLib.obj
 0001:000d1ca0       ??_G?$basic_filebuf@DU?$char_traits@D@std@@@std@@UAEPAXI@Z 100d2ca0 f i MyDynLib.obj
 0001:000d1d00       ??_E?$basic_ifstream@DU?$char_traits@D@std@@@std@@UAEPAXI@Z 100d2d00 f i MyDynLib.obj
 0001:000d1d00       ??_G?$basic_ifstream@DU?$char_traits@D@std@@@std@@UAEPAXI@Z 100d2d00 f i MyDynLib.obj
 0001:000d1d70       ??_Gbad_cast@std@@UAEPAXI@Z 100d2d70 f i MyDynLib.obj
 0001:000d1d70       ??_Ebad_cast@std@@UAEPAXI@Z 100d2d70 f i MyDynLib.obj
 0001:000d1dd0       ??_Eexception@std@@UAEPAXI@Z 100d2dd0 f i MyDynLib.obj
 0001:000d1dd0       ??_Gexception@std@@UAEPAXI@Z 100d2dd0 f i MyDynLib.obj
 0001:000d1e30       ?AddFile@CResourceCollection@@UAE?AW4TReturn@@PBDAA_K@Z 100d2e30 f   MyDynLib.obj
 0001:000d24e0       ?CreateResourceCollection@@YAPAVIResourceCollection@@XZ 100d34e0 f   MyDynLib.obj
 0001:000d25f0       ?DB@CResourceCollection@@UAEPBDXZ 100d35f0 f   MyDynLib.obj
 0001:000d2620       ?DestroyResourceCollection@@YAXPAVIResourceCollection@@@Z 100d3620 f   MyDynLib.obj
 0001:000d26b0       ?Id@CImageResource@@UBE_KXZ 100d36b0 f   MyDynLib.obj
 0001:000d26f0       ?Id@CResource@@UBE_KXZ     100d36f0 f   MyDynLib.obj
 0001:000d2730       ?Path@CImageResource@@UBEPBDXZ 100d3730 f   MyDynLib.obj
 0001:000d2760       ?Path@CResource@@UBEPBDXZ  100d3760 f   MyDynLib.obj
 0001:000d2790       ?Properties@CImageResource@@UAEPAUCImageProperties@IImageResource@@XZ 100d3790 f   MyDynLib.obj
 0001:000d27c0       ?Raw@CImageResource@@UAE?AUSDataRef@@XZ 100d37c0 f   MyDynLib.obj
 0001:000d2810       ?Raw@CResource@@UAE?AUSDataRef@@XZ 100d3810 f   MyDynLib.obj
 0001:000d2b20       ?ReadFile@CImageResource@@QAEHXZ 100d3b20 f   MyDynLib.obj
 0001:000d2ec0       ?ResourceFromId@CResourceCollection@@UAE?AW4TReturn@@_KAAPAVIResource@@@Z 100d3ec0 f   MyDynLib.obj
 0001:000d2fe0       ?ResourceList@CResourceCollection@@UAE?AW4TReturn@@AAV?$vector@PAVIResource@@V?$allocator@PAVIResource@@@std@@@std@@PBUSResourceFilter@@@Z 100d3fe0 f   MyDynLib.obj
 0001:000d3380       ?Type@CImageResource@@UAE?AW4TResourceType@@XZ 100d4380 f i MyDynLib.obj
 0001:000d33b0       ?Type@CResource@@UAE?AW4TResourceType@@XZ 100d43b0 f i MyDynLib.obj
 0001:000d33e0       ?Type@IImageResource@@UBE?AW4TResourceType@@XZ 100d43e0 f i MyDynLib.obj
 0001:000d3410       ?Type@IResource@@UAE?AW4TResourceType@@XZ 100d4410 f i MyDynLib.obj
 0001:000d3440       ?Type@IVideoResource@@UBE?AW4TResourceType@@XZ 100d4440 f i MyDynLib.obj
 0001:000d3470       ?UncompressedData@CImageResource@@UAE?AUSDataRef@@XZ 100d4470 f   MyDynLib.obj
 0001:000d34c0       ?_Adopt@_Iterator_base12@std@@QAEXPBU_Container_base12@2@@Z 100d44c0 f i MyDynLib.obj
 0001:000d3600       ?_Alloc_proxy@?$_String_alloc@U?$_String_base_types@DV?$allocator@D@std@@@std@@@std@@QAEXXZ 100d4600 f i MyDynLib.obj
 0001:000d3700       ?_Alloc_proxy@?$_Tree_comp_alloc@V?$_Tmap_traits@_KPAVIResource@@U?$less@_K@std@@V?$allocator@U?$pair@$$CB_KPAVIResource@@@std@@@3@$0A@@std@@@std@@QAEXXZ 100d4700 f i MyDynLib.obj
 0001:000d3800       ?_Alloc_proxy@?$_Vector_alloc@U?$_Vec_base_types@EV?$allocator@E@std@@@std@@@std@@QAEXXZ 100d4800 f i MyDynLib.obj
 0001:000d3900       ?_Allocate@std@@YAPAXII_N@Z 100d4900 f i MyDynLib.obj
 0001:000d3ae0       ?_Assign_rv_contents_with_alloc_always_equal@?$basic_string@DU?$char_traits@D@std@@V?$allocator@D@2@@std@@QAEX$$QAV12@U?$integral_constant@_N$00@2@@Z 100d4ae0 f i MyDynLib.obj
 0001:000d3b90       ?_Buyheadnode@?$_Tree_comp_alloc@V?$_Tmap_traits@_KPAVIResource@@U?$less@_K@std@@V?$allocator@U?$pair@$$CB_KPAVIResource@@@std@@@3@$0A@@std@@@std@@QAEPAU?$_Tree_node@U?$pair@$$CB_KPAVIResource@@@std@@PAX@2@XZ 100d4b90 f i MyDynLib.obj
 0001:000d3cf0       ?_Buynode0@?$_Tree_comp_alloc@V?$_Tmap_traits@_KPAVIResource@@U?$less@_K@std@@V?$allocator@U?$pair@$$CB_KPAVIResource@@@std@@@3@$0A@@std@@@std@@QAEPAU?$_Tree_node@U?$pair@$$CB_KPAVIResource@@@std@@PAX@2@XZ 100d4cf0 f i MyDynLib.obj
 0001:000d3e20       ?_Calculate_growth@?$basic_string@DU?$char_traits@D@std@@V?$allocator@D@2@@std@@QBEII@Z 100d4e20 f i MyDynLib.obj
 0001:000d3f10       ?_Calculate_growth@?$vector@EV?$allocator@E@std@@@std@@ABEII@Z 100d4f10 f i MyDynLib.obj
 0001:000d3f90       ?_Calculate_growth@?$vector@PAVIResource@@V?$allocator@PAVIResource@@@std@@@std@@ABEII@Z 100d4f90 f i MyDynLib.obj
 0001:000d4010       ?_Change_array@?$vector@EV?$allocator@E@std@@@std@@AAEXQAEII@Z 100d5010 f i MyDynLib.obj
 0001:000d40d0       ?_Change_array@?$vector@PAVIResource@@V?$allocator@PAVIResource@@@std@@@std@@AAEXQAPAVIResource@@II@Z 100d50d0 f i MyDynLib.obj
 0001:000d41a0       ?_Check_offset@?$_String_val@U?$_Simple_types@D@std@@@std@@QBEXI@Z 100d51a0 f i MyDynLib.obj
 0001:000d41f0       ?_Clamp_suffix_size@?$_String_val@U?$_Simple_types@D@std@@@std@@QBEIII@Z 100d51f0 f i MyDynLib.obj
 0001:000d4250       ?_Clrcont@_Iterator_base12@std@@QAEXXZ 100d5250 f i MyDynLib.obj
 0001:000d4290       ?_Compare@?$_Tree@V?$_Tmap_traits@_KPAVIResource@@U?$less@_K@std@@V?$allocator@U?$pair@$$CB_KPAVIResource@@@std@@@3@$0A@@std@@@std@@IBE_NAB_K0@Z 100d5290 f i MyDynLib.obj
 0001:000d42f0       ?_Compat@?$_Vector_const_iterator@V?$_Vector_val@U?$_Simple_types@E@std@@@std@@@std@@QBEXABV12@@Z 100d52f0 f i MyDynLib.obj
 0001:000d4380       ?_Construct@?$_Tree_comp_alloc@V?$_Tmap_traits@_KPAVIResource@@U?$less@_K@std@@V?$allocator@U?$pair@$$CB_KPAVIResource@@@std@@@3@$0A@@std@@@std@@QAEXXZ 100d5380 f i MyDynLib.obj
 0001:000d4440       ?_Construct@?$basic_string@DU?$char_traits@D@std@@V?$allocator@D@2@@std@@QAEXQAD0Urandom_access_iterator_tag@2@@Z 100d5440 f i MyDynLib.obj
 0001:000d44a0       ?_Deallocate@std@@YAXPAXII@Z 100d54a0 f i MyDynLib.obj
 0001:000d45a0       ?_Destroy@?$vector@EV?$allocator@E@std@@@std@@AAEXPAE0@Z 100d55a0 f i MyDynLib.obj
 0001:000d4600       ?_Destroy@?$vector@PAVIResource@@V?$allocator@PAVIResource@@@std@@@std@@AAEXPAPAVIResource@@0@Z 100d5600 f i MyDynLib.obj
 0001:000d4660       ?_Destroy_if_not_nil@?$_Tree@V?$_Tmap_traits@_KPAVIResource@@U?$less@_K@std@@V?$allocator@U?$pair@$$CB_KPAVIResource@@@std@@@3@$0A@@std@@@std@@IAEXPAU?$_Tree_node@U?$pair@$$CB_KPAVIResource@@@std@@PAX@2@@Z 100d5660 f i MyDynLib.obj
 0001:000d46d0       ?_Endwrite@?$basic_filebuf@DU?$char_traits@D@std@@@std@@IAE_NXZ 100d56d0 f i MyDynLib.obj
 0001:000d4ab0       ?_Equal@?$basic_string@DU?$char_traits@D@std@@V?$allocator@D@2@@std@@QBE_NQBD@Z 100d5ab0 f i MyDynLib.obj
 0001:000d4b50       ?_Free_proxy@?$_String_alloc@U?$_String_base_types@DV?$allocator@D@std@@@std@@@std@@QAEXXZ 100d5b50 f i MyDynLib.obj
 0001:000d4c30       ?_Free_proxy@?$_Vector_alloc@U?$_Vec_base_types@EV?$allocator@E@std@@@std@@@std@@QAEXXZ 100d5c30 f i MyDynLib.obj
 0001:000d4d10       ?_Freeheadnode@?$_Tree_comp_alloc@V?$_Tmap_traits@_KPAVIResource@@U?$less@_K@std@@V?$allocator@U?$pair@$$CB_KPAVIResource@@@std@@@3@$0A@@std@@@std@@QAEXPAU?$_Tree_node@U?$pair@$$CB_KPAVIResource@@@std@@PAX@2@@Z 100d5d10 f i MyDynLib.obj
 0001:000d4dc0       ?_Freenode0@?$_Tree_comp_alloc@V?$_Tmap_traits@_KPAVIResource@@U?$less@_K@std@@V?$allocator@U?$pair@$$CB_KPAVIResource@@@std@@@3@$0A@@std@@@std@@QAEXPAU?$_Tree_node@U?$pair@$$CB_KPAVIResource@@@std@@PAX@2@@Z 100d5dc0 f i MyDynLib.obj
 0001:000d4e70       ?_Get_data@?$_String_alloc@U?$_String_base_types@DV?$allocator@D@std@@@std@@@std@@QAEAAV?$_String_val@U?$_Simple_types@D@std@@@2@XZ 100d5e70 f i MyDynLib.obj
 0001:000d4eb0       ?_Get_data@?$_String_alloc@U?$_String_base_types@DV?$allocator@D@std@@@std@@@std@@QBEABV?$_String_val@U?$_Simple_types@D@std@@@2@XZ 100d5eb0 f i MyDynLib.obj
 0001:000d4ef0       ?_Get_data@?$_Tree_comp_alloc@V?$_Tmap_traits@_KPAVIResource@@U?$less@_K@std@@V?$allocator@U?$pair@$$CB_KPAVIResource@@@std@@@3@$0A@@std@@@std@@QAEAAV?$_Tree_val@U?$_Tree_simple_types@U?$pair@$$CB_KPAVIResource@@@std@@@std@@@2@XZ 100d5ef0 f i MyDynLib.obj
 0001:000d4f40       ?_Get_data@?$_Tree_comp_alloc@V?$_Tmap_traits@_KPAVIResource@@U?$less@_K@std@@V?$allocator@U?$pair@$$CB_KPAVIResource@@@std@@@3@$0A@@std@@@std@@QBEABV?$_Tree_val@U?$_Tree_simple_types@U?$pair@$$CB_KPAVIResource@@@std@@@std@@@2@XZ 100d5f40 f i MyDynLib.obj
 0001:000d4f90       ?_Get_data@?$_Vector_alloc@U?$_Vec_base_types@EV?$allocator@E@std@@@std@@@std@@QAEAAV?$_Vector_val@U?$_Simple_types@E@std@@@2@XZ 100d5f90 f i MyDynLib.obj
 0001:000d4fd0       ?_Get_data@?$_Vector_alloc@U?$_Vec_base_types@EV?$allocator@E@std@@@std@@@std@@QBEABV?$_Vector_val@U?$_Simple_types@E@std@@@2@XZ 100d5fd0 f i MyDynLib.obj
 0001:000d5010       ?_Get_data@?$_Vector_alloc@U?$_Vec_base_types@PAVIResource@@V?$allocator@PAVIResource@@@std@@@std@@@std@@QAEAAV?$_Vector_val@U?$_Simple_types@PAVIResource@@@std@@@2@XZ 100d6010 f i MyDynLib.obj
 0001:000d5050       ?_Get_data@?$_Vector_alloc@U?$_Vec_base_types@PAVIResource@@V?$allocator@PAVIResource@@@std@@@std@@@std@@QBEABV?$_Vector_val@U?$_Simple_types@PAVIResource@@@std@@@2@XZ 100d6050 f i MyDynLib.obj
 0001:000d5090       ?_Get_first@?$_Compressed_pair@U?$less@_K@std@@V?$_Compressed_pair@V?$allocator@U?$_Tree_node@U?$pair@$$CB_KPAVIResource@@@std@@PAX@std@@@std@@V?$_Tree_val@U?$_Tree_simple_types@U?$pair@$$CB_KPAVIResource@@@std@@@std@@@2@$00@2@$00@std@@QAEAAU?$less@_K@2@XZ 100d6090 f i MyDynLib.obj
 0001:000d50c0       ?_Get_first@?$_Compressed_pair@U?$less@_K@std@@V?$_Compressed_pair@V?$allocator@U?$_Tree_node@U?$pair@$$CB_KPAVIResource@@@std@@PAX@std@@@std@@V?$_Tree_val@U?$_Tree_simple_types@U?$pair@$$CB_KPAVIResource@@@std@@@std@@@2@$00@2@$00@std@@QBEABU?$less@_K@2@XZ 100d60c0 f i MyDynLib.obj
 0001:000d50f0       ?_Get_first@?$_Compressed_pair@V?$allocator@D@std@@V?$_String_val@U?$_Simple_types@D@std@@@2@$00@std@@QAEAAV?$allocator@D@2@XZ 100d60f0 f i MyDynLib.obj
 0001:000d5120       ?_Get_first@?$_Compressed_pair@V?$allocator@D@std@@V?$_String_val@U?$_Simple_types@D@std@@@2@$00@std@@QBEABV?$allocator@D@2@XZ 100d6120 f i MyDynLib.obj
 0001:000d5150       ?_Get_first@?$_Compressed_pair@V?$allocator@E@std@@V?$_Vector_val@U?$_Simple_types@E@std@@@2@$00@std@@QAEAAV?$allocator@E@2@XZ 100d6150 f i MyDynLib.obj
 0001:000d5180       ?_Get_first@?$_Compressed_pair@V?$allocator@E@std@@V?$_Vector_val@U?$_Simple_types@E@std@@@2@$00@std@@QBEABV?$allocator@E@2@XZ 100d6180 f i MyDynLib.obj
 0001:000d51b0       ?_Get_first@?$_Compressed_pair@V?$allocator@PAVIResource@@@std@@V?$_Vector_val@U?$_Simple_types@PAVIResource@@@std@@@2@$00@std@@QAEAAV?$allocator@PAVIResource@@@2@XZ 100d61b0 f i MyDynLib.obj
 0001:000d51e0       ?_Get_first@?$_Compressed_pair@V?$allocator@PAVIResource@@@std@@V?$_Vector_val@U?$_Simple_types@PAVIResource@@@std@@@2@$00@std@@QBEABV?$allocator@PAVIResource@@@2@XZ 100d61e0 f i MyDynLib.obj
 0001:000d5210       ?_Get_first@?$_Compressed_pair@V?$allocator@U?$_Tree_node@U?$pair@$$CB_KPAVIResource@@@std@@PAX@std@@@std@@V?$_Tree_val@U?$_Tree_simple_types@U?$pair@$$CB_KPAVIResource@@@std@@@std@@@2@$00@std@@QAEAAV?$allocator@U?$_Tree_node@U?$pair@$$CB_KPAVIResource@@@std@@PAX@std@@@2@XZ 100d6210 f i MyDynLib.obj
 0001:000d5240       ?_Get_first@?$_Compressed_pair@V?$allocator@U?$_Tree_node@U?$pair@$$CB_KPAVIResource@@@std@@PAX@std@@@std@@V?$_Tree_val@U?$_Tree_simple_types@U?$pair@$$CB_KPAVIResource@@@std@@@std@@@2@$00@std@@QBEABV?$allocator@U?$_Tree_node@U?$pair@$$CB_KPAVIResource@@@std@@PAX@std@@@2@XZ 100d6240 f i MyDynLib.obj
 0001:000d5270       ?_Get_second@?$_Compressed_pair@U?$less@_K@std@@V?$_Compressed_pair@V?$allocator@U?$_Tree_node@U?$pair@$$CB_KPAVIResource@@@std@@PAX@std@@@std@@V?$_Tree_val@U?$_Tree_simple_types@U?$pair@$$CB_KPAVIResource@@@std@@@std@@@2@$00@2@$00@std@@QAEAAV?$_Compressed_pair@V?$allocator@U?$_Tree_node@U?$pair@$$CB_KPAVIResource@@@std@@PAX@std@@@std@@V?$_Tree_val@U?$_Tree_simple_types@U?$pair@$$CB_KPAVIResource@@@std@@@std@@@2@$00@2@XZ 100d6270 f i MyDynLib.obj
 0001:000d52a0       ?_Get_second@?$_Compressed_pair@U?$less@_K@std@@V?$_Compressed_pair@V?$allocator@U?$_Tree_node@U?$pair@$$CB_KPAVIResource@@@std@@PAX@std@@@std@@V?$_Tree_val@U?$_Tree_simple_types@U?$pair@$$CB_KPAVIResource@@@std@@@std@@@2@$00@2@$00@std@@QBEABV?$_Compressed_pair@V?$allocator@U?$_Tree_node@U?$pair@$$CB_KPAVIResource@@@std@@PAX@std@@@std@@V?$_Tree_val@U?$_Tree_simple_types@U?$pair@$$CB_KPAVIResource@@@std@@@std@@@2@$00@2@XZ 100d62a0 f i MyDynLib.obj
 0001:000d52d0       ?_Get_second@?$_Compressed_pair@V?$allocator@D@std@@V?$_String_val@U?$_Simple_types@D@std@@@2@$00@std@@QAEAAV?$_String_val@U?$_Simple_types@D@std@@@2@XZ 100d62d0 f i MyDynLib.obj
 0001:000d5300       ?_Get_second@?$_Compressed_pair@V?$allocator@D@std@@V?$_String_val@U?$_Simple_types@D@std@@@2@$00@std@@QBEABV?$_String_val@U?$_Simple_types@D@std@@@2@XZ 100d6300 f i MyDynLib.obj
 0001:000d5330       ?_Get_second@?$_Compressed_pair@V?$allocator@E@std@@V?$_Vector_val@U?$_Simple_types@E@std@@@2@$00@std@@QAEAAV?$_Vector_val@U?$_Simple_types@E@std@@@2@XZ 100d6330 f i MyDynLib.obj
 0001:000d5360       ?_Get_second@?$_Compressed_pair@V?$allocator@E@std@@V?$_Vector_val@U?$_Simple_types@E@std@@@2@$00@std@@QBEABV?$_Vector_val@U?$_Simple_types@E@std@@@2@XZ 100d6360 f i MyDynLib.obj
 0001:000d5390       ?_Get_second@?$_Compressed_pair@V?$allocator@PAVIResource@@@std@@V?$_Vector_val@U?$_Simple_types@PAVIResource@@@std@@@2@$00@std@@QAEAAV?$_Vector_val@U?$_Simple_types@PAVIResource@@@std@@@2@XZ 100d6390 f i MyDynLib.obj
 0001:000d53c0       ?_Get_second@?$_Compressed_pair@V?$allocator@PAVIResource@@@std@@V?$_Vector_val@U?$_Simple_types@PAVIResource@@@std@@@2@$00@std@@QBEABV?$_Vector_val@U?$_Simple_types@PAVIResource@@@std@@@2@XZ 100d63c0 f i MyDynLib.obj
 0001:000d53f0       ?_Get_second@?$_Compressed_pair@V?$allocator@U?$_Tree_node@U?$pair@$$CB_KPAVIResource@@@std@@PAX@std@@@std@@V?$_Tree_val@U?$_Tree_simple_types@U?$pair@$$CB_KPAVIResource@@@std@@@std@@@2@$00@std@@QAEAAV?$_Tree_val@U?$_Tree_simple_types@U?$pair@$$CB_KPAVIResource@@@std@@@std@@@2@XZ 100d63f0 f i MyDynLib.obj
 0001:000d5420       ?_Get_second@?$_Compressed_pair@V?$allocator@U?$_Tree_node@U?$pair@$$CB_KPAVIResource@@@std@@PAX@std@@@std@@V?$_Tree_val@U?$_Tree_simple_types@U?$pair@$$CB_KPAVIResource@@@std@@@std@@@2@$00@std@@QBEABV?$_Tree_val@U?$_Tree_simple_types@U?$pair@$$CB_KPAVIResource@@@std@@@std@@@2@XZ 100d6420 f i MyDynLib.obj
 0001:000d5450       ?_Getal@?$_String_alloc@U?$_String_base_types@DV?$allocator@D@std@@@std@@@std@@QAEAAV?$allocator@D@2@XZ 100d6450 f i MyDynLib.obj
 0001:000d5490       ?_Getal@?$_String_alloc@U?$_String_base_types@DV?$allocator@D@std@@@std@@@std@@QBEABV?$allocator@D@2@XZ 100d6490 f i MyDynLib.obj
 0001:000d54d0       ?_Getal@?$_Tree_comp_alloc@V?$_Tmap_traits@_KPAVIResource@@U?$less@_K@std@@V?$allocator@U?$pair@$$CB_KPAVIResource@@@std@@@3@$0A@@std@@@std@@QAEAAV?$allocator@U?$_Tree_node@U?$pair@$$CB_KPAVIResource@@@std@@PAX@std@@@2@XZ 100d64d0 f i MyDynLib.obj
 0001:000d5520       ?_Getal@?$_Tree_comp_alloc@V?$_Tmap_traits@_KPAVIResource@@U?$less@_K@std@@V?$allocator@U?$pair@$$CB_KPAVIResource@@@std@@@3@$0A@@std@@@std@@QBEABV?$allocator@U?$_Tree_node@U?$pair@$$CB_KPAVIResource@@@std@@PAX@std@@@2@XZ 100d6520 f i MyDynLib.obj
 0001:000d5570       ?_Getal@?$_Vector_alloc@U?$_Vec_base_types@EV?$allocator@E@std@@@std@@@std@@QAEAAV?$allocator@E@2@XZ 100d6570 f i MyDynLib.obj
 0001:000d55b0       ?_Getal@?$_Vector_alloc@U?$_Vec_base_types@EV?$allocator@E@std@@@std@@@std@@QBEABV?$allocator@E@2@XZ 100d65b0 f i MyDynLib.obj
 0001:000d55f0       ?_Getal@?$_Vector_alloc@U?$_Vec_base_types@PAVIResource@@V?$allocator@PAVIResource@@@std@@@std@@@std@@QAEAAV?$allocator@PAVIResource@@@2@XZ 100d65f0 f i MyDynLib.obj
 0001:000d5630       ?_Getal@?$_Vector_alloc@U?$_Vec_base_types@PAVIResource@@V?$allocator@PAVIResource@@@std@@@std@@@std@@QBEABV?$allocator@PAVIResource@@@2@XZ 100d6630 f i MyDynLib.obj
 0001:000d5670       ?_Getcomp@?$_Tree_comp_alloc@V?$_Tmap_traits@_KPAVIResource@@U?$less@_K@std@@V?$allocator@U?$pair@$$CB_KPAVIResource@@@std@@@3@$0A@@std@@@std@@QAEAAU?$less@_K@2@XZ 100d6670 f i MyDynLib.obj
 0001:000d56b0       ?_Getcomp@?$_Tree_comp_alloc@V?$_Tmap_traits@_KPAVIResource@@U?$less@_K@std@@V?$allocator@U?$pair@$$CB_KPAVIResource@@@std@@@3@$0A@@std@@@std@@QBEABU?$less@_K@2@XZ 100d66b0 f i MyDynLib.obj
 0001:000d56f0       ?_Getcont@_Iterator_base12@std@@QBEPBU_Container_base12@2@XZ 100d66f0 f i MyDynLib.obj
 0001:000d5750       ?_Getfacet@locale@std@@QBEPBVfacet@12@I@Z 100d6750 f i MyDynLib.obj
 0001:000d5820       ?_Getpfirst@?$_Vector_alloc@U?$_Vec_base_types@EV?$allocator@E@std@@@std@@@std@@QBEPAPAU_Iterator_base12@2@XZ 100d6820 f i MyDynLib.obj
 0001:000d5870       ?_Getpfirst@?$_Vector_alloc@U?$_Vec_base_types@PAVIResource@@V?$allocator@PAVIResource@@@std@@@std@@@std@@QBEPAPAU_Iterator_base12@2@XZ 100d6870 f i MyDynLib.obj
 0001:000d58c0       ?_Getpfirst@_Container_base12@std@@QBEPAPAU_Iterator_base12@2@XZ 100d68c0 f i MyDynLib.obj
 0001:000d5920       ?_Getpnext@_Iterator_base12@std@@QAEPAPAU12@XZ 100d6920 f i MyDynLib.obj
 0001:000d5950       ?_Has_unused_capacity@?$vector@EV?$allocator@E@std@@@std@@ABE_NXZ 100d6950 f i MyDynLib.obj
 0001:000d59c0       ?_Has_unused_capacity@?$vector@PAVIResource@@V?$allocator@PAVIResource@@@std@@@std@@ABE_NXZ 100d69c0 f i MyDynLib.obj
 0001:000d5a30       ?_Init@?$basic_filebuf@DU?$char_traits@D@std@@@std@@IAEXPAU_iobuf@@W4_Initfl@12@@Z 100d6a30 f i MyDynLib.obj
 0001:000d5bb0       ?_Initcvt@?$basic_filebuf@DU?$char_traits@D@std@@@std@@IAEXPBV?$codecvt@DDU_Mbstatet@@@2@@Z 100d6bb0 f i MyDynLib.obj
 0001:000d5c30       ?_Key@?$_Tree@V?$_Tmap_traits@_KPAVIResource@@U?$less@_K@std@@V?$allocator@U?$pair@$$CB_KPAVIResource@@@std@@@3@$0A@@std@@@std@@IBEAB_KPAU?$_Tree_node@U?$pair@$$CB_KPAVIResource@@@std@@PAX@2@@Z 100d6c30 f i MyDynLib.obj
 0001:000d5c80       ?_Kfn@?$_Tree@V?$_Tmap_traits@_KPAVIResource@@U?$less@_K@std@@V?$allocator@U?$pair@$$CB_KPAVIResource@@@std@@@3@$0A@@std@@@std@@IBEAB_KABU?$pair@$$CB_KPAVIResource@@@2@@Z 100d6c80 f i MyDynLib.obj
 0001:000d5cd0       ?_Large_string_engaged@?$_String_val@U?$_Simple_types@D@std@@@std@@QBE_NXZ 100d6cd0 f i MyDynLib.obj
 0001:000d5d20       ?_Lmost@?$_Tree@V?$_Tmap_traits@_KPAVIResource@@U?$less@_K@std@@V?$allocator@U?$pair@$$CB_KPAVIResource@@@std@@@3@$0A@@std@@@std@@IBEAAPAU?$_Tree_node@U?$pair@$$CB_KPAVIResource@@@std@@PAX@2@XZ 100d6d20 f i MyDynLib.obj
 0001:000d5d70       ?_Lock@?$basic_filebuf@DU?$char_traits@D@std@@@std@@UAEXXZ 100d6d70 f i MyDynLib.obj
 0001:000d5dd0       ?_Lrotate@?$_Tree@V?$_Tmap_traits@_KPAVIResource@@U?$less@_K@std@@V?$allocator@U?$pair@$$CB_KPAVIResource@@@std@@@3@$0A@@std@@@std@@IAEXPAU?$_Tree_node@U?$pair@$$CB_KPAVIResource@@@std@@PAX@2@@Z 100d6dd0 f i MyDynLib.obj
 0001:000d5ea0       ?_Max@?$_Tree_val@U?$_Tree_simple_types@U?$pair@$$CB_KPAVIResource@@@std@@@std@@@std@@SAPAU?$_Tree_node@U?$pair@$$CB_KPAVIResource@@@std@@PAX@2@PAU32@@Z 100d6ea0 f i MyDynLib.obj
 0001:000d5ef0       ?_Min@?$_Tree_val@U?$_Tree_simple_types@U?$pair@$$CB_KPAVIResource@@@std@@@std@@@std@@SAPAU?$_Tree_node@U?$pair@$$CB_KPAVIResource@@@std@@PAX@2@PAU32@@Z 100d6ef0 f i MyDynLib.obj
 0001:000d5f30       ?_Myend@?$_Vector_alloc@U?$_Vec_base_types@EV?$allocator@E@std@@@std@@@std@@QAEAAPAEXZ 100d6f30 f i MyDynLib.obj
 0001:000d5f80       ?_Myend@?$_Vector_alloc@U?$_Vec_base_types@EV?$allocator@E@std@@@std@@@std@@QBEABQAEXZ 100d6f80 f i MyDynLib.obj
 0001:000d5fd0       ?_Myend@?$_Vector_alloc@U?$_Vec_base_types@PAVIResource@@V?$allocator@PAVIResource@@@std@@@std@@@std@@QAEAAPAPAVIResource@@XZ 100d6fd0 f i MyDynLib.obj
 0001:000d6020       ?_Myend@?$_Vector_alloc@U?$_Vec_base_types@PAVIResource@@V?$allocator@PAVIResource@@@std@@@std@@@std@@QBEABQAPAVIResource@@XZ 100d7020 f i MyDynLib.obj
 0001:000d6070       ?_Myfirst@?$_Vector_alloc@U?$_Vec_base_types@EV?$allocator@E@std@@@std@@@std@@QAEAAPAEXZ 100d7070 f i MyDynLib.obj
 0001:000d60c0       ?_Myfirst@?$_Vector_alloc@U?$_Vec_base_types@EV?$allocator@E@std@@@std@@@std@@QBEABQAEXZ 100d70c0 f i MyDynLib.obj
 0001:000d6110       ?_Myfirst@?$_Vector_alloc@U?$_Vec_base_types@PAVIResource@@V?$allocator@PAVIResource@@@std@@@std@@@std@@QAEAAPAPAVIResource@@XZ 100d7110 f i MyDynLib.obj
 0001:000d6160       ?_Myfirst@?$_Vector_alloc@U?$_Vec_base_types@PAVIResource@@V?$allocator@PAVIResource@@@std@@@std@@@std@@QBEABQAPAVIResource@@XZ 100d7160 f i MyDynLib.obj
 0001:000d61b0       ?_Myhead@?$_Tree_comp_alloc@V?$_Tmap_traits@_KPAVIResource@@U?$less@_K@std@@V?$allocator@U?$pair@$$CB_KPAVIResource@@@std@@@3@$0A@@std@@@std@@QAEAAPAU?$_Tree_node@U?$pair@$$CB_KPAVIResource@@@std@@PAX@2@XZ 100d71b0 f i MyDynLib.obj
 0001:000d6200       ?_Myhead@?$_Tree_comp_alloc@V?$_Tmap_traits@_KPAVIResource@@U?$less@_K@std@@V?$allocator@U?$pair@$$CB_KPAVIResource@@@std@@@3@$0A@@std@@@std@@QBEABQAU?$_Tree_node@U?$pair@$$CB_KPAVIResource@@@std@@PAX@2@XZ 100d7200 f i MyDynLib.obj
 0001:000d6250       ?_Mylast@?$_Vector_alloc@U?$_Vec_base_types@EV?$allocator@E@std@@@std@@@std@@QAEAAPAEXZ 100d7250 f i MyDynLib.obj
 0001:000d62a0       ?_Mylast@?$_Vector_alloc@U?$_Vec_base_types@EV?$allocator@E@std@@@std@@@std@@QBEABQAEXZ 100d72a0 f i MyDynLib.obj
 0001:000d62f0       ?_Mylast@?$_Vector_alloc@U?$_Vec_base_types@PAVIResource@@V?$allocator@PAVIResource@@@std@@@std@@@std@@QAEAAPAPAVIResource@@XZ 100d72f0 f i MyDynLib.obj
 0001:000d6340       ?_Mylast@?$_Vector_alloc@U?$_Vec_base_types@PAVIResource@@V?$allocator@PAVIResource@@@std@@@std@@@std@@QBEABQAPAVIResource@@XZ 100d7340 f i MyDynLib.obj
 0001:000d6390       ?_Mynode@?$_Tree_unchecked_const_iterator@V?$_Tree_val@U?$_Tree_simple_types@U?$pair@$$CB_KPAVIResource@@@std@@@std@@@std@@U_Iterator_base12@2@@std@@QBEPAU?$_Tree_node@U?$pair@$$CB_KPAVIResource@@@std@@PAX@2@XZ 100d7390 f i MyDynLib.obj
 0001:000d63c0       ?_Myproxy@?$_String_alloc@U?$_String_base_types@DV?$allocator@D@std@@@std@@@std@@QAEAAPAU_Container_proxy@2@XZ 100d73c0 f i MyDynLib.obj
 0001:000d6400       ?_Myproxy@?$_Tree_comp_alloc@V?$_Tmap_traits@_KPAVIResource@@U?$less@_K@std@@V?$allocator@U?$pair@$$CB_KPAVIResource@@@std@@@3@$0A@@std@@@std@@QAEAAPAU_Container_proxy@2@XZ 100d7400 f i MyDynLib.obj
 0001:000d6440       ?_Myproxy@?$_Vector_alloc@U?$_Vec_base_types@EV?$allocator@E@std@@@std@@@std@@QAEAAPAU_Container_proxy@2@XZ 100d7440 f i MyDynLib.obj
 0001:000d6480       ?_Myptr@?$_String_val@U?$_Simple_types@D@std@@@std@@QAEPADXZ 100d7480 f i MyDynLib.obj
 0001:000d64f0       ?_Myptr@?$_String_val@U?$_Simple_types@D@std@@@std@@QBEPBDXZ 100d74f0 f i MyDynLib.obj
 0001:000d6560       ?_Mysize@?$_Tree_comp_alloc@V?$_Tmap_traits@_KPAVIResource@@U?$less@_K@std@@V?$allocator@U?$pair@$$CB_KPAVIResource@@@std@@@3@$0A@@std@@@std@@QAEAAIXZ 100d7560 f i MyDynLib.obj
 0001:000d65b0       ?_Orphan_all@?$_String_alloc@U?$_String_base_types@DV?$allocator@D@std@@@std@@@std@@QAEXXZ 100d75b0 f i MyDynLib.obj
 0001:000d6600       ?_Orphan_all@?$_Vector_alloc@U?$_Vec_base_types@EV?$allocator@E@std@@@std@@@std@@QAEXXZ 100d7600 f i MyDynLib.obj
 0001:000d6650       ?_Orphan_all@?$_Vector_alloc@U?$_Vec_base_types@PAVIResource@@V?$allocator@PAVIResource@@@std@@@std@@@std@@QAEXXZ 100d7650 f i MyDynLib.obj
 0001:000d66a0       ?_Orphan_all@_Container_base12@std@@QAEXXZ 100d76a0 f i MyDynLib.obj
 0001:000d67b0       ?_Orphan_me@_Iterator_base12@std@@QAEXXZ 100d77b0 f i MyDynLib.obj
 0001:000d68b0       ?_Orphan_range@?$vector@EV?$allocator@E@std@@@std@@ABEXPAE0@Z 100d78b0 f i MyDynLib.obj
 0001:000d69e0       ?_Orphan_range@?$vector@PAVIResource@@V?$allocator@PAVIResource@@@std@@@std@@ABEXPAPAVIResource@@0@Z 100d79e0 f i MyDynLib.obj
 0001:000d6b10       ?_Reset_back@?$basic_filebuf@DU?$char_traits@D@std@@@std@@AAEXXZ 100d7b10 f i MyDynLib.obj
 0001:000d6b90       ?_Rmost@?$_Tree@V?$_Tmap_traits@_KPAVIResource@@U?$less@_K@std@@V?$allocator@U?$pair@$$CB_KPAVIResource@@@std@@@3@$0A@@std@@@std@@IBEAAPAU?$_Tree_node@U?$pair@$$CB_KPAVIResource@@@std@@PAX@2@XZ 100d7b90 f i MyDynLib.obj
 0001:000d6be0       ?_Root@?$_Tree@V?$_Tmap_traits@_KPAVIResource@@U?$less@_K@std@@V?$allocator@U?$pair@$$CB_KPAVIResource@@@std@@@3@$0A@@std@@@std@@IBEAAPAU?$_Tree_node@U?$pair@$$CB_KPAVIResource@@@std@@PAX@2@XZ 100d7be0 f i MyDynLib.obj
 0001:000d6c30       ?_Rrotate@?$_Tree@V?$_Tmap_traits@_KPAVIResource@@U?$less@_K@std@@V?$allocator@U?$pair@$$CB_KPAVIResource@@@std@@@3@$0A@@std@@@std@@IAEXPAU?$_Tree_node@U?$pair@$$CB_KPAVIResource@@@std@@PAX@2@@Z 100d7c30 f i MyDynLib.obj
 0001:000d6d00       ?_Set_back@?$basic_filebuf@DU?$char_traits@D@std@@@std@@AAEXXZ 100d7d00 f i MyDynLib.obj
 0001:000d6db0       ?_Swap_all@?$_String_alloc@U?$_String_base_types@DV?$allocator@D@std@@@std@@@std@@QAEXAAV12@@Z 100d7db0 f i MyDynLib.obj
 0001:000d6e10       ?_Swap_all@_Container_base12@std@@QAEXAAU12@@Z 100d7e10 f i MyDynLib.obj
 0001:000d6f20       ?_Tidy@?$vector@EV?$allocator@E@std@@@std@@AAEXXZ 100d7f20 f i MyDynLib.obj
 0001:000d6fe0       ?_Tidy_deallocate@?$basic_string@DU?$char_traits@D@std@@V?$allocator@D@2@@std@@QAEXXZ 100d7fe0 f i MyDynLib.obj
 0001:000d70c0       ?_Tidy_init@?$basic_string@DU?$char_traits@D@std@@V?$allocator@D@2@@std@@QAEXXZ 100d80c0 f i MyDynLib.obj
 0001:000d7140       ?_Umove_if_noexcept1@?$vector@EV?$allocator@E@std@@@std@@AAEXPAE00U?$integral_constant@_N$00@2@@Z 100d8140 f i MyDynLib.obj
 0001:000d71a0       ?_Umove_if_noexcept1@?$vector@PAVIResource@@V?$allocator@PAVIResource@@@std@@@std@@AAEXPAPAVIResource@@00U?$integral_constant@_N$00@2@@Z 100d81a0 f i MyDynLib.obj
 0001:000d7200       ?_Umove_if_noexcept@?$vector@EV?$allocator@E@std@@@std@@AAEXPAE00@Z 100d8200 f i MyDynLib.obj
 0001:000d7260       ?_Umove_if_noexcept@?$vector@PAVIResource@@V?$allocator@PAVIResource@@@std@@@std@@AAEXPAPAVIResource@@00@Z 100d8260 f i MyDynLib.obj
 0001:000d72c0       ?_Unlock@?$basic_filebuf@DU?$char_traits@D@std@@@std@@UAEXXZ 100d82c0 f i MyDynLib.obj
 0001:000d7320       ?_Xlen@?$basic_string@DU?$char_traits@D@std@@V?$allocator@D@2@@std@@SAXXZ 100d8320 f i MyDynLib.obj
 0001:000d7360       ?_Xlength@?$vector@EV?$allocator@E@std@@@std@@CAXXZ 100d8360 f i MyDynLib.obj
 0001:000d73a0       ?_Xlength@?$vector@PAVIResource@@V?$allocator@PAVIResource@@@std@@@std@@CAXXZ 100d83a0 f i MyDynLib.obj
 0001:000d73e0       ?_Xran@?$_String_val@U?$_Simple_types@D@std@@@std@@SAXXZ 100d83e0 f i MyDynLib.obj
 0001:000d7420       ?__autoclassinit2@?$_Tree_const_iterator@V?$_Tree_val@U?$_Tree_simple_types@U?$pair@$$CB_KPAVIResource@@@std@@@std@@@std@@@std@@QAEXI@Z 100d8420 f i MyDynLib.obj
 0001:000d7470       ?__autoclassinit2@?$_Tree_iterator@V?$_Tree_val@U?$_Tree_simple_types@U?$pair@$$CB_KPAVIResource@@@std@@@std@@@std@@@std@@QAEXI@Z 100d8470 f i MyDynLib.obj
 0001:000d74c0       ?__autoclassinit2@?$_Vector_iterator@V?$_Vector_val@U?$_Simple_types@E@std@@@std@@@std@@QAEXI@Z 100d84c0 f i MyDynLib.obj
 0001:000d7510       ?__autoclassinit2@?$basic_ifstream@DU?$char_traits@D@std@@@std@@QAEXI@Z 100d8510 f i MyDynLib.obj
 0001:000d7560       ?__autoclassinit2@?$map@_KPAVIResource@@U?$less@_K@std@@V?$allocator@U?$pair@$$CB_KPAVIResource@@@std@@@3@@std@@QAEXI@Z 100d8560 f i MyDynLib.obj
 0001:000d75b0       ?__autoclassinit2@?$vector@EV?$allocator@E@std@@@std@@QAEXI@Z 100d85b0 f i MyDynLib.obj
 0001:000d7600       ?__autoclassinit2@CImageResource@@QAEXI@Z 100d8600 f i MyDynLib.obj
 0001:000d7650       ?__autoclassinit2@CResource@@QAEXI@Z 100d8650 f i MyDynLib.obj
 0001:000d76a0       ?__autoclassinit2@CResourceCollection@@QAEXI@Z 100d86a0 f i MyDynLib.obj
 0001:000d76f0       ?__empty_global_delete@@YAXPAX@Z 100d86f0 f i MyDynLib.obj
 0001:000d7720       ?__global_delete@@YAXPAXI@Z 100d8720 f i MyDynLib.obj
 0001:000d7720       ?__empty_global_delete@@YAXPAXI@Z 100d8720 f i MyDynLib.obj
 0001:000d7750       ?allocate@?$allocator@D@std@@QAEPADI@Z 100d8750 f i MyDynLib.obj
 0001:000d77a0       ?allocate@?$allocator@E@std@@QAEPAEI@Z 100d87a0 f i MyDynLib.obj
 0001:000d77f0       ?allocate@?$allocator@PAVIResource@@@std@@QAEPAPAVIResource@@I@Z 100d87f0 f i MyDynLib.obj
 0001:000d7840       ?allocate@?$allocator@U?$_Tree_node@U?$pair@$$CB_KPAVIResource@@@std@@PAX@std@@@std@@QAEPAU?$_Tree_node@U?$pair@$$CB_KPAVIResource@@@std@@PAX@2@I@Z 100d8840 f i MyDynLib.obj
 0001:000d7890       ?allocate@?$allocator@U_Container_proxy@std@@@std@@QAEPAU_Container_proxy@2@I@Z 100d8890 f i MyDynLib.obj
 0001:000d78e0       ?append@?$basic_string@DU?$char_traits@D@std@@V?$allocator@D@2@@std@@QAEAAV12@ABV12@@Z 100d88e0 f i MyDynLib.obj
 0001:000d7940       ?append@?$basic_string@DU?$char_traits@D@std@@V?$allocator@D@2@@std@@QAEAAV12@ID@Z 100d8940 f i MyDynLib.obj
 0001:000d7a20       ?append@?$basic_string@DU?$char_traits@D@std@@V?$allocator@D@2@@std@@QAEAAV12@QBD@Z 100d8a20 f i MyDynLib.obj
 0001:000d7a80       ?append@?$basic_string@DU?$char_traits@D@std@@V?$allocator@D@2@@std@@QAEAAV12@QBDI@Z 100d8a80 f i MyDynLib.obj
 0001:000d7b60       ?assign@?$basic_string@DU?$char_traits@D@std@@V?$allocator@D@2@@std@@QAEAAV12@ABV12@II@Z 100d8b60 f i MyDynLib.obj
 0001:000d7be0       ?assign@?$basic_string@DU?$char_traits@D@std@@V?$allocator@D@2@@std@@QAEAAV12@ID@Z 100d8be0 f i MyDynLib.obj
 0001:000d7ca0       ?assign@?$basic_string@DU?$char_traits@D@std@@V?$allocator@D@2@@std@@QAEAAV12@QBD@Z 100d8ca0 f i MyDynLib.obj
 0001:000d7d00       ?assign@?$basic_string@DU?$char_traits@D@std@@V?$allocator@D@2@@std@@QAEAAV12@QBDI@Z 100d8d00 f i MyDynLib.obj
 0001:000d7dc0       ?assign@?$char_traits@D@std@@SAPADQADID@Z 100d8dc0 f i MyDynLib.obj
 0001:000d7e10       ?assign@?$char_traits@D@std@@SAXAADABD@Z 100d8e10 f i MyDynLib.obj
 0001:000d7e40       ?begin@?$_Tree@V?$_Tmap_traits@_KPAVIResource@@U?$less@_K@std@@V?$allocator@U?$pair@$$CB_KPAVIResource@@@std@@@3@$0A@@std@@@std@@QAE?AV?$_Tree_iterator@V?$_Tree_val@U?$_Tree_simple_types@U?$pair@$$CB_KPAVIResource@@@std@@@std@@@std@@@2@XZ 100d8e40 f i MyDynLib.obj
 0001:000d7ed0       ?begin@?$basic_string@DU?$char_traits@D@std@@V?$allocator@D@2@@std@@QAE?AV?$_String_iterator@V?$_String_val@U?$_Simple_types@D@std@@@std@@@2@XZ 100d8ed0 f i MyDynLib.obj
 0001:000d7f70       ?begin@?$vector@EV?$allocator@E@std@@@std@@QAE?AV?$_Vector_iterator@V?$_Vector_val@U?$_Simple_types@E@std@@@std@@@2@XZ 100d8f70 f i MyDynLib.obj
 0001:000d8000       ?c_str@?$basic_string@DU?$char_traits@D@std@@V?$allocator@D@2@@std@@QBEPBDXZ 100d9000 f i MyDynLib.obj
 0001:000d8120       ?capacity@?$basic_string@DU?$char_traits@D@std@@V?$allocator@D@2@@std@@QBEIXZ 100d9120 f i MyDynLib.obj
 0001:000d8170       ?capacity@?$vector@EV?$allocator@E@std@@@std@@QBEIXZ 100d9170 f i MyDynLib.obj
 0001:000d81c0       ?capacity@?$vector@PAVIResource@@V?$allocator@PAVIResource@@@std@@@std@@QBEIXZ 100d91c0 f i MyDynLib.obj
 0001:000d8220       ?close@?$basic_filebuf@DU?$char_traits@D@std@@@std@@QAEPAV12@XZ 100d9220 f i MyDynLib.obj
 0001:000d82c0       ?closeDB@@YAXPAUsqlite3@@@Z 100d92c0 f   MyDynLib.obj
 0001:000d8300       ?compare@?$char_traits@D@std@@SAHQBD0I@Z 100d9300 f i MyDynLib.obj
 0001:000d8350       ?copy@?$char_traits@D@std@@SAPADQADQBDI@Z 100d9350 f i MyDynLib.obj
 0001:000d83a0       ?count@?$_Tree@V?$_Tmap_traits@_KPAVIResource@@U?$less@_K@std@@V?$allocator@U?$pair@$$CB_KPAVIResource@@@std@@@3@$0A@@std@@@std@@QBEIAB_K@Z 100d93a0 f i MyDynLib.obj
 0001:000d84b0       ?create@@YAXPADPAUsqlite3@@@Z 100d94b0 f   MyDynLib.obj
 0001:000d85b0       ?data@?$basic_string@DU?$char_traits@D@std@@V?$allocator@D@2@@std@@QBEPBDXZ 100d95b0 f i MyDynLib.obj
 0001:000d8620       ?deallocate@?$_Default_allocator_traits@V?$allocator@U_Container_proxy@std@@@std@@@std@@SAXAAV?$allocator@U_Container_proxy@std@@@2@QAU_Container_proxy@2@I@Z 100d9620 f i MyDynLib.obj
 0001:000d8670       ?deallocate@?$allocator@D@std@@QAEXQADI@Z 100d9670 f i MyDynLib.obj
 0001:000d86c0       ?deallocate@?$allocator@E@std@@QAEXQAEI@Z 100d96c0 f i MyDynLib.obj
 0001:000d8710       ?deallocate@?$allocator@PAVIResource@@@std@@QAEXQAPAVIResource@@I@Z 100d9710 f i MyDynLib.obj
 0001:000d8760       ?deallocate@?$allocator@U?$_Tree_node@U?$pair@$$CB_KPAVIResource@@@std@@PAX@std@@@std@@QAEXQAU?$_Tree_node@U?$pair@$$CB_KPAVIResource@@@std@@PAX@2@I@Z 100d9760 f i MyDynLib.obj
 0001:000d87b0       ?end@?$_Tree@V?$_Tmap_traits@_KPAVIResource@@U?$less@_K@std@@V?$allocator@U?$pair@$$CB_KPAVIResource@@@std@@@3@$0A@@std@@@std@@QAE?AV?$_Tree_iterator@V?$_Tree_val@U?$_Tree_simple_types@U?$pair@$$CB_KPAVIResource@@@std@@@std@@@std@@@2@XZ 100d97b0 f i MyDynLib.obj
 0001:000d8840       ?end@?$vector@EV?$allocator@E@std@@@std@@QAE?AV?$_Vector_iterator@V?$_Vector_val@U?$_Simple_types@E@std@@@std@@@2@XZ 100d9840 f i MyDynLib.obj
 0001:000d88d0       ?eof@?$char_traits@D@std@@SAHXZ 100d98d0 f i MyDynLib.obj
 0001:000d8900       ?eq_int_type@?$char_traits@D@std@@SA_NABH0@Z 100d9900 f i MyDynLib.obj
 0001:000d8950       ?equal_range@?$_Tree@V?$_Tmap_traits@_KPAVIResource@@U?$less@_K@std@@V?$allocator@U?$pair@$$CB_KPAVIResource@@@std@@@3@$0A@@std@@@std@@QBE?AU?$pair@V?$_Tree_const_iterator@V?$_Tree_val@U?$_Tree_simple_types@U?$pair@$$CB_KPAVIResource@@@std@@@std@@@std@@@std@@V12@@2@AB_K@Z 100d9950 f i MyDynLib.obj
 0001:000d89c0       ?erase@?$basic_string@DU?$char_traits@D@std@@V?$allocator@D@2@@std@@QAEAAV12@II@Z 100d99c0 f i MyDynLib.obj
 0001:000d8a80       ?find@?$_Tree@V?$_Tmap_traits@_KPAVIResource@@U?$less@_K@std@@V?$allocator@U?$pair@$$CB_KPAVIResource@@@std@@@3@$0A@@std@@@std@@QAE?AV?$_Tree_iterator@V?$_Tree_val@U?$_Tree_simple_types@U?$pair@$$CB_KPAVIResource@@@std@@@std@@@std@@@2@AB_K@Z 100d9a80 f i MyDynLib.obj
 0001:000d8cd0       ?find@?$basic_string@DU?$char_traits@D@std@@V?$allocator@D@2@@std@@QBEIQBDI@Z 100d9cd0 f i MyDynLib.obj
 0001:000d8d70       ?find@?$char_traits@D@std@@SAPBDQBDIABD@Z 100d9d70 f i MyDynLib.obj
 0001:000d8dc0       ?find_last_of@?$basic_string@DU?$char_traits@D@std@@V?$allocator@D@2@@std@@QBEIQBDI@Z 100d9dc0 f i MyDynLib.obj
 0001:000d8e60       ?get_allocator@?$basic_string@DU?$char_traits@D@std@@V?$allocator@D@2@@std@@QBE?AV?$allocator@D@2@XZ 100d9e60 f i MyDynLib.obj
 0001:000d8eb0       ?imbue@?$basic_filebuf@DU?$char_traits@D@std@@@std@@MAEXABVlocale@2@@Z 100d9eb0 f i MyDynLib.obj
 0001:000d8f00       ?insert@?$basic_string@DU?$char_traits@D@std@@V?$allocator@D@2@@std@@QAEAAV12@IABV12@@Z 100d9f00 f i MyDynLib.obj
 0001:000d8f60       ?insert@?$basic_string@DU?$char_traits@D@std@@V?$allocator@D@2@@std@@QAEAAV12@IQBD@Z 100d9f60 f i MyDynLib.obj
 0001:000d8fc0       ?insert@?$basic_string@DU?$char_traits@D@std@@V?$allocator@D@2@@std@@QAEAAV12@IQBDI@Z 100d9fc0 f i MyDynLib.obj
 0001:000d9110       ?insert@@YAXPADPAUsqlite3@@@Z 100da110 f   MyDynLib.obj
 0001:000d9210       ?length@?$char_traits@D@std@@SAIQBD@Z 100da210 f i MyDynLib.obj
 0001:000d9250       ?lower_bound@?$_Tree@V?$_Tmap_traits@_KPAVIResource@@U?$less@_K@std@@V?$allocator@U?$pair@$$CB_KPAVIResource@@@std@@@3@$0A@@std@@@std@@QAE?AV?$_Tree_iterator@V?$_Tree_val@U?$_Tree_simple_types@U?$pair@$$CB_KPAVIResource@@@std@@@std@@@std@@@2@AB_K@Z 100da250 f i MyDynLib.obj
 0001:000d92d0       ?max@?$numeric_limits@H@std@@SAHXZ 100da2d0 f i MyDynLib.obj
 0001:000d9300       ?max_size@?$_Default_allocator_traits@V?$allocator@D@std@@@std@@SAIABV?$allocator@D@2@@Z 100da300 f i MyDynLib.obj
 0001:000d9330       ?max_size@?$_Default_allocator_traits@V?$allocator@E@std@@@std@@SAIABV?$allocator@E@2@@Z 100da330 f i MyDynLib.obj
 0001:000d9360       ?max_size@?$_Default_allocator_traits@V?$allocator@PAVIResource@@@std@@@std@@SAIABV?$allocator@PAVIResource@@@2@@Z 100da360 f i MyDynLib.obj
 0001:000d9390       ?max_size@?$_Default_allocator_traits@V?$allocator@U?$_Tree_node@U?$pair@$$CB_KPAVIResource@@@std@@PAX@std@@@std@@@std@@SAIABV?$allocator@U?$_Tree_node@U?$pair@$$CB_KPAVIResource@@@std@@PAX@std@@@2@@Z 100da390 f i MyDynLib.obj
 0001:000d93c0       ?max_size@?$_Tree@V?$_Tmap_traits@_KPAVIResource@@U?$less@_K@std@@V?$allocator@U?$pair@$$CB_KPAVIResource@@@std@@@3@$0A@@std@@@std@@QBEIXZ 100da3c0 f i MyDynLib.obj
 0001:000d9410       ?max_size@?$basic_string@DU?$char_traits@D@std@@V?$allocator@D@2@@std@@QBEIXZ 100da410 f i MyDynLib.obj
 0001:000d9500       ?max_size@?$vector@EV?$allocator@E@std@@@std@@QBEIXZ 100da500 f i MyDynLib.obj
 0001:000d9580       ?max_size@?$vector@PAVIResource@@V?$allocator@PAVIResource@@@std@@@std@@QBEIXZ 100da580 f i MyDynLib.obj
 0001:000d9600       ?move@?$char_traits@D@std@@SAPADQADQBDI@Z 100da600 f i MyDynLib.obj
 0001:000d9650       ?not_eof@?$char_traits@D@std@@SAHABH@Z 100da650 f i MyDynLib.obj
 0001:000d96d0       ?open@?$basic_filebuf@DU?$char_traits@D@std@@@std@@QAEPAV12@PBDHH@Z 100da6d0 f i MyDynLib.obj
 0001:000d97d0       ?openDB@@YAPAUsqlite3@@PAD@Z 100da7d0 f   MyDynLib.obj
 0001:000d98c0       ?overflow@?$basic_filebuf@DU?$char_traits@D@std@@@std@@MAEHH@Z 100da8c0 f i MyDynLib.obj
 0001:000d9e00       ?pbackfail@?$basic_filebuf@DU?$char_traits@D@std@@@std@@MAEHH@Z 100dae00 f i MyDynLib.obj
 0001:000d9fe0       ?pointer_to@?$pointer_traits@PAU?$pair@$$CB_KPAVIResource@@@std@@@std@@SAPAU?$pair@$$CB_KPAVIResource@@@2@AAU32@@Z 100dafe0 f i MyDynLib.obj
 0001:000da020       ?push_back@?$vector@EV?$allocator@E@std@@@std@@QAEXABE@Z 100db020 f i MyDynLib.obj
 0001:000da070       ?push_back@?$vector@PAVIResource@@V?$allocator@PAVIResource@@@std@@@std@@QAEXABQAVIResource@@@Z 100db070 f i MyDynLib.obj
 0001:000da0c0       ?seekoff@?$basic_filebuf@DU?$char_traits@D@std@@@std@@MAE?AV?$fpos@U_Mbstatet@@@2@_JHH@Z 100db0c0 f i MyDynLib.obj
 0001:000da230       ?seekpos@?$basic_filebuf@DU?$char_traits@D@std@@@std@@MAE?AV?$fpos@U_Mbstatet@@@2@V32@H@Z 100db230 f i MyDynLib.obj
 0001:000da3c0       ?seekpos@?$fpos@U_Mbstatet@@@std@@QBE_JXZ 100db3c0 f i MyDynLib.obj
 0001:000da400       ?select@@YAXPADPAUsqlite3@@@Z 100db400 f   MyDynLib.obj
 0001:000da500       ?setbuf@?$basic_filebuf@DU?$char_traits@D@std@@@std@@MAEPAV?$basic_streambuf@DU?$char_traits@D@std@@@2@PAD_J@Z 100db500 f i MyDynLib.obj
 0001:000da5b0       ?size@?$basic_string@DU?$char_traits@D@std@@V?$allocator@D@2@@std@@QBEIXZ 100db5b0 f i MyDynLib.obj
 0001:000da600       ?size@?$vector@EV?$allocator@E@std@@@std@@QBEIXZ 100db600 f i MyDynLib.obj
 0001:000da650       ?size@?$vector@PAVIResource@@V?$allocator@PAVIResource@@@std@@@std@@QBEIXZ 100db650 f i MyDynLib.obj
 0001:000da6b0       ?state@?$fpos@U_Mbstatet@@@std@@QBE?AU_Mbstatet@@XZ 100db6b0 f i MyDynLib.obj
 0001:000da6f0       ?substr@?$basic_string@DU?$char_traits@D@std@@V?$allocator@D@2@@std@@QBE?AV12@II@Z 100db6f0 f i MyDynLib.obj
 0001:000da770       ?sync@?$basic_filebuf@DU?$char_traits@D@std@@@std@@MAEHXZ 100db770 f i MyDynLib.obj
 0001:000da840       ?to_char_type@?$char_traits@D@std@@SADABH@Z 100db840 f i MyDynLib.obj
 0001:000da870       ?to_int_type@?$char_traits@D@std@@SAHABD@Z 100db870 f i MyDynLib.obj
 0001:000da8a0       ?to_string@std@@YA?AV?$basic_string@DU?$char_traits@D@std@@V?$allocator@D@2@@1@H@Z 100db8a0 f i MyDynLib.obj
 0001:000da900       ?to_string@std@@YA?AV?$basic_string@DU?$char_traits@D@std@@V?$allocator@D@2@@1@_K@Z 100db900 f i MyDynLib.obj
 0001:000da970       ?uflow@?$basic_filebuf@DU?$char_traits@D@std@@@std@@MAEHXZ 100db970 f i MyDynLib.obj
 0001:000dae60       ?underflow@?$basic_filebuf@DU?$char_traits@D@std@@@std@@MAEHXZ 100dbe60 f i MyDynLib.obj
 0001:000dafa0       ?what@exception@std@@UBEPBDXZ 100dbfa0 f i MyDynLib.obj
 0001:000db190       _printf                    100dc190 f i MyDynLib.obj
 0001:000db201       _CreateFileA@28            100dc201 f   kernel32:KERNEL32.dll
 0001:000db207       _FlushViewOfFile@8         100dc207 f   kernel32:KERNEL32.dll
 0001:000db20d       _OutputDebugStringW@4      100dc20d f   kernel32:KERNEL32.dll
 0001:000db213       _GetFileAttributesExW@12   100dc213 f   kernel32:KERNEL32.dll
 0001:000db219       _GetFileAttributesA@4      100dc219 f   kernel32:KERNEL32.dll
 0001:000db21f       _GetLastError@0            100dc21f f   kernel32:KERNEL32.dll
 0001:000db225       _GetDiskFreeSpaceA@20      100dc225 f   kernel32:KERNEL32.dll
 0001:000db22b       _FormatMessageW@28         100dc22b f   kernel32:KERNEL32.dll
 0001:000db231       _GetTempPathA@8            100dc231 f   kernel32:KERNEL32.dll
 0001:000db237       _Sleep@4                   100dc237 f   kernel32:KERNEL32.dll
 0001:000db23d       _MultiByteToWideChar@24    100dc23d f   kernel32:KERNEL32.dll
 0001:000db243       _HeapSize@12               100dc243 f   kernel32:KERNEL32.dll
 0001:000db249       _HeapValidate@12           100dc249 f   kernel32:KERNEL32.dll
 0001:000db24f       _UnmapViewOfFile@4         100dc24f f   kernel32:KERNEL32.dll
 0001:000db255       _GetFileAttributesW@4      100dc255 f   kernel32:KERNEL32.dll
 0001:000db25b       _CreateFileW@28            100dc25b f   kernel32:KERNEL32.dll
 0001:000db261       _WaitForSingleObject@8     100dc261 f   kernel32:KERNEL32.dll
 0001:000db267       _CreateMutexW@12           100dc267 f   kernel32:KERNEL32.dll
 0001:000db26d       _GetTempPathW@8            100dc26d f   kernel32:KERNEL32.dll
 0001:000db273       _UnlockFileEx@20           100dc273 f   kernel32:KERNEL32.dll
 0001:000db279       _SetEndOfFile@4            100dc279 f   kernel32:KERNEL32.dll
 0001:000db27f       _GetFullPathNameA@16       100dc27f f   kernel32:KERNEL32.dll
 0001:000db285       _SetFilePointer@16         100dc285 f   kernel32:KERNEL32.dll
 0001:000db28b       _LockFile@20               100dc28b f   kernel32:KERNEL32.dll
 0001:000db291       _OutputDebugStringA@4      100dc291 f   kernel32:KERNEL32.dll
 0001:000db297       _GetDiskFreeSpaceW@20      100dc297 f   kernel32:KERNEL32.dll
 0001:000db29d       _WriteFile@20              100dc29d f   kernel32:KERNEL32.dll
 0001:000db2a3       _FlushFileBuffers@4        100dc2a3 f   kernel32:KERNEL32.dll
 0001:000db2a9       _GetFullPathNameW@16       100dc2a9 f   kernel32:KERNEL32.dll
 0001:000db2af       _HeapFree@12               100dc2af f   kernel32:KERNEL32.dll
 0001:000db2b5       _GetTickCount@0            100dc2b5 f   kernel32:KERNEL32.dll
 0001:000db2bb       _HeapCreate@12             100dc2bb f   kernel32:KERNEL32.dll
 0001:000db2c1       _QueryPerformanceCounter@4 100dc2c1 f   kernel32:KERNEL32.dll
 0001:000db2c7       _MapViewOfFile@20          100dc2c7 f   kernel32:KERNEL32.dll
 0001:000db2cd       _CreateFileMappingW@24     100dc2cd f   kernel32:KERNEL32.dll
 0001:000db2d3       _FormatMessageA@28         100dc2d3 f   kernel32:KERNEL32.dll
 0001:000db2d9       _GetSystemTime@4           100dc2d9 f   kernel32:KERNEL32.dll
 0001:000db2df       _GetSystemTimeAsFileTime@4 100dc2df f   kernel32:KERNEL32.dll
 0001:000db2e5       _ReadFile@20               100dc2e5 f   kernel32:KERNEL32.dll
 0001:000db2eb       _AreFileApisANSI@0         100dc2eb f   kernel32:KERNEL32.dll
 0001:000db2f1       _WideCharToMultiByte@32    100dc2f1 f   kernel32:KERNEL32.dll
 0001:000db2f7       _FreeLibrary@4             100dc2f7 f   kernel32:KERNEL32.dll
 0001:000db2fd       _SystemTimeToFileTime@8    100dc2fd f   kernel32:KERNEL32.dll
 0001:000db303       _GetProcessHeap@0          100dc303 f   kernel32:KERNEL32.dll
 0001:000db309       _GetCurrentProcessId@0     100dc309 f   kernel32:KERNEL32.dll
 0001:000db30f       _GetFileSize@8             100dc30f f   kernel32:KERNEL32.dll
 0001:000db315       _LockFileEx@24             100dc315 f   kernel32:KERNEL32.dll
 0001:000db31b       _LocalFree@4               100dc31b f   kernel32:KERNEL32.dll
 0001:000db321       _GetProcAddress@8          100dc321 f   kernel32:KERNEL32.dll
 0001:000db327       _UnlockFile@20             100dc327 f   kernel32:KERNEL32.dll
 0001:000db32d       _HeapDestroy@4             100dc32d f   kernel32:KERNEL32.dll
 0001:000db333       _HeapCompact@8             100dc333 f   kernel32:KERNEL32.dll
 0001:000db339       _HeapAlloc@12              100dc339 f   kernel32:KERNEL32.dll
 0001:000db33f       _LoadLibraryW@4            100dc33f f   kernel32:KERNEL32.dll
 0001:000db345       _GetSystemInfo@4           100dc345 f   kernel32:KERNEL32.dll
 0001:000db34b       _CloseHandle@4             100dc34b f   kernel32:KERNEL32.dll
 0001:000db351       _HeapReAlloc@16            100dc351 f   kernel32:KERNEL32.dll
 0001:000db357       _DeleteFileW@4             100dc357 f   kernel32:KERNEL32.dll
 0001:000db35d       _DeleteFileA@4             100dc35d f   kernel32:KERNEL32.dll
 0001:000db363       _WaitForSingleObjectEx@12  100dc363 f   kernel32:KERNEL32.dll
 0001:000db369       _LoadLibraryA@4            100dc369 f   kernel32:KERNEL32.dll
 0001:000db36f       _InitializeCriticalSection@4 100dc36f f   kernel32:KERNEL32.dll
 0001:000db375       _EnterCriticalSection@4    100dc375 f   kernel32:KERNEL32.dll
 0001:000db37b       _LeaveCriticalSection@4    100dc37b f   kernel32:KERNEL32.dll
 0001:000db381       _TryEnterCriticalSection@4 100dc381 f   kernel32:KERNEL32.dll
 0001:000db387       _DeleteCriticalSection@4   100dc387 f   kernel32:KERNEL32.dll
 0001:000db38d       _GetCurrentThreadId@0      100dc38d f   kernel32:KERNEL32.dll
 0001:000db3a0       ___raise_securityfailure   100dc3a0 f   MSVCRTD:gs_report.obj
 0001:000db3d0       ___report_gsfailure        100dc3d0 f   MSVCRTD:gs_report.obj
 0001:000db4e0       ___report_rangecheckfailure 100dc4e0 f   MSVCRTD:gs_report.obj
 0001:000db4f0       ___report_securityfailure  100dc4f0 f   MSVCRTD:gs_report.obj
 0001:000db5d0       ___report_securityfailureEx 100dc5d0 f   MSVCRTD:gs_report.obj
 0001:000db700       @_RTC_AllocaHelper@12      100dc700 f   MSVCRTD:_stack_.obj
 0001:000db740       @_RTC_CheckStackVars2@12   100dc740 f   MSVCRTD:_stack_.obj
 0001:000db820       @_RTC_CheckStackVars@8     100dc820 f   MSVCRTD:_stack_.obj
 0001:000db880       __RTC_CheckEsp             100dc880 f   MSVCRTD:_stack_.obj
 0001:000db8c0       @__security_check_cookie@4 100dc8c0 f   MSVCRTD:_secchk_.obj
 0001:000db8e0       __CRT_RTC_INIT             100dc8e0 f   MSVCRTD:_init_.obj
 0001:000db8f0       __CRT_RTC_INITW            100dc8f0 f   MSVCRTD:_init_.obj
 0001:000db900       __RTC_InitBase             100dc900 f   MSVCRTD:_init_.obj
 0001:000db930       __RTC_Shutdown             100dc930 f   MSVCRTD:_init_.obj
 0001:000db950       __alldiv                   100dc950 f   MSVCRTD:lldiv.obj
 0001:000dba00       __allmul                   100dca00 f   MSVCRTD:llmul.obj
 0001:000dba40       __allrem                   100dca40 f   MSVCRTD:llrem.obj
 0001:000dbb00       __allshl                   100dcb00 f   MSVCRTD:llshl.obj
 0001:000dbb20       __allshr                   100dcb20 f   MSVCRTD:llshr.obj
 0001:000dbb50       __aulldiv                  100dcb50 f   MSVCRTD:ulldiv.obj
 0001:000dbbc0       __aullrem                  100dcbc0 f   MSVCRTD:ullrem.obj
 0001:000dbc40       __aullshr                  100dcc40 f   MSVCRTD:ullshr.obj
 0001:000dbc60       __alloca_probe             100dcc60 f   MSVCRTD:chkstk.obj
 0001:000dbc60       __chkstk                   100dcc60 f   MSVCRTD:chkstk.obj
 0001:000dbca0       __ftoui3                   100dcca0 f   MSVCRTD:_ftol3_.obj
 0001:000dbcaf       __ftoul3                   100dccaf f   MSVCRTD:_ftol3_.obj
 0001:000dbcbe       __ftol3                    100dccbe f   MSVCRTD:_ftol3_.obj
 0001:000dbccb       __ftol3_NaN                100dcccb f   MSVCRTD:_ftol3_.obj
 0001:000dbce3       __ftol3_work               100dcce3 f   MSVCRTD:_ftol3_.obj
 0001:000dbd69       __ftol3_common             100dcd69 f   MSVCRTD:_ftol3_.obj
 0001:000dbe2b       __ftol3_arg_error          100dce2b f   MSVCRTD:_ftol3_.obj
 0001:000dbe3d       __ftol3_except             100dce3d f   MSVCRTD:_ftol3_.obj
 0001:000dbe81       __dtoui3                   100dce81 f   MSVCRTD:_ftol3_.obj
 0001:000dbe90       __dtoul3                   100dce90 f   MSVCRTD:_ftol3_.obj
 0001:000dbe9f       __dtol3                    100dce9f f   MSVCRTD:_ftol3_.obj
 0001:000dbeac       __dtol3_NaN                100dceac f   MSVCRTD:_ftol3_.obj
 0001:000dbec9       __dtol3_work               100dcec9 f   MSVCRTD:_ftol3_.obj
 0001:000dbfb0       __ultod3                   100dcfb0 f   MSVCRTD:_ftol3_.obj
 0001:000dbff0       __ltod3                    100dcff0 f   MSVCRTD:_ftol3_.obj
 0001:000dc020       ??2@YAPAXI@Z               100dd020 f   MSVCRTD:new_scalar.obj
 0001:000dc070       ??3@YAXPAX@Z               100dd070 f   MSVCRTD:delete_scalar.obj
 0001:000dc090       ??3@YAXPAXI@Z              100dd090 f   MSVCRTD:delete_scalar_size.obj
 0001:000dc200       ?_RTC_AllocaFailure@@YAXPAXPAU_RTC_ALLOCA_NODE@@H@Z 100dd200 f   MSVCRTD:_error_.obj
 0001:000dc2f0       ?_RTC_Failure@@YAXPAXH@Z   100dd2f0 f   MSVCRTD:_error_.obj
 0001:000dc340       ?_RTC_StackFailure@@YAXPAXPBD@Z 100dd340 f   MSVCRTD:_error_.obj
 0001:000dc690       __RTC_UninitUse            100dd690 f   MSVCRTD:_error_.obj
 0001:000dc740       __vsprintf_s_l             100dd740 f i MSVCRTD:_error_.obj
 0001:000dc770       _sprintf_s                 100dd770 f i MSVCRTD:_error_.obj
 0001:000dc7a0       ??1type_info@@UAE@XZ       100dd7a0 f   MSVCRTD:std_type_info_static.obj
 0001:000dc7c0       ??_Gtype_info@@UAEPAXI@Z   100dd7c0 f i MSVCRTD:std_type_info_static.obj
 0001:000dc7c0       ??_Etype_info@@UAEPAXI@Z   100dd7c0 f i MSVCRTD:std_type_info_static.obj
 0001:000dcc90       __CRT_INIT@12              100ddc90 f   MSVCRTD:dll_dllmain.obj
 0001:000dccb0       __DllMainCRTStartup@12     100ddcb0 f   MSVCRTD:dll_dllmain.obj
 0001:000dcce0       ?_RTC_GetErrorFunc@@YAP6AHHPBDH00ZZPBX@Z 100ddce0 f   MSVCRTD:_userapi_.obj
 0001:000dccf0       ?_RTC_GetErrorFuncW@@YAP6AHHPB_WH00ZZPBX@Z 100ddcf0 f   MSVCRTD:_userapi_.obj
 0001:000dcd00       __RTC_GetErrDesc           100ddd00 f   MSVCRTD:_userapi_.obj
 0001:000dcd20       __RTC_NumErrors            100ddd20 f   MSVCRTD:_userapi_.obj
 0001:000dcd30       __RTC_SetErrorFunc         100ddd30 f   MSVCRTD:_userapi_.obj
 0001:000dcd50       __RTC_SetErrorFuncW        100ddd50 f   MSVCRTD:_userapi_.obj
 0001:000dcd70       __RTC_SetErrorType         100ddd70 f   MSVCRTD:_userapi_.obj
 0001:000dcda0       ??0bad_alloc@std@@AAE@QBD@Z 100ddda0 f i MSVCRTD:throw_bad_alloc.obj
 0001:000dcdd0       ??0bad_alloc@std@@QAE@ABV01@@Z 100dddd0 f i MSVCRTD:throw_bad_alloc.obj
 0001:000dce00       ??0bad_alloc@std@@QAE@XZ   100dde00 f i MSVCRTD:throw_bad_alloc.obj
 0001:000dce30       ??0bad_array_new_length@std@@QAE@ABV01@@Z 100dde30 f i MSVCRTD:throw_bad_alloc.obj
 0001:000dce60       ??0bad_array_new_length@std@@QAE@XZ 100dde60 f i MSVCRTD:throw_bad_alloc.obj
 0001:000dce90       ??1bad_alloc@std@@UAE@XZ   100dde90 f i MSVCRTD:throw_bad_alloc.obj
 0001:000dceb0       ??1bad_array_new_length@std@@UAE@XZ 100ddeb0 f i MSVCRTD:throw_bad_alloc.obj
 0001:000dced0       ??_Gbad_alloc@std@@UAEPAXI@Z 100dded0 f i MSVCRTD:throw_bad_alloc.obj
 0001:000dced0       ??_Ebad_alloc@std@@UAEPAXI@Z 100dded0 f i MSVCRTD:throw_bad_alloc.obj
 0001:000dcf00       ??_Gbad_array_new_length@std@@UAEPAXI@Z 100ddf00 f i MSVCRTD:throw_bad_alloc.obj
 0001:000dcf00       ??_Ebad_array_new_length@std@@UAEPAXI@Z 100ddf00 f i MSVCRTD:throw_bad_alloc.obj
 0001:000dcf30       ?__scrt_throw_std_bad_alloc@@YAXXZ 100ddf30 f   MSVCRTD:throw_bad_alloc.obj
 0001:000dcf50       ?__scrt_throw_std_bad_array_new_length@@YAXXZ 100ddf50 f   MSVCRTD:throw_bad_alloc.obj
 0001:000dd400       ?_RTC_GetSrcLine@@YAHPAEPA_WKPAH1K@Z 100de400 f   MSVCRTD:_pdblkup_.obj
 0001:000dd750       @_guard_check_icall@4      100de750 f i MSVCRTD:checkcfg.obj
 0001:000dd770       __except_handler4          100de770 f   MSVCRTD:_chandler4gs_.obj
 0001:000dd820       ___security_init_cookie    100de820 f   MSVCRTD:gs_support.obj
 0001:000dd8a0       ?__scrt_initialize_type_info@@YAXXZ 100de8a0 f   MSVCRTD:tncleanup.obj
 0001:000dd8b0       ?__scrt_uninitialize_type_info@@YAXXZ 100de8b0 f   MSVCRTD:tncleanup.obj
 0001:000dd8d0       ___scrt_initialize_default_local_stdio_options 100de8d0 f   MSVCRTD:default_local_stdio_options.obj
 0001:000dd910       ??$__crt_fast_decode_pointer@PAP6AXXZ@@YAPAP6AXXZQAP6AXXZ@Z 100de910 f i MSVCRTD:utility.obj
 0001:000dd940       ??$__crt_fast_encode_pointer@PAP6AXXZ@@YAPAP6AXXZQAP6AXXZ@Z 100de940 f i MSVCRTD:utility.obj
 0001:000dd970       ?__crt_rotate_pointer_value@@YAIIH@Z 100de970 f i MSVCRTD:utility.obj
 0001:000dd980       ?configure_argv@__scrt_narrow_argv_policy@@SAHXZ 100de980 f i MSVCRTD:utility.obj
 0001:000dda30       ?initialize_environment@__scrt_narrow_environment_policy@@SAHXZ 100dea30 f i MSVCRTD:utility.obj
 0001:000ddab0       _NtCurrentTeb              100deab0 f i MSVCRTD:utility.obj
 0001:000ddac0       ___scrt_acquire_startup_lock 100deac0 f   MSVCRTD:utility.obj
 0001:000ddb10       ___scrt_dllmain_after_initialize_c 100deb10 f   MSVCRTD:utility.obj
 0001:000ddb40       ___scrt_dllmain_before_initialize_c 100deb40 f   MSVCRTD:utility.obj
 0001:000ddb60       ___scrt_dllmain_crt_thread_attach 100deb60 f   MSVCRTD:utility.obj
 0001:000ddb90       ___scrt_dllmain_crt_thread_detach 100deb90 f   MSVCRTD:utility.obj
 0001:000ddbb0       ___scrt_dllmain_exception_filter 100debb0 f   MSVCRTD:utility.obj
 0001:000ddc00       ___scrt_dllmain_uninitialize_c 100dec00 f   MSVCRTD:utility.obj
 0001:000ddc30       ___scrt_dllmain_uninitialize_critical 100dec30 f   MSVCRTD:utility.obj
 0001:000ddc50       ___scrt_initialize_crt     100dec50 f   MSVCRTD:utility.obj
 0001:000ddca0       ___scrt_initialize_onexit_tables 100deca0 f   MSVCRTD:utility.obj
 0001:000ddd80       ___scrt_is_nonwritable_in_current_image 100ded80 f   MSVCRTD:utility.obj
 0001:000ddeb0       ___scrt_release_startup_lock 100deeb0 f   MSVCRTD:utility.obj
 0001:000ddee0       ___scrt_uninitialize_crt   100deee0 f   MSVCRTD:utility.obj
 0001:000ddf20       __onexit                   100def20 f   MSVCRTD:utility.obj
 0001:000ddf90       _at_quick_exit             100def90 f   MSVCRTD:utility.obj
 0001:000ddfe0       _atexit                    100defe0 f   MSVCRTD:utility.obj
 0001:000de010       ___scrt_get_dyn_tls_init_callback 100df010 f   MSVCRTD:dyn_tls_init.obj
 0001:000de020       ___scrt_fastfail           100df020 f   MSVCRTD:utility_desktop.obj
 0001:000de160       ___scrt_get_show_window_mode 100df160 f   MSVCRTD:utility_desktop.obj
 0001:000de1a0       ___scrt_initialize_winrt   100df1a0 f   MSVCRTD:utility_desktop.obj
 0001:000de1b0       ___scrt_is_managed_app     100df1b0 f   MSVCRTD:utility_desktop.obj
 0001:000de240       ___scrt_set_unhandled_exception_filter 100df240 f   MSVCRTD:utility_desktop.obj
 0001:000de250       ___scrt_unhandled_exception_filter@4 100df250 f   MSVCRTD:utility_desktop.obj
 0001:000de2b0       __crt_debugger_hook        100df2b0 f   MSVCRTD:utility_desktop.obj
 0001:000de2c0       __RTC_Initialize           100df2c0 f   MSVCRTD:_initsect_.obj
 0001:000de2f0       __RTC_Terminate            100df2f0 f   MSVCRTD:_initsect_.obj
 0001:000de320       @_guard_check_icall_nop@4  100df320 f i MSVCRTD:guard_support.obj
 0001:000de330       _ReadNoFence               100df330 f i MSVCRTD:guard_support.obj
 0001:000de350       _ReadPointerNoFence        100df350 f i MSVCRTD:guard_support.obj
 0001:000de370       __guard_icall_checks_enforced 100df370 f i MSVCRTD:guard_support.obj
 0001:000de3a0       ___isa_available_init      100df3a0 f   MSVCRTD:_cpu_disp_.obj
 0001:000de680       __get_startup_argv_mode    100df680 f   MSVCRTD:argv_mode.obj
 0001:000de690       ___scrt_is_ucrt_dll_in_use 100df690 f   MSVCRTD:ucrt_detection.obj
 0001:000de6b4       ??0_Lockit@std@@QAE@H@Z    100df6b4 f   msvcprtd:MSVCP140D.dll
 0001:000de6ba       ??1_Lockit@std@@QAE@XZ     100df6ba f   msvcprtd:MSVCP140D.dll
 0001:000de6c0       ?uncaught_exception@std@@YA_NXZ 100df6c0 f   msvcprtd:MSVCP140D.dll
 0001:000de6c6       ?_Debug_message@std@@YAXPB_W0I@Z 100df6c6 f   msvcprtd:MSVCP140D.dll
 0001:000de6cc       ?_Xbad_alloc@std@@YAXXZ    100df6cc f   msvcprtd:MSVCP140D.dll
 0001:000de6d2       ?_Xlength_error@std@@YAXPBD@Z 100df6d2 f   msvcprtd:MSVCP140D.dll
 0001:000de6d8       ?_Xout_of_range@std@@YAXPBD@Z 100df6d8 f   msvcprtd:MSVCP140D.dll
 0001:000de6e0       ??0_Fac_node@std@@QAE@PAU01@PAV_Facet_base@1@@Z 100df6e0 f i msvcprtd:locale0_implib.obj
 0001:000de710       ??1_Fac_node@std@@QAE@XZ   100df710 f i msvcprtd:locale0_implib.obj
 0001:000de7a0       ??1_Fac_tidy_reg_t@std@@QAE@XZ 100df7a0 f i msvcprtd:locale0_implib.obj
 0001:000de800       ??2_Fac_node@std@@SAPAXI@Z 100df800 f i msvcprtd:locale0_implib.obj
 0001:000de850       ??3_Fac_node@std@@SAXPAX@Z 100df850 f i msvcprtd:locale0_implib.obj
 0001:000de870       ??_G_Fac_node@std@@QAEPAXI@Z 100df870 f i msvcprtd:locale0_implib.obj
 0001:000de8c0       ?_Facet_Register@std@@YAXPAV_Facet_base@1@@Z 100df8c0 f   msvcprtd:locale0_implib.obj
 0001:000de942       ??Bid@locale@std@@QAEIXZ   100df942 f   msvcprtd:MSVCP140D.dll
 0001:000de948       ?_Getgloballocale@locale@std@@CAPAV_Locimp@12@XZ 100df948 f   msvcprtd:MSVCP140D.dll
 0001:000de94e       ?always_noconv@codecvt_base@std@@QBE_NXZ 100df94e f   msvcprtd:MSVCP140D.dll
 0001:000de954       ?in@?$codecvt@DDU_Mbstatet@@@std@@QBEHAAU_Mbstatet@@PBD1AAPBDPAD3AAPAD@Z 100df954 f   msvcprtd:MSVCP140D.dll
 0001:000de95a       ?out@?$codecvt@DDU_Mbstatet@@@std@@QBEHAAU_Mbstatet@@PBD1AAPBDPAD3AAPAD@Z 100df95a f   msvcprtd:MSVCP140D.dll
 0001:000de960       ?unshift@?$codecvt@DDU_Mbstatet@@@std@@QBEHAAU_Mbstatet@@PAD1AAPAD@Z 100df960 f   msvcprtd:MSVCP140D.dll
 0001:000de966       ?_Getcat@?$codecvt@DDU_Mbstatet@@@std@@SAIPAPBVfacet@locale@2@PBV42@@Z 100df966 f   msvcprtd:MSVCP140D.dll
 0001:000de96c       ?good@ios_base@std@@QBE_NXZ 100df96c f   msvcprtd:MSVCP140D.dll
 0001:000de972       ?flags@ios_base@std@@QBEHXZ 100df972 f   msvcprtd:MSVCP140D.dll
 0001:000de978       ?width@ios_base@std@@QBE_JXZ 100df978 f   msvcprtd:MSVCP140D.dll
 0001:000de97e       ?width@ios_base@std@@QAE_J_J@Z 100df97e f   msvcprtd:MSVCP140D.dll
 0001:000de984       ??0?$basic_streambuf@DU?$char_traits@D@std@@@std@@IAE@XZ 100df984 f   msvcprtd:MSVCP140D.dll
 0001:000de98a       ??1?$basic_streambuf@DU?$char_traits@D@std@@@std@@UAE@XZ 100df98a f   msvcprtd:MSVCP140D.dll
 0001:000de990       ?getloc@?$basic_streambuf@DU?$char_traits@D@std@@@std@@QBE?AVlocale@2@XZ 100df990 f   msvcprtd:MSVCP140D.dll
 0001:000de996       ?sputc@?$basic_streambuf@DU?$char_traits@D@std@@@std@@QAEHD@Z 100df996 f   msvcprtd:MSVCP140D.dll
 0001:000de99c       ?sputn@?$basic_streambuf@DU?$char_traits@D@std@@@std@@QAE_JPBD_J@Z 100df99c f   msvcprtd:MSVCP140D.dll
 0001:000de9a2       ?eback@?$basic_streambuf@DU?$char_traits@D@std@@@std@@IBEPADXZ 100df9a2 f   msvcprtd:MSVCP140D.dll
 0001:000de9a8       ?gptr@?$basic_streambuf@DU?$char_traits@D@std@@@std@@IBEPADXZ 100df9a8 f   msvcprtd:MSVCP140D.dll
 0001:000de9ae       ?pptr@?$basic_streambuf@DU?$char_traits@D@std@@@std@@IBEPADXZ 100df9ae f   msvcprtd:MSVCP140D.dll
 0001:000de9b4       ?egptr@?$basic_streambuf@DU?$char_traits@D@std@@@std@@IBEPADXZ 100df9b4 f   msvcprtd:MSVCP140D.dll
 0001:000de9ba       ?setg@?$basic_streambuf@DU?$char_traits@D@std@@@std@@IAEXPAD00@Z 100df9ba f   msvcprtd:MSVCP140D.dll
 0001:000de9c0       ?epptr@?$basic_streambuf@DU?$char_traits@D@std@@@std@@IBEPADXZ 100df9c0 f   msvcprtd:MSVCP140D.dll
 0001:000de9c6       ?_Gndec@?$basic_streambuf@DU?$char_traits@D@std@@@std@@IAEPADXZ 100df9c6 f   msvcprtd:MSVCP140D.dll
 0001:000de9cc       ?_Gninc@?$basic_streambuf@DU?$char_traits@D@std@@@std@@IAEPADXZ 100df9cc f   msvcprtd:MSVCP140D.dll
 0001:000de9d2       ?_Pninc@?$basic_streambuf@DU?$char_traits@D@std@@@std@@IAEPADXZ 100df9d2 f   msvcprtd:MSVCP140D.dll
 0001:000de9d8       ?_Init@?$basic_streambuf@DU?$char_traits@D@std@@@std@@IAEXXZ 100df9d8 f   msvcprtd:MSVCP140D.dll
 0001:000de9de       ?_Init@?$basic_streambuf@DU?$char_traits@D@std@@@std@@IAEXPAPAD0PAH001@Z 100df9de f   msvcprtd:MSVCP140D.dll
 0001:000de9e4       ??1?$basic_ios@DU?$char_traits@D@std@@@std@@UAE@XZ 100df9e4 f   msvcprtd:MSVCP140D.dll
 0001:000de9ea       ?setstate@?$basic_ios@DU?$char_traits@D@std@@@std@@QAEXH_N@Z 100df9ea f   msvcprtd:MSVCP140D.dll
 0001:000de9f0       ?tie@?$basic_ios@DU?$char_traits@D@std@@@std@@QBEPAV?$basic_ostream@DU?$char_traits@D@std@@@2@XZ 100df9f0 f   msvcprtd:MSVCP140D.dll
 0001:000de9f6       ?rdbuf@?$basic_ios@DU?$char_traits@D@std@@@std@@QBEPAV?$basic_streambuf@DU?$char_traits@D@std@@@2@XZ 100df9f6 f   msvcprtd:MSVCP140D.dll
 0001:000de9fc       ?fill@?$basic_ios@DU?$char_traits@D@std@@@std@@QBEDXZ 100df9fc f   msvcprtd:MSVCP140D.dll
 0001:000dea02       ?widen@?$basic_ios@DU?$char_traits@D@std@@@std@@QBEDD@Z 100dfa02 f   msvcprtd:MSVCP140D.dll
 0001:000dea08       ??0?$basic_ios@DU?$char_traits@D@std@@@std@@IAE@XZ 100dfa08 f   msvcprtd:MSVCP140D.dll
 0001:000dea0e       ?_Osfx@?$basic_ostream@DU?$char_traits@D@std@@@std@@QAEXXZ 100dfa0e f   msvcprtd:MSVCP140D.dll
 0001:000dea14       ??6?$basic_ostream@DU?$char_traits@D@std@@@std@@QAEAAV01@P6AAAV01@AAV01@@Z@Z 100dfa14 f   msvcprtd:MSVCP140D.dll
 0001:000dea1a       ?put@?$basic_ostream@DU?$char_traits@D@std@@@std@@QAEAAV12@D@Z 100dfa1a f   msvcprtd:MSVCP140D.dll
 0001:000dea20       ?flush@?$basic_ostream@DU?$char_traits@D@std@@@std@@QAEAAV12@XZ 100dfa20 f   msvcprtd:MSVCP140D.dll
 0001:000dea26       ??0?$basic_istream@DU?$char_traits@D@std@@@std@@QAE@PAV?$basic_streambuf@DU?$char_traits@D@std@@@1@_N@Z 100dfa26 f   msvcprtd:MSVCP140D.dll
 0001:000dea2c       ??1?$basic_istream@DU?$char_traits@D@std@@@std@@UAE@XZ 100dfa2c f   msvcprtd:MSVCP140D.dll
 0001:000dea32       ?get@?$basic_istream@DU?$char_traits@D@std@@@std@@QAEHXZ 100dfa32 f   msvcprtd:MSVCP140D.dll
 0001:000dea38       ?_Random_device@std@@YAIXZ 100dfa38 f   msvcprtd:MSVCP140D.dll
 0001:000dea3e       ?_Fiopen@std@@YAPAU_iobuf@@PBDHH@Z 100dfa3e f   msvcprtd:MSVCP140D.dll
 0001:000dea44       ?showmanyc@?$basic_streambuf@DU?$char_traits@D@std@@@std@@MAE_JXZ 100dfa44 f   msvcprtd:MSVCP140D.dll
 0001:000dea4a       ?xsgetn@?$basic_streambuf@DU?$char_traits@D@std@@@std@@MAE_JPAD_J@Z 100dfa4a f   msvcprtd:MSVCP140D.dll
 0001:000dea50       ?xsputn@?$basic_streambuf@DU?$char_traits@D@std@@@std@@MAE_JPBD_J@Z 100dfa50 f   msvcprtd:MSVCP140D.dll
 0001:000dea56       _memcmp                    100dfa56 f   vcruntimed:VCRUNTIME140D.dll
 0001:000dea5c       _memcpy                    100dfa5c f   vcruntimed:VCRUNTIME140D.dll
 0001:000dea62       _memmove                   100dfa62 f   vcruntimed:VCRUNTIME140D.dll
 0001:000dea68       _memset                    100dfa68 f   vcruntimed:VCRUNTIME140D.dll
 0001:000dea6e       __purecall                 100dfa6e f   vcruntimed:VCRUNTIME140D.dll
 0001:000dea74       _memchr                    100dfa74 f   vcruntimed:VCRUNTIME140D.dll
 0001:000dea7a       ___std_exception_copy      100dfa7a f   vcruntimed:VCRUNTIME140D.dll
 0001:000dea80       ___std_exception_destroy   100dfa80 f   vcruntimed:VCRUNTIME140D.dll
 0001:000dea86       __CxxThrowException@8      100dfa86 f   vcruntimed:VCRUNTIME140D.dll
 0001:000dea8c       ___CxxFrameHandler3        100dfa8c f   vcruntimed:VCRUNTIME140D.dll
 0001:000dea92       ___vcrt_GetModuleFileNameW 100dfa92 f   vcruntimed:VCRUNTIME140D.dll
 0001:000dea98       ___vcrt_GetModuleHandleW   100dfa98 f   vcruntimed:VCRUNTIME140D.dll
 0001:000dea9e       ___vcrt_LoadLibraryExW     100dfa9e f   vcruntimed:VCRUNTIME140D.dll
 0001:000deaa4       __except_handler4_common   100dfaa4 f   vcruntimed:VCRUNTIME140D.dll
 0001:000deaaa       ___std_type_info_destroy_list 100dfaaa f   vcruntimed:VCRUNTIME140D.dll
 0001:000deab0       _free                      100dfab0 f   ucrtd:ucrtbased.dll
 0001:000deab6       _malloc                    100dfab6 f   ucrtd:ucrtbased.dll
 0001:000deabc       __msize                    100dfabc f   ucrtd:ucrtbased.dll
 0001:000deac2       _realloc                   100dfac2 f   ucrtd:ucrtbased.dll
 0001:000deac8       _strcmp                    100dfac8 f   ucrtd:ucrtbased.dll
 0001:000deace       _strlen                    100dface f   ucrtd:ucrtbased.dll
 0001:000dead4       _strncmp                   100dfad4 f   ucrtd:ucrtbased.dll
 0001:000deada       __localtime64_s            100dfada f   ucrtd:ucrtbased.dll
 0001:000deae0       __beginthreadex            100dfae0 f   ucrtd:ucrtbased.dll
 0001:000deae6       __endthreadex              100dfae6 f   ucrtd:ucrtbased.dll
 0001:000deaec       __invalid_parameter        100dfaec f   ucrtd:ucrtbased.dll
 0001:000deaf2       __invalid_parameter_noinfo 100dfaf2 f   ucrtd:ucrtbased.dll
 0001:000deaf8       __errno                    100dfaf8 f   ucrtd:ucrtbased.dll
 0001:000deafe       ___acrt_iob_func           100dfafe f   ucrtd:ucrtbased.dll
 0001:000deb04       __get_stream_buffer_pointers 100dfb04 f   ucrtd:ucrtbased.dll
 0001:000deb0a       _fclose                    100dfb0a f   ucrtd:ucrtbased.dll
 0001:000deb10       _fflush                    100dfb10 f   ucrtd:ucrtbased.dll
 0001:000deb16       _fgetc                     100dfb16 f   ucrtd:ucrtbased.dll
 0001:000deb1c       _fgetpos                   100dfb1c f   ucrtd:ucrtbased.dll
 0001:000deb22       _fopen                     100dfb22 f   ucrtd:ucrtbased.dll
 0001:000deb28       _fputc                     100dfb28 f   ucrtd:ucrtbased.dll
 0001:000deb2e       _fsetpos                   100dfb2e f   ucrtd:ucrtbased.dll
 0001:000deb34       __fseeki64                 100dfb34 f   ucrtd:ucrtbased.dll
 0001:000deb3a       _fwrite                    100dfb3a f   ucrtd:ucrtbased.dll
 0001:000deb40       _setvbuf                   100dfb40 f   ucrtd:ucrtbased.dll
 0001:000deb46       _ungetc                    100dfb46 f   ucrtd:ucrtbased.dll
 0001:000deb4c       __lock_file                100dfb4c f   ucrtd:ucrtbased.dll
 0001:000deb52       __unlock_file              100dfb52 f   ucrtd:ucrtbased.dll
 0001:000deb58       ___stdio_common_vfprintf   100dfb58 f   ucrtd:ucrtbased.dll
 0001:000deb5e       __CrtDbgReportW            100dfb5e f   ucrtd:ucrtbased.dll
 0001:000deb64       _exit                      100dfb64 f   ucrtd:ucrtbased.dll
 0001:000deb6a       ___stdio_common_vsprintf   100dfb6a f   ucrtd:ucrtbased.dll
 0001:000deb70       _fread                     100dfb70 f   ucrtd:ucrtbased.dll
 0001:000deb76       ___stdio_common_vsscanf    100dfb76 f   ucrtd:ucrtbased.dll
 0001:000deb7c       _getenv                    100dfb7c f   ucrtd:ucrtbased.dll
 0001:000deb82       _strncpy                   100dfb82 f   ucrtd:ucrtbased.dll
 0001:000deb88       __CrtDbgReport             100dfb88 f   ucrtd:ucrtbased.dll
 0001:000deb8e       __except1                  100dfb8e f   ucrtd:ucrtbased.dll
 0001:000deb94       __callnewh                 100dfb94 f   ucrtd:ucrtbased.dll
 0001:000deb9a       __free_dbg                 100dfb9a f   ucrtd:ucrtbased.dll
 0001:000deba0       _strcpy_s                  100dfba0 f   ucrtd:ucrtbased.dll
 0001:000deba6       _strcat_s                  100dfba6 f   ucrtd:ucrtbased.dll
 0001:000debac       ___stdio_common_vsprintf_s 100dfbac f   ucrtd:ucrtbased.dll
 0001:000debb2       __initterm                 100dfbb2 f   ucrtd:ucrtbased.dll
 0001:000debb8       __initterm_e               100dfbb8 f   ucrtd:ucrtbased.dll
 0001:000debbe       __wmakepath_s              100dfbbe f   ucrtd:ucrtbased.dll
 0001:000debc4       __wsplitpath_s             100dfbc4 f   ucrtd:ucrtbased.dll
 0001:000debca       _wcscpy_s                  100dfbca f   ucrtd:ucrtbased.dll
 0001:000debd0       __seh_filter_dll           100dfbd0 f   ucrtd:ucrtbased.dll
 0001:000debd6       __configure_narrow_argv    100dfbd6 f   ucrtd:ucrtbased.dll
 0001:000debdc       __initialize_narrow_environment 100dfbdc f   ucrtd:ucrtbased.dll
 0001:000debe2       __initialize_onexit_table  100dfbe2 f   ucrtd:ucrtbased.dll
 0001:000debe8       __register_onexit_function 100dfbe8 f   ucrtd:ucrtbased.dll
 0001:000debee       __execute_onexit_table     100dfbee f   ucrtd:ucrtbased.dll
 0001:000debf4       __crt_atexit               100dfbf4 f   ucrtd:ucrtbased.dll
 0001:000debfa       __crt_at_quick_exit        100dfbfa f   ucrtd:ucrtbased.dll
 0001:000dec00       __cexit                    100dfc00 f   ucrtd:ucrtbased.dll
 0001:000dec06       _terminate                 100dfc06 f   ucrtd:ucrtbased.dll
 0001:000dec0c       __malloc_dbg               100dfc0c f   ucrtd:ucrtbased.dll
 0001:000dec12       _UnhandledExceptionFilter@4 100dfc12 f   kernel32:KERNEL32.dll
 0001:000dec18       _SetUnhandledExceptionFilter@4 100dfc18 f   kernel32:KERNEL32.dll
 0001:000dec1e       _GetCurrentProcess@0       100dfc1e f   kernel32:KERNEL32.dll
 0001:000dec24       _TerminateProcess@8        100dfc24 f   kernel32:KERNEL32.dll
 0001:000dec2a       _IsProcessorFeaturePresent@4 100dfc2a f   kernel32:KERNEL32.dll
 0001:000dec30       _IsDebuggerPresent@0       100dfc30 f   kernel32:KERNEL32.dll
 0001:000dec36       _RaiseException@16         100dfc36 f   kernel32:KERNEL32.dll
 0001:000dec3c       _VirtualQuery@12           100dfc3c f   kernel32:KERNEL32.dll
 0001:000dec42       _InitializeSListHead@4     100dfc42 f   kernel32:KERNEL32.dll
 0001:000dec48       _GetStartupInfoW@4         100dfc48 f   kernel32:KERNEL32.dll
 0001:000dec4e       _GetModuleHandleW@4        100dfc4e f   kernel32:KERNEL32.dll
 0001:000dec60       ___acrt_initialize         100dfc60 f   MSVCRTD:ucrt_stubs.obj
 0001:000dec60       ___vcrt_initialize         100dfc60 f   MSVCRTD:ucrt_stubs.obj
 0001:000dec60       ___scrt_stub_for_acrt_initialize 100dfc60 f   MSVCRTD:ucrt_stubs.obj
 0001:000dec70       ___acrt_thread_attach      100dfc70 f   MSVCRTD:ucrt_stubs.obj
 0001:000dec70       ___scrt_stub_for_acrt_thread_attach 100dfc70 f   MSVCRTD:ucrt_stubs.obj
 0001:000dec70       ___vcrt_thread_attach      100dfc70 f   MSVCRTD:ucrt_stubs.obj
 0001:000dec80       ___acrt_thread_detach      100dfc80 f   MSVCRTD:ucrt_stubs.obj
 0001:000dec80       ___vcrt_thread_detach      100dfc80 f   MSVCRTD:ucrt_stubs.obj
 0001:000dec80       ___scrt_stub_for_acrt_thread_detach 100dfc80 f   MSVCRTD:ucrt_stubs.obj
 0001:000dec90       ___scrt_stub_for_acrt_uninitialize 100dfc90 f   MSVCRTD:ucrt_stubs.obj
 0001:000dec90       ___acrt_uninitialize       100dfc90 f   MSVCRTD:ucrt_stubs.obj
 0001:000dec90       ___vcrt_uninitialize       100dfc90 f   MSVCRTD:ucrt_stubs.obj
 0001:000deca0       ___acrt_uninitialize_critical 100dfca0 f   MSVCRTD:ucrt_stubs.obj
 0001:000deca0       ___vcrt_uninitialize_critical 100dfca0 f   MSVCRTD:ucrt_stubs.obj
 0001:000deca0       ___scrt_stub_for_acrt_uninitialize_critical 100dfca0 f   MSVCRTD:ucrt_stubs.obj
 0001:000decb0       ___scrt_stub_for_is_c_termination_complete 100dfcb0 f   MSVCRTD:ucrt_stubs.obj
 0001:000decb0       __is_c_termination_complete 100dfcb0 f   MSVCRTD:ucrt_stubs.obj
 0002:00000000       __imp__CreateFileA@28      100e1000     kernel32:KERNEL32.dll
 0002:00000004       __imp__FlushViewOfFile@8   100e1004     kernel32:KERNEL32.dll
 0002:00000008       __imp__OutputDebugStringW@4 100e1008     kernel32:KERNEL32.dll
 0002:0000000c       __imp__GetFileAttributesExW@12 100e100c     kernel32:KERNEL32.dll
 0002:00000010       __imp__GetFileAttributesA@4 100e1010     kernel32:KERNEL32.dll
 0002:00000014       __imp__GetLastError@0      100e1014     kernel32:KERNEL32.dll
 0002:00000018       __imp__GetDiskFreeSpaceA@20 100e1018     kernel32:KERNEL32.dll
 0002:0000001c       __imp__FormatMessageW@28   100e101c     kernel32:KERNEL32.dll
 0002:00000020       __imp__GetTempPathA@8      100e1020     kernel32:KERNEL32.dll
 0002:00000024       __imp__Sleep@4             100e1024     kernel32:KERNEL32.dll
 0002:00000028       __imp__MultiByteToWideChar@24 100e1028     kernel32:KERNEL32.dll
 0002:0000002c       __imp__HeapSize@12         100e102c     kernel32:KERNEL32.dll
 0002:00000030       __imp__HeapValidate@12     100e1030     kernel32:KERNEL32.dll
 0002:00000034       __imp__UnmapViewOfFile@4   100e1034     kernel32:KERNEL32.dll
 0002:00000038       __imp__GetFileAttributesW@4 100e1038     kernel32:KERNEL32.dll
 0002:0000003c       __imp__CreateFileW@28      100e103c     kernel32:KERNEL32.dll
 0002:00000040       __imp__WaitForSingleObject@8 100e1040     kernel32:KERNEL32.dll
 0002:00000044       __imp__CreateMutexW@12     100e1044     kernel32:KERNEL32.dll
 0002:00000048       __imp__GetTempPathW@8      100e1048     kernel32:KERNEL32.dll
 0002:0000004c       __imp__UnlockFileEx@20     100e104c     kernel32:KERNEL32.dll
 0002:00000050       __imp__SetEndOfFile@4      100e1050     kernel32:KERNEL32.dll
 0002:00000054       __imp__GetFullPathNameA@16 100e1054     kernel32:KERNEL32.dll
 0002:00000058       __imp__SetFilePointer@16   100e1058     kernel32:KERNEL32.dll
 0002:0000005c       __imp__LockFile@20         100e105c     kernel32:KERNEL32.dll
 0002:00000060       __imp__OutputDebugStringA@4 100e1060     kernel32:KERNEL32.dll
 0002:00000064       __imp__GetDiskFreeSpaceW@20 100e1064     kernel32:KERNEL32.dll
 0002:00000068       __imp__WriteFile@20        100e1068     kernel32:KERNEL32.dll
 0002:0000006c       __imp__FlushFileBuffers@4  100e106c     kernel32:KERNEL32.dll
 0002:00000070       __imp__GetFullPathNameW@16 100e1070     kernel32:KERNEL32.dll
 0002:00000074       __imp__HeapFree@12         100e1074     kernel32:KERNEL32.dll
 0002:00000078       __imp__GetTickCount@0      100e1078     kernel32:KERNEL32.dll
 0002:0000007c       __imp__HeapCreate@12       100e107c     kernel32:KERNEL32.dll
 0002:00000080       __imp__QueryPerformanceCounter@4 100e1080     kernel32:KERNEL32.dll
 0002:00000084       __imp__MapViewOfFile@20    100e1084     kernel32:KERNEL32.dll
 0002:00000088       __imp__CreateFileMappingW@24 100e1088     kernel32:KERNEL32.dll
 0002:0000008c       __imp__FormatMessageA@28   100e108c     kernel32:KERNEL32.dll
 0002:00000090       __imp__GetSystemTime@4     100e1090     kernel32:KERNEL32.dll
 0002:00000094       __imp__GetSystemTimeAsFileTime@4 100e1094     kernel32:KERNEL32.dll
 0002:00000098       __imp__ReadFile@20         100e1098     kernel32:KERNEL32.dll
 0002:0000009c       __imp__AreFileApisANSI@0   100e109c     kernel32:KERNEL32.dll
 0002:000000a0       __imp__WideCharToMultiByte@32 100e10a0     kernel32:KERNEL32.dll
 0002:000000a4       __imp__FreeLibrary@4       100e10a4     kernel32:KERNEL32.dll
 0002:000000a8       __imp__SystemTimeToFileTime@8 100e10a8     kernel32:KERNEL32.dll
 0002:000000ac       __imp__GetProcessHeap@0    100e10ac     kernel32:KERNEL32.dll
 0002:000000b0       __imp__GetCurrentProcessId@0 100e10b0     kernel32:KERNEL32.dll
 0002:000000b4       __imp__GetFileSize@8       100e10b4     kernel32:KERNEL32.dll
 0002:000000b8       __imp__LockFileEx@24       100e10b8     kernel32:KERNEL32.dll
 0002:000000bc       __imp__LocalFree@4         100e10bc     kernel32:KERNEL32.dll
 0002:000000c0       __imp__GetProcAddress@8    100e10c0     kernel32:KERNEL32.dll
 0002:000000c4       __imp__UnlockFile@20       100e10c4     kernel32:KERNEL32.dll
 0002:000000c8       __imp__HeapDestroy@4       100e10c8     kernel32:KERNEL32.dll
 0002:000000cc       __imp__HeapCompact@8       100e10cc     kernel32:KERNEL32.dll
 0002:000000d0       __imp__HeapAlloc@12        100e10d0     kernel32:KERNEL32.dll
 0002:000000d4       __imp__LoadLibraryW@4      100e10d4     kernel32:KERNEL32.dll
 0002:000000d8       __imp__GetSystemInfo@4     100e10d8     kernel32:KERNEL32.dll
 0002:000000dc       __imp__CloseHandle@4       100e10dc     kernel32:KERNEL32.dll
 0002:000000e0       __imp__HeapReAlloc@16      100e10e0     kernel32:KERNEL32.dll
 0002:000000e4       __imp__DeleteFileW@4       100e10e4     kernel32:KERNEL32.dll
 0002:000000e8       __imp__DeleteFileA@4       100e10e8     kernel32:KERNEL32.dll
 0002:000000ec       __imp__WaitForSingleObjectEx@12 100e10ec     kernel32:KERNEL32.dll
 0002:000000f0       __imp__LoadLibraryA@4      100e10f0     kernel32:KERNEL32.dll
 0002:000000f4       __imp__InitializeCriticalSection@4 100e10f4     kernel32:KERNEL32.dll
 0002:000000f8       __imp__EnterCriticalSection@4 100e10f8     kernel32:KERNEL32.dll
 0002:000000fc       __imp__LeaveCriticalSection@4 100e10fc     kernel32:KERNEL32.dll
 0002:00000100       __imp__TryEnterCriticalSection@4 100e1100     kernel32:KERNEL32.dll
 0002:00000104       __imp__DeleteCriticalSection@4 100e1104     kernel32:KERNEL32.dll
 0002:00000108       __imp__GetCurrentThreadId@0 100e1108     kernel32:KERNEL32.dll
 0002:0000010c       __imp__GetStartupInfoW@4   100e110c     kernel32:KERNEL32.dll
 0002:00000110       __imp__InitializeSListHead@4 100e1110     kernel32:KERNEL32.dll
 0002:00000114       __imp__VirtualQuery@12     100e1114     kernel32:KERNEL32.dll
 0002:00000118       __imp__RaiseException@16   100e1118     kernel32:KERNEL32.dll
 0002:0000011c       __imp__IsDebuggerPresent@0 100e111c     kernel32:KERNEL32.dll
 0002:00000120       __imp__IsProcessorFeaturePresent@4 100e1120     kernel32:KERNEL32.dll
 0002:00000124       __imp__TerminateProcess@8  100e1124     kernel32:KERNEL32.dll
 0002:00000128       __imp__GetCurrentProcess@0 100e1128     kernel32:KERNEL32.dll
 0002:0000012c       __imp__SetUnhandledExceptionFilter@4 100e112c     kernel32:KERNEL32.dll
 0002:00000130       __imp__UnhandledExceptionFilter@4 100e1130     kernel32:KERNEL32.dll
 0002:00000134       __imp__GetModuleHandleW@4  100e1134     kernel32:KERNEL32.dll
 0002:00000138       \177KERNEL32_NULL_THUNK_DATA 100e1138     kernel32:KERNEL32.dll
 0002:0000013c       __imp_?out@?$codecvt@DDU_Mbstatet@@@std@@QBEHAAU_Mbstatet@@PBD1AAPBDPAD3AAPAD@Z 100e113c     msvcprtd:MSVCP140D.dll
 0002:00000140       __imp_?unshift@?$codecvt@DDU_Mbstatet@@@std@@QBEHAAU_Mbstatet@@PAD1AAPAD@Z 100e1140     msvcprtd:MSVCP140D.dll
 0002:00000144       __imp_?_Getcat@?$codecvt@DDU_Mbstatet@@@std@@SAIPAPBVfacet@locale@2@PBV42@@Z 100e1144     msvcprtd:MSVCP140D.dll
 0002:00000148       __imp_?good@ios_base@std@@QBE_NXZ 100e1148     msvcprtd:MSVCP140D.dll
 0002:0000014c       __imp_?flags@ios_base@std@@QBEHXZ 100e114c     msvcprtd:MSVCP140D.dll
 0002:00000150       __imp_?width@ios_base@std@@QBE_JXZ 100e1150     msvcprtd:MSVCP140D.dll
 0002:00000154       __imp_?width@ios_base@std@@QAE_J_J@Z 100e1154     msvcprtd:MSVCP140D.dll
 0002:00000158       __imp_??0?$basic_streambuf@DU?$char_traits@D@std@@@std@@IAE@XZ 100e1158     msvcprtd:MSVCP140D.dll
 0002:0000015c       __imp_??1?$basic_streambuf@DU?$char_traits@D@std@@@std@@UAE@XZ 100e115c     msvcprtd:MSVCP140D.dll
 0002:00000160       __imp_?getloc@?$basic_streambuf@DU?$char_traits@D@std@@@std@@QBE?AVlocale@2@XZ 100e1160     msvcprtd:MSVCP140D.dll
 0002:00000164       __imp_?sputc@?$basic_streambuf@DU?$char_traits@D@std@@@std@@QAEHD@Z 100e1164     msvcprtd:MSVCP140D.dll
 0002:00000168       __imp_?sputn@?$basic_streambuf@DU?$char_traits@D@std@@@std@@QAE_JPBD_J@Z 100e1168     msvcprtd:MSVCP140D.dll
 0002:0000016c       __imp_?eback@?$basic_streambuf@DU?$char_traits@D@std@@@std@@IBEPADXZ 100e116c     msvcprtd:MSVCP140D.dll
 0002:00000170       __imp_?gptr@?$basic_streambuf@DU?$char_traits@D@std@@@std@@IBEPADXZ 100e1170     msvcprtd:MSVCP140D.dll
 0002:00000174       __imp_?pptr@?$basic_streambuf@DU?$char_traits@D@std@@@std@@IBEPADXZ 100e1174     msvcprtd:MSVCP140D.dll
 0002:00000178       __imp_?egptr@?$basic_streambuf@DU?$char_traits@D@std@@@std@@IBEPADXZ 100e1178     msvcprtd:MSVCP140D.dll
 0002:0000017c       __imp_?setg@?$basic_streambuf@DU?$char_traits@D@std@@@std@@IAEXPAD00@Z 100e117c     msvcprtd:MSVCP140D.dll
 0002:00000180       __imp_?epptr@?$basic_streambuf@DU?$char_traits@D@std@@@std@@IBEPADXZ 100e1180     msvcprtd:MSVCP140D.dll
 0002:00000184       __imp_?_Gndec@?$basic_streambuf@DU?$char_traits@D@std@@@std@@IAEPADXZ 100e1184     msvcprtd:MSVCP140D.dll
 0002:00000188       __imp_?_Gninc@?$basic_streambuf@DU?$char_traits@D@std@@@std@@IAEPADXZ 100e1188     msvcprtd:MSVCP140D.dll
 0002:0000018c       __imp_?_Pninc@?$basic_streambuf@DU?$char_traits@D@std@@@std@@IAEPADXZ 100e118c     msvcprtd:MSVCP140D.dll
 0002:00000190       __imp_?_Init@?$basic_streambuf@DU?$char_traits@D@std@@@std@@IAEXXZ 100e1190     msvcprtd:MSVCP140D.dll
 0002:00000194       __imp_?_Init@?$basic_streambuf@DU?$char_traits@D@std@@@std@@IAEXPAPAD0PAH001@Z 100e1194     msvcprtd:MSVCP140D.dll
 0002:00000198       __imp_??1?$basic_ios@DU?$char_traits@D@std@@@std@@UAE@XZ 100e1198     msvcprtd:MSVCP140D.dll
 0002:0000019c       __imp_?setstate@?$basic_ios@DU?$char_traits@D@std@@@std@@QAEXH_N@Z 100e119c     msvcprtd:MSVCP140D.dll
 0002:000001a0       __imp_?tie@?$basic_ios@DU?$char_traits@D@std@@@std@@QBEPAV?$basic_ostream@DU?$char_traits@D@std@@@2@XZ 100e11a0     msvcprtd:MSVCP140D.dll
 0002:000001a4       __imp_?rdbuf@?$basic_ios@DU?$char_traits@D@std@@@std@@QBEPAV?$basic_streambuf@DU?$char_traits@D@std@@@2@XZ 100e11a4     msvcprtd:MSVCP140D.dll
 0002:000001a8       __imp_?always_noconv@codecvt_base@std@@QBE_NXZ 100e11a8     msvcprtd:MSVCP140D.dll
 0002:000001ac       __imp_?widen@?$basic_ios@DU?$char_traits@D@std@@@std@@QBEDD@Z 100e11ac     msvcprtd:MSVCP140D.dll
 0002:000001b0       __imp_??0?$basic_ios@DU?$char_traits@D@std@@@std@@IAE@XZ 100e11b0     msvcprtd:MSVCP140D.dll
 0002:000001b4       __imp_?_Osfx@?$basic_ostream@DU?$char_traits@D@std@@@std@@QAEXXZ 100e11b4     msvcprtd:MSVCP140D.dll
 0002:000001b8       __imp_??6?$basic_ostream@DU?$char_traits@D@std@@@std@@QAEAAV01@P6AAAV01@AAV01@@Z@Z 100e11b8     msvcprtd:MSVCP140D.dll
 0002:000001bc       __imp_?put@?$basic_ostream@DU?$char_traits@D@std@@@std@@QAEAAV12@D@Z 100e11bc     msvcprtd:MSVCP140D.dll
 0002:000001c0       __imp_?flush@?$basic_ostream@DU?$char_traits@D@std@@@std@@QAEAAV12@XZ 100e11c0     msvcprtd:MSVCP140D.dll
 0002:000001c4       __imp_??0?$basic_istream@DU?$char_traits@D@std@@@std@@QAE@PAV?$basic_streambuf@DU?$char_traits@D@std@@@1@_N@Z 100e11c4     msvcprtd:MSVCP140D.dll
 0002:000001c8       __imp_??1?$basic_istream@DU?$char_traits@D@std@@@std@@UAE@XZ 100e11c8     msvcprtd:MSVCP140D.dll
 0002:000001cc       __imp_?get@?$basic_istream@DU?$char_traits@D@std@@@std@@QAEHXZ 100e11cc     msvcprtd:MSVCP140D.dll
 0002:000001d0       __imp_?_Random_device@std@@YAIXZ 100e11d0     msvcprtd:MSVCP140D.dll
 0002:000001d4       __imp_?_Fiopen@std@@YAPAU_iobuf@@PBDHH@Z 100e11d4     msvcprtd:MSVCP140D.dll
 0002:000001d8       __imp_?showmanyc@?$basic_streambuf@DU?$char_traits@D@std@@@std@@MAE_JXZ 100e11d8     msvcprtd:MSVCP140D.dll
 0002:000001dc       __imp_?xsgetn@?$basic_streambuf@DU?$char_traits@D@std@@@std@@MAE_JPAD_J@Z 100e11dc     msvcprtd:MSVCP140D.dll
 0002:000001e0       __imp_?xsputn@?$basic_streambuf@DU?$char_traits@D@std@@@std@@MAE_JPBD_J@Z 100e11e0     msvcprtd:MSVCP140D.dll
 0002:000001e4       __imp_?_BADOFF@std@@3_JB   100e11e4     msvcprtd:MSVCP140D.dll
 0002:000001e8       __imp_?id@?$codecvt@DDU_Mbstatet@@@std@@2V0locale@2@A 100e11e8     msvcprtd:MSVCP140D.dll
 0002:000001ec       __imp_?cout@std@@3V?$basic_ostream@DU?$char_traits@D@std@@@1@A 100e11ec     msvcprtd:MSVCP140D.dll
 0002:000001f0       __imp_?cerr@std@@3V?$basic_ostream@DU?$char_traits@D@std@@@1@A 100e11f0     msvcprtd:MSVCP140D.dll
 0002:000001f4       __imp_?in@?$codecvt@DDU_Mbstatet@@@std@@QBEHAAU_Mbstatet@@PBD1AAPBDPAD3AAPAD@Z 100e11f4     msvcprtd:MSVCP140D.dll
 0002:000001f8       __imp_??0_Lockit@std@@QAE@H@Z 100e11f8     msvcprtd:MSVCP140D.dll
 0002:000001fc       __imp_??1_Lockit@std@@QAE@XZ 100e11fc     msvcprtd:MSVCP140D.dll
 0002:00000200       __imp_?uncaught_exception@std@@YA_NXZ 100e1200     msvcprtd:MSVCP140D.dll
 0002:00000204       __imp_?_Debug_message@std@@YAXPB_W0I@Z 100e1204     msvcprtd:MSVCP140D.dll
 0002:00000208       __imp_?_Xbad_alloc@std@@YAXXZ 100e1208     msvcprtd:MSVCP140D.dll
 0002:0000020c       __imp_?_Xlength_error@std@@YAXPBD@Z 100e120c     msvcprtd:MSVCP140D.dll
 0002:00000210       __imp_?_Xout_of_range@std@@YAXPBD@Z 100e1210     msvcprtd:MSVCP140D.dll
 0002:00000214       __imp_??Bid@locale@std@@QAEIXZ 100e1214     msvcprtd:MSVCP140D.dll
 0002:00000218       __imp_?_Getgloballocale@locale@std@@CAPAV_Locimp@12@XZ 100e1218     msvcprtd:MSVCP140D.dll
 0002:0000021c       __imp_?fill@?$basic_ios@DU?$char_traits@D@std@@@std@@QBEDXZ 100e121c     msvcprtd:MSVCP140D.dll
 0002:00000220       \177MSVCP140D_NULL_THUNK_DATA 100e1220     msvcprtd:MSVCP140D.dll
 0002:00000224       __imp____vcrt_GetModuleHandleW 100e1224     vcruntimed:VCRUNTIME140D.dll
 0002:00000228       __imp____vcrt_LoadLibraryExW 100e1228     vcruntimed:VCRUNTIME140D.dll
 0002:0000022c       __imp___except_handler4_common 100e122c     vcruntimed:VCRUNTIME140D.dll
 0002:00000230       __imp____std_type_info_destroy_list 100e1230     vcruntimed:VCRUNTIME140D.dll
 0002:00000234       __imp__memcpy              100e1234     vcruntimed:VCRUNTIME140D.dll
 0002:00000238       __imp__memmove             100e1238     vcruntimed:VCRUNTIME140D.dll
 0002:0000023c       __imp__memset              100e123c     vcruntimed:VCRUNTIME140D.dll
 0002:00000240       __imp___purecall           100e1240     vcruntimed:VCRUNTIME140D.dll
 0002:00000244       __imp____CxxFrameHandler3  100e1244     vcruntimed:VCRUNTIME140D.dll
 0002:00000248       __imp__memchr              100e1248     vcruntimed:VCRUNTIME140D.dll
 0002:0000024c       __imp____std_exception_copy 100e124c     vcruntimed:VCRUNTIME140D.dll
 0002:00000250       __imp____std_exception_destroy 100e1250     vcruntimed:VCRUNTIME140D.dll
 0002:00000254       __imp___CxxThrowException@8 100e1254     vcruntimed:VCRUNTIME140D.dll
 0002:00000258       __imp____vcrt_GetModuleFileNameW 100e1258     vcruntimed:VCRUNTIME140D.dll
 0002:0000025c       __imp__memcmp              100e125c     vcruntimed:VCRUNTIME140D.dll
 0002:00000260       \177VCRUNTIME140D_NULL_THUNK_DATA 100e1260     vcruntimed:VCRUNTIME140D.dll
 0002:00000264       __imp___invalid_parameter_noinfo 100e1264     ucrtd:ucrtbased.dll
 0002:00000268       __imp___errno              100e1268     ucrtd:ucrtbased.dll
 0002:0000026c       __imp____acrt_iob_func     100e126c     ucrtd:ucrtbased.dll
 0002:00000270       __imp___get_stream_buffer_pointers 100e1270     ucrtd:ucrtbased.dll
 0002:00000274       __imp__fclose              100e1274     ucrtd:ucrtbased.dll
 0002:00000278       __imp__fflush              100e1278     ucrtd:ucrtbased.dll
 0002:0000027c       __imp__fgetc               100e127c     ucrtd:ucrtbased.dll
 0002:00000280       __imp__fgetpos             100e1280     ucrtd:ucrtbased.dll
 0002:00000284       __imp__fopen               100e1284     ucrtd:ucrtbased.dll
 0002:00000288       __imp__fputc               100e1288     ucrtd:ucrtbased.dll
 0002:0000028c       __imp__fsetpos             100e128c     ucrtd:ucrtbased.dll
 0002:00000290       __imp___fseeki64           100e1290     ucrtd:ucrtbased.dll
 0002:00000294       __imp__fwrite              100e1294     ucrtd:ucrtbased.dll
 0002:00000298       __imp__setvbuf             100e1298     ucrtd:ucrtbased.dll
 0002:0000029c       __imp__ungetc              100e129c     ucrtd:ucrtbased.dll
 0002:000002a0       __imp___lock_file          100e12a0     ucrtd:ucrtbased.dll
 0002:000002a4       __imp___unlock_file        100e12a4     ucrtd:ucrtbased.dll
 0002:000002a8       __imp____stdio_common_vfprintf 100e12a8     ucrtd:ucrtbased.dll
 0002:000002ac       __imp___CrtDbgReportW      100e12ac     ucrtd:ucrtbased.dll
 0002:000002b0       __imp__exit                100e12b0     ucrtd:ucrtbased.dll
 0002:000002b4       __imp___endthreadex        100e12b4     ucrtd:ucrtbased.dll
 0002:000002b8       __imp__fread               100e12b8     ucrtd:ucrtbased.dll
 0002:000002bc       __imp____stdio_common_vsscanf 100e12bc     ucrtd:ucrtbased.dll
 0002:000002c0       __imp__getenv              100e12c0     ucrtd:ucrtbased.dll
 0002:000002c4       __imp__strncpy             100e12c4     ucrtd:ucrtbased.dll
 0002:000002c8       __imp___CrtDbgReport       100e12c8     ucrtd:ucrtbased.dll
 0002:000002cc       __imp___except1            100e12cc     ucrtd:ucrtbased.dll
 0002:000002d0       __imp___callnewh           100e12d0     ucrtd:ucrtbased.dll
 0002:000002d4       __imp___free_dbg           100e12d4     ucrtd:ucrtbased.dll
 0002:000002d8       __imp__strcpy_s            100e12d8     ucrtd:ucrtbased.dll
 0002:000002dc       __imp__strcat_s            100e12dc     ucrtd:ucrtbased.dll
 0002:000002e0       __imp____stdio_common_vsprintf_s 100e12e0     ucrtd:ucrtbased.dll
 0002:000002e4       __imp___initterm           100e12e4     ucrtd:ucrtbased.dll
 0002:000002e8       __imp___initterm_e         100e12e8     ucrtd:ucrtbased.dll
 0002:000002ec       __imp___wmakepath_s        100e12ec     ucrtd:ucrtbased.dll
 0002:000002f0       __imp___wsplitpath_s       100e12f0     ucrtd:ucrtbased.dll
 0002:000002f4       __imp__wcscpy_s            100e12f4     ucrtd:ucrtbased.dll
 0002:000002f8       __imp___seh_filter_dll     100e12f8     ucrtd:ucrtbased.dll
 0002:000002fc       __imp___configure_narrow_argv 100e12fc     ucrtd:ucrtbased.dll
 0002:00000300       __imp___initialize_narrow_environment 100e1300     ucrtd:ucrtbased.dll
 0002:00000304       __imp___initialize_onexit_table 100e1304     ucrtd:ucrtbased.dll
 0002:00000308       __imp___register_onexit_function 100e1308     ucrtd:ucrtbased.dll
 0002:0000030c       __imp___execute_onexit_table 100e130c     ucrtd:ucrtbased.dll
 0002:00000310       __imp___crt_atexit         100e1310     ucrtd:ucrtbased.dll
 0002:00000314       __imp___crt_at_quick_exit  100e1314     ucrtd:ucrtbased.dll
 0002:00000318       __imp___cexit              100e1318     ucrtd:ucrtbased.dll
 0002:0000031c       __imp__terminate           100e131c     ucrtd:ucrtbased.dll
 0002:00000320       __imp___malloc_dbg         100e1320     ucrtd:ucrtbased.dll
 0002:00000324       __imp___beginthreadex      100e1324     ucrtd:ucrtbased.dll
 0002:00000328       __imp___localtime64_s      100e1328     ucrtd:ucrtbased.dll
 0002:0000032c       __imp__strncmp             100e132c     ucrtd:ucrtbased.dll
 0002:00000330       __imp__strlen              100e1330     ucrtd:ucrtbased.dll
 0002:00000334       __imp__strcmp              100e1334     ucrtd:ucrtbased.dll
 0002:00000338       __imp___msize              100e1338     ucrtd:ucrtbased.dll
 0002:0000033c       __imp__malloc              100e133c     ucrtd:ucrtbased.dll
 0002:00000340       __imp__free                100e1340     ucrtd:ucrtbased.dll
 0002:00000344       __imp___invalid_parameter  100e1344     ucrtd:ucrtbased.dll
 0002:00000348       __imp____stdio_common_vsprintf 100e1348     ucrtd:ucrtbased.dll
 0002:0000034c       __imp__realloc             100e134c     ucrtd:ucrtbased.dll
 0002:00000350       \177ucrtbased_NULL_THUNK_DATA 100e1350     ucrtd:ucrtbased.dll
 0002:00000354       ___guard_check_icall_fptr  100e1354     MSVCRTD:guard_support.obj
 0002:00000358       ___xc_a                    100e1358     MSVCRTD:initializers.obj
 0002:00000360       ___xc_z                    100e1360     MSVCRTD:initializers.obj
 0002:00000364       ___xi_a                    100e1364     MSVCRTD:initializers.obj
 0002:00000368       ___xi_z                    100e1368     MSVCRTD:initializers.obj
 0002:0000036c       ___xp_a                    100e136c     MSVCRTD:initializers.obj
 0002:00000370       ___xp_z                    100e1370     MSVCRTD:initializers.obj
 0002:00000374       ___xt_a                    100e1374     MSVCRTD:initializers.obj
 0002:00000378       ___xt_z                    100e1378     MSVCRTD:initializers.obj
 0002:00000864       _sqlite3_version           100e1864     sqlite3.obj
 0002:00003ec0       ??_C@_0L@JIGNFOJJ@cache_size?$AA@ 100e4ec0     sqlite3.obj
 0002:00003ecc       ??_C@_03LBLPCGAC@cid?$AA@  100e4ecc     sqlite3.obj
 0002:00003ed0       ??_C@_04MEMAJGDJ@name?$AA@ 100e4ed0     sqlite3.obj
 0002:00003ed8       ??_C@_04GPMDFGEJ@type?$AA@ 100e4ed8     sqlite3.obj
 0002:00003ee0       ??_C@_07EAJHGOKJ@notnull?$AA@ 100e4ee0     sqlite3.obj
 0002:00003ee8       ??_C@_0L@KNDFGGNJ@dflt_value?$AA@ 100e4ee8     sqlite3.obj
 0002:00003ef4       ??_C@_02NCEGPMNB@pk?$AA@   100e4ef4     sqlite3.obj
 0002:00003ef8       ??_C@_04DILHHFEK@wdth?$AA@ 100e4ef8     sqlite3.obj
 0002:00003f00       ??_C@_04DLPJNNLO@hght?$AA@ 100e4f00     sqlite3.obj
 0002:00003f08       ??_C@_04BHNFDFCE@flgs?$AA@ 100e4f08     sqlite3.obj
 0002:00003f10       ??_C@_05OBPGIPLF@seqno?$AA@ 100e4f10     sqlite3.obj
 0002:00003f18       ??_C@_04EBPADADD@desc?$AA@ 100e4f18     sqlite3.obj
 0002:00003f20       ??_C@_04MIPPEMF@coll?$AA@  100e4f20     sqlite3.obj
 0002:00003f28       ??_C@_03ICHNJLJF@key?$AA@  100e4f28     sqlite3.obj
 0002:00003f2c       ??_C@_03NPAJGOON@seq?$AA@  100e4f2c     sqlite3.obj
 0002:00003f30       ??_C@_06ODCMFGLL@unique?$AA@ 100e4f30     sqlite3.obj
 0002:00003f38       ??_C@_06NHCMNMEH@origin?$AA@ 100e4f38     sqlite3.obj
 0002:00003f40       ??_C@_07JHIHCBKH@partial?$AA@ 100e4f40     sqlite3.obj
 0002:00003f48       ??_C@_04DAMGJPCA@file?$AA@ 100e4f48     sqlite3.obj
 0002:00003f50       ??_C@_07JNFPDNEP@builtin?$AA@ 100e4f50     sqlite3.obj
 0002:00003f58       ??_C@_02EGCJHIOB@id?$AA@   100e4f58     sqlite3.obj
 0002:00003f5c       ??_C@_04HNEBHLOP@from?$AA@ 100e4f5c     sqlite3.obj
 0002:00003f64       ??_C@_02LBCDJBAJ@to?$AA@   100e4f64     sqlite3.obj
 0002:00003f68       ??_C@_09DFBGJPOA@on_update?$AA@ 100e4f68     sqlite3.obj
 0002:00003f74       ??_C@_09BILGEHCE@on_delete?$AA@ 100e4f74     sqlite3.obj
 0002:00003f80       ??_C@_05FNONLPDI@match?$AA@ 100e4f80     sqlite3.obj
 0002:00003f88       ??_C@_05KDMKNECD@rowid?$AA@ 100e4f88     sqlite3.obj
 0002:00003f90       ??_C@_06MLKDMCBD@parent?$AA@ 100e4f90     sqlite3.obj
 0002:00003f98       ??_C@_04IFBPKEAB@fkid?$AA@ 100e4f98     sqlite3.obj
 0002:00003fa0       ??_C@_04COIEGINH@busy?$AA@ 100e4fa0     sqlite3.obj
 0002:00003fa8       ??_C@_03MGHMBJCF@log?$AA@  100e4fa8     sqlite3.obj
 0002:00003fac       ??_C@_0N@NLAOCFOK@checkpointed?$AA@ 100e4fac     sqlite3.obj
 0002:00003fbc       ??_C@_07DDHNKDGP@timeout?$AA@ 100e4fbc     sqlite3.obj
 0002:00003fc4       ??_C@_08PBOCEOLL@database?$AA@ 100e4fc4     sqlite3.obj
 0002:00003fd0       ??_C@_06DJIHEMFI@status?$AA@ 100e4fd0     sqlite3.obj
 0002:00003fd8       ??_C@_0P@MIBGKNHF@application_id?$AA@ 100e4fd8     sqlite3.obj
 0002:00003fe8       ??_C@_0M@ENMLGDH@auto_vacuum?$AA@ 100e4fe8     sqlite3.obj
 0002:00003ff4       ??_C@_0BA@NMINPKHE@automatic_index?$AA@ 100e4ff4     sqlite3.obj
 0002:00004004       ??_C@_0N@ELBKLHHC@busy_timeout?$AA@ 100e5004     sqlite3.obj
 0002:00004014       ??_C@_0M@GAIOFEBI@cache_spill?$AA@ 100e5014     sqlite3.obj
 0002:00004020       ??_C@_0BE@LKBHCIHN@case_sensitive_like?$AA@ 100e5020     sqlite3.obj
 0002:00004034       ??_C@_0BA@ILJBCKLF@cell_size_check?$AA@ 100e5034     sqlite3.obj
 0002:00004044       ??_C@_0BF@IOJNJBPA@checkpoint_fullfsync?$AA@ 100e5044     sqlite3.obj
 0002:0000405c       ??_C@_0P@KOJNIGCH@collation_list?$AA@ 100e505c     sqlite3.obj
 0002:0000406c       ??_C@_0BA@CFJEIIDP@compile_options?$AA@ 100e506c     sqlite3.obj
 0002:0000407c       ??_C@_0O@PEBBJPHD@count_changes?$AA@ 100e507c     sqlite3.obj
 0002:0000408c       ??_C@_0BF@OGPCDMDP@data_store_directory?$AA@ 100e508c     sqlite3.obj
 0002:000040a4       ??_C@_0N@OFPBFGHH@data_version?$AA@ 100e50a4     sqlite3.obj
 0002:000040b4       ??_C@_0O@EBMNDACF@database_list?$AA@ 100e50b4     sqlite3.obj
 0002:000040c4       ??_C@_0BD@EMJOENCP@default_cache_size?$AA@ 100e50c4     sqlite3.obj
 0002:000040d8       ??_C@_0BD@DIGJFFIE@defer_foreign_keys?$AA@ 100e50d8     sqlite3.obj
 0002:000040ec       ??_C@_0BH@CMLDBHJP@empty_result_callbacks?$AA@ 100e50ec     sqlite3.obj
 0002:00004104       ??_C@_08MLPGAEIK@encoding?$AA@ 100e5104     sqlite3.obj
 0002:00004110       ??_C@_0BC@CIFGNOOA@foreign_key_check?$AA@ 100e5110     sqlite3.obj
 0002:00004124       ??_C@_0BB@KJMCGNAI@foreign_key_list?$AA@ 100e5124     sqlite3.obj
 0002:00004138       ??_C@_0N@CEEMEAMB@foreign_keys?$AA@ 100e5138     sqlite3.obj
 0002:00004148       ??_C@_0P@GDKICNML@freelist_count?$AA@ 100e5148     sqlite3.obj
 0002:00004158       ??_C@_0BC@CBBNFKC@full_column_names?$AA@ 100e5158     sqlite3.obj
 0002:0000416c       ??_C@_09MLJLLBEB@fullfsync?$AA@ 100e516c     sqlite3.obj
 0002:00004178       ??_C@_0BJ@KLIMENGM@ignore_check_constraints?$AA@ 100e5178     sqlite3.obj
 0002:00004194       ??_C@_0BD@IEMDKFHA@incremental_vacuum?$AA@ 100e5194     sqlite3.obj
 0002:000041a8       ??_C@_0L@CKPANNIC@index_info?$AA@ 100e51a8     sqlite3.obj
 0002:000041b4       ??_C@_0L@MMBMMAEK@index_list?$AA@ 100e51b4     sqlite3.obj
 0002:000041c0       ??_C@_0M@FBDGHLPH@index_xinfo?$AA@ 100e51c0     sqlite3.obj
 0002:000041cc       ??_C@_0BA@EDNFHOBJ@integrity_check?$AA@ 100e51cc     sqlite3.obj
 0002:000041dc       ??_C@_0N@IPLFJDHP@journal_mode?$AA@ 100e51dc     sqlite3.obj
 0002:000041ec       ??_C@_0BD@MCBLCGGI@journal_size_limit?$AA@ 100e51ec     sqlite3.obj
 0002:00004200       ??_C@_0BD@LEFOEGBK@legacy_file_format?$AA@ 100e5200     sqlite3.obj
 0002:00004214       ??_C@_0N@NOOMDJH@locking_mode?$AA@ 100e5214     sqlite3.obj
 0002:00004224       ??_C@_0P@FMLMLOHD@max_page_count?$AA@ 100e5224     sqlite3.obj
 0002:00004234       ??_C@_09CBABOEGE@mmap_size?$AA@ 100e5234     sqlite3.obj
 0002:00004240       ??_C@_08GHMAOHAP@optimize?$AA@ 100e5240     sqlite3.obj
 0002:0000424c       ??_C@_0L@OBBCDPFM@page_count?$AA@ 100e524c     sqlite3.obj
 0002:00004258       ??_C@_09OGOMKHMG@page_size?$AA@ 100e5258     sqlite3.obj
 0002:00004264       ??_C@_0L@LILGGAHH@query_only?$AA@ 100e5264     sqlite3.obj
 0002:00004270       ??_C@_0M@EDPCDMIO@quick_check?$AA@ 100e5270     sqlite3.obj
 0002:0000427c       ??_C@_0BB@KLHJNGLH@read_uncommitted?$AA@ 100e527c     sqlite3.obj
 0002:00004290       ??_C@_0BD@IAMNLMFM@recursive_triggers?$AA@ 100e5290     sqlite3.obj
 0002:000042a4       ??_C@_0BK@ECMFJINF@reverse_unordered_selects?$AA@ 100e52a4     sqlite3.obj
 0002:000042c0       ??_C@_0P@JGMMHBPP@schema_version?$AA@ 100e52c0     sqlite3.obj
 0002:000042d0       ??_C@_0O@CPOJHNIK@secure_delete?$AA@ 100e52d0     sqlite3.obj
 0002:000042e0       ??_C@_0BD@BFIEDLEP@short_column_names?$AA@ 100e52e0     sqlite3.obj
 0002:000042f4       ??_C@_0O@ILHLPNHH@shrink_memory?$AA@ 100e52f4     sqlite3.obj
 0002:00004304       ??_C@_0BA@HCOALODB@soft_heap_limit?$AA@ 100e5304     sqlite3.obj
 0002:00004314       ??_C@_0M@GKGFOGDE@synchronous?$AA@ 100e5314     sqlite3.obj
 0002:00004320       ??_C@_0L@NEMFJAGM@table_info?$AA@ 100e5320     sqlite3.obj
 0002:0000432c       ??_C@_0L@JEPCDDIC@temp_store?$AA@ 100e532c     sqlite3.obj
 0002:00004338       ??_C@_0BF@OPALIJKE@temp_store_directory?$AA@ 100e5338     sqlite3.obj
 0002:00004350       ??_C@_07NFPADACG@threads?$AA@ 100e5350     sqlite3.obj
 0002:00004358       ??_C@_0N@MPKCHLKL@user_version?$AA@ 100e5358     sqlite3.obj
 0002:00004368       ??_C@_0BD@JPABJEAI@wal_autocheckpoint?$AA@ 100e5368     sqlite3.obj
 0002:0000437c       ??_C@_0P@OLFGCBDE@wal_checkpoint?$AA@ 100e537c     sqlite3.obj
 0002:0000438c       ??_C@_0BA@OHBCLCAL@writable_schema?$AA@ 100e538c     sqlite3.obj
 0002:0000439c       ??_C@_06HLKELJGF@memory?$AA@ 100e539c     sqlite3.obj
 0002:000043a4       ??_C@_0BD@DANBGKDK@COMPILER?$DNmsvc?91911?$AA@ 100e53a4     sqlite3.obj
 0002:000043b8       ??_C@_0N@HEAGAILC@THREADSAFE?$DN1?$AA@ 100e53b8     sqlite3.obj
 0002:000043c8       ??_C@_06BJCFNGJP@second?$AA@ 100e53c8     sqlite3.obj
 0002:000043d0       ??_C@_06JGJIJFNK@minute?$AA@ 100e53d0     sqlite3.obj
 0002:000043d8       ??_C@_04LMOJGCPE@hour?$AA@ 100e53d8     sqlite3.obj
 0002:000043e0       ??_C@_03NNBHCDBP@day?$AA@  100e53e0     sqlite3.obj
 0002:000043e4       ??_C@_05MEBAADFH@month?$AA@ 100e53e4     sqlite3.obj
 0002:000043ec       ??_C@_04JFPLDHAO@year?$AA@ 100e53ec     sqlite3.obj
 0002:000043f4       ??_C@_06FOBLBEIN@delete?$AA@ 100e53f4     sqlite3.obj
 0002:000043fc       ??_C@_07EMFBDGOD@persist?$AA@ 100e53fc     sqlite3.obj
 0002:00004404       ??_C@_03MCADLMAF@off?$AA@  100e5404     sqlite3.obj
 0002:00004408       ??_C@_08MABILMFG@truncate?$AA@ 100e5408     sqlite3.obj
 0002:00004414       ??_C@_03KIAODNHK@wal?$AA@  100e5414     sqlite3.obj
 0002:00004418       ??_C@_04CIMGMMMG@text?$AA@ 100e5418     sqlite3.obj
 0002:00004420       ??_C@_04LPJPOBEM@blob?$AA@ 100e5420     sqlite3.obj
 0002:00004428       ??_C@_05JELAHNDG@?5TEXT?$AA@ 100e5428     sqlite3.obj
 0002:00004430       ??_C@_04KMHHNFPL@?5NUM?$AA@ 100e5430     sqlite3.obj
 0002:00004438       ??_C@_04LKNDAIML@?5INT?$AA@ 100e5438     sqlite3.obj
 0002:00004440       ??_C@_05IKBMIIDA@?5REAL?$AA@ 100e5440     sqlite3.obj
 0002:00004446       ??_C@_00CNPNBAHC@?$AA@     100e5446     sqlite3.obj
 0002:00004448       ??_C@_0BE@JHJAJICL@sqlite_rename_table?$AA@ 100e5448     sqlite3.obj
 0002:0000445c       ??_C@_0BG@DKJJOMDK@sqlite_rename_trigger?$AA@ 100e545c     sqlite3.obj
 0002:00004474       ??_C@_0BF@CIKMGNA@sqlite_rename_parent?$AA@ 100e5474     sqlite3.obj
 0002:0000448c       ??_C@_09BPOICPEH@julianday?$AA@ 100e548c     sqlite3.obj
 0002:00004498       ??_C@_04JNIHBGGH@date?$AA@ 100e5498     sqlite3.obj
 0002:000044a0       ??_C@_04CLCEDBPF@time?$AA@ 100e54a0     sqlite3.obj
 0002:000044a8       ??_C@_08FGNPMIBK@datetime?$AA@ 100e54a8     sqlite3.obj
 0002:000044b4       ??_C@_08EPGBJPHJ@strftime?$AA@ 100e54b4     sqlite3.obj
 0002:000044c0       ??_C@_0N@IPDKEGPB@current_time?$AA@ 100e54c0     sqlite3.obj
 0002:000044d0       ??_C@_0BC@DDICBCEN@current_timestamp?$AA@ 100e54d0     sqlite3.obj
 0002:000044e4       ??_C@_0N@DJJJGBGD@current_date?$AA@ 100e54e4     sqlite3.obj
 0002:000044f4       ??_C@_05LCLENNFI@table?$AA@ 100e54f4     sqlite3.obj
 0002:000044fc       ??_C@_08BBHBEGAC@NOT?5NULL?$AA@ 100e54fc     sqlite3.obj
 0002:00004508       ??_C@_06OHAHIIGJ@UNIQUE?$AA@ 100e5508     sqlite3.obj
 0002:00004510       ??_C@_05GCOJDIEO@CHECK?$AA@ 100e5510     sqlite3.obj
 0002:00004518       ??_C@_0M@CFPAHGLH@FOREIGN?5KEY?$AA@ 100e5518     sqlite3.obj
 0002:00004524       ??_C@_0N@FKKFHCIB@not?5an?5error?$AA@ 100e5524     sqlite3.obj
 0002:00004534       ??_C@_0BA@OFEMPNLC@SQL?5logic?5error?$AA@ 100e5534     sqlite3.obj
 0002:00004544       ??_C@_0BJ@OFHFLJKH@access?5permission?5denied?$AA@ 100e5544     sqlite3.obj
 0002:00004560       ??_C@_0O@LBOFKECN@query?5aborted?$AA@ 100e5560     sqlite3.obj
 0002:00004570       ??_C@_0BD@DAAAMHOI@database?5is?5locked?$AA@ 100e5570     sqlite3.obj
 0002:00004584       ??_C@_0BJ@DNPONIEG@database?5table?5is?5locked?$AA@ 100e5584     sqlite3.obj
 0002:000045a0       ??_C@_0CF@JBLJEMGC@attempt?5to?5write?5a?5readonly?5data@ 100e55a0     sqlite3.obj
 0002:000045c8       ??_C@_0M@EGEKIIMP@interrupted?$AA@ 100e55c8     sqlite3.obj
 0002:000045d4       ??_C@_06BDGKJDBI@regexp?$AA@ 100e55d4     sqlite3.obj
 0002:000045dc       ??_C@_0P@FOPPKBJH@disk?5I?1O?5error?$AA@ 100e55dc     sqlite3.obj
 0002:000045ec       ??_C@_0CB@ONDDCPGK@database?5disk?5image?5is?5malformed@ 100e55ec     sqlite3.obj
 0002:00004610       ??_C@_0BC@BDMDPLFD@unknown?5operation?$AA@ 100e5610     sqlite3.obj
 0002:00004624       ??_C@_0BJ@GDNBBAEL@database?5or?5disk?5is?5full?$AA@ 100e5624     sqlite3.obj
 0002:00004640       ??_C@_0BN@JLONMGIA@unable?5to?5open?5database?5file?$AA@ 100e5640     sqlite3.obj
 0002:00004660       ??_C@_0BB@MCPOJJBB@locking?5protocol?$AA@ 100e5660     sqlite3.obj
 0002:00004674       ??_C@_0BC@IFKPGMGK@constraint?5failed?$AA@ 100e5674     sqlite3.obj
 0002:00004688       ??_C@_0BC@FILINGOB@datatype?5mismatch?$AA@ 100e5688     sqlite3.obj
 0002:0000469c       ??_C@_0CC@NEIAIHCA@bad?5parameter?5or?5other?5API?5misus@ 100e569c     sqlite3.obj
 0002:000046c0       ??_C@_0BF@LMCDAPDN@authorization?5denied?$AA@ 100e56c0     sqlite3.obj
 0002:000046d8       ??_C@_0BK@EKHAENGG@column?5index?5out?5of?5range?$AA@ 100e56d8     sqlite3.obj
 0002:000046f4       ??_C@_0BH@ODJKAGAJ@file?5is?5not?5a?5database?$AA@ 100e56f4     sqlite3.obj
 0002:0000470c       ??_C@_0BH@BEFJIDGM@string?5or?5blob?5too?5big?$AA@ 100e570c     sqlite3.obj
 0002:00004724       ??_C@_0N@EIGEIEIJ@sqlite_stat1?$AA@ 100e5724     sqlite3.obj
 0002:00004734       ??_C@_0N@BCOBMINH@tbl?0idx?0stat?$AA@ 100e5734     sqlite3.obj
 0002:00004744       ??_C@_0N@HKFCOGAL@sqlite_stat3?$AA@ 100e5744     sqlite3.obj
 0002:00004754       ??_C@_0N@DFBDHAMM@sqlite_stat4?$AA@ 100e5754     sqlite3.obj
 0002:00004764       ??_C@_04OOMJJNCF@UTF8?$AA@ 100e5764     sqlite3.obj
 0002:0000476c       ??_C@_05EGJIMALK@UTF?98?$AA@ 100e576c     sqlite3.obj
 0002:00004774       ??_C@_08HMPANPBC@UTF?916le?$AA@ 100e5774     sqlite3.obj
 0002:00004780       ??_C@_08HGGOPCBI@UTF?916be?$AA@ 100e5780     sqlite3.obj
 0002:0000478c       ??_C@_07JJMGGCAM@UTF16le?$AA@ 100e578c     sqlite3.obj
 0002:00004794       ??_C@_07JDFIEPAG@UTF16be?$AA@ 100e5794     sqlite3.obj
 0002:0000479c       ??_C@_06KNDPGIKI@UTF?916?$AA@ 100e579c     sqlite3.obj
 0002:000047a4       ??_C@_05MNCHLHCA@UTF16?$AA@ 100e57a4     sqlite3.obj
 0002:000047ac       ??_C@_09BGHEAMKF@stat_init?$AA@ 100e57ac     sqlite3.obj
 0002:000047b8       ??_C@_09LFKFCDD@stat_push?$AA@ 100e57b8     sqlite3.obj
 0002:000047c4       ??_C@_08FMENKBDE@stat_get?$AA@ 100e57c4     sqlite3.obj
 0002:000047d0       ??_C@_0BM@FKBOKANJ@database?5schema?5has?5changed?$AA@ 100e57d0     sqlite3.obj
 0002:000047ec       ??_C@_03DAKNAIGI@idx?$AA@  100e57ec     sqlite3.obj
 0002:000047f0       ??_C@_03LIPNCMMN@tbl?$AA@  100e57f0     sqlite3.obj
 0002:000047f4       ??_C@_01GBGANLPD@0?$AA@    100e57f4     sqlite3.obj
 0002:000047f8       ??_C@_01HIHLOKLC@1?$AA@    100e57f8     sqlite3.obj
 0002:000047fc       ??_C@_01CLKCMJKC@?5?$AA@   100e57fc     sqlite3.obj
 0002:00004800       ??_C@_06HBFNPGIC@shared?$AA@ 100e5800     sqlite3.obj
 0002:00004808       ??_C@_07NMPLPEPB@private?$AA@ 100e5808     sqlite3.obj
 0002:00004810       ??_C@_02LFKOONLL@ro?$AA@   100e5810     sqlite3.obj
 0002:00004814       ??_C@_02DHLFHFOC@rw?$AA@   100e5814     sqlite3.obj
 0002:00004818       ??_C@_03ODAOEF@rwc?$AA@    100e5818     sqlite3.obj
 0002:0000481c       ??_C@_0O@BNNCBLEN@out?5of?5memory?$AA@ 100e581c     sqlite3.obj
 0002:0000482c       ??_C@_04HPDJJBAE@like?$AA@ 100e582c     sqlite3.obj
 0002:00004834       ??_C@_04HHHPGODM@glob?$AA@ 100e5834     sqlite3.obj
 0002:0000483c       ??_C@_04HLBMEOMD@addr?$AA@ 100e583c     sqlite3.obj
 0002:00004844       ??_C@_06POMMAHJK@opcode?$AA@ 100e5844     sqlite3.obj
 0002:0000484c       ??_C@_02JCBCEJAP@p1?$AA@   100e584c     sqlite3.obj
 0002:00004850       ??_C@_02LJDPBKMM@p2?$AA@   100e5850     sqlite3.obj
 0002:00004854       ??_C@_02KACECLIN@p3?$AA@   100e5854     sqlite3.obj
 0002:00004858       ??_C@_0O@PDAEIIFA@sqlite_detach?$AA@ 100e5858     sqlite3.obj
 0002:00004868       ??_C@_02OPGFLNEK@p4?$AA@   100e5868     sqlite3.obj
 0002:0000486c       ??_C@_02PGHOIMAL@p5?$AA@   100e586c     sqlite3.obj
 0002:00004870       ??_C@_07GJGNEJFD@comment?$AA@ 100e5870     sqlite3.obj
 0002:00004878       ??_C@_08CAKEGGLM@selectid?$AA@ 100e5878     sqlite3.obj
 0002:00004884       ??_C@_05NDNMCCJH@order?$AA@ 100e5884     sqlite3.obj
 0002:0000488c       ??_C@_06EENFNEPD@detail?$AA@ 100e588c     sqlite3.obj
 0002:00004894       ??_C@_0O@GJLGHGMJ@sqlite_attach?$AA@ 100e5894     sqlite3.obj
 0002:000048a4       ??_C@_04MLLLIHIP@null?$AA@ 100e58a4     sqlite3.obj
 0002:000048ac       ??_C@_04DGGKDJMA@real?$AA@ 100e58ac     sqlite3.obj
 0002:000048b4       ??_C@_07LKHFMGFB@integer?$AA@ 100e58b4     sqlite3.obj
 0002:000048bc       ??_C@_05ILMMJGEC@BEGIN?$AA@ 100e58bc     sqlite3.obj
 0002:000048c4       ??_C@_08COBEBGNM@ROLLBACK?$AA@ 100e58c4     sqlite3.obj
 0002:000048d0       ??_C@_0P@BJKPICNH@load_extension?$AA@ 100e58d0     sqlite3.obj
 0002:000048e0       ??_C@_0BK@NPIMPNGH@sqlite_compileoption_used?$AA@ 100e58e0     sqlite3.obj
 0002:000048fc       ??_C@_07LDDIIHCM@RELEASE?$AA@ 100e58fc     sqlite3.obj
 0002:00004904       ??_C@_0BJ@BHKPGCCL@sqlite_compileoption_get?$AA@ 100e5904     sqlite3.obj
 0002:00004920       ??_C@_08FIGEBGNH@unlikely?$AA@ 100e5920     sqlite3.obj
 0002:0000492c       ??_C@_0L@EOIJFFJE@likelihood?$AA@ 100e592c     sqlite3.obj
 0002:00004938       ??_C@_06FMFEOJBE@likely?$AA@ 100e5938     sqlite3.obj
 0002:00004940       ??_C@_05GLDKFKCA@ltrim?$AA@ 100e5940     sqlite3.obj
 0002:00004948       ??_C@_05FCOGDJML@rtrim?$AA@ 100e5948     sqlite3.obj
 0002:00004950       ??_C@_04GDOMMDLP@trim?$AA@ 100e5950     sqlite3.obj
 0002:00004958       ??_C@_03KLIPLJLL@min?$AA@  100e5958     sqlite3.obj
 0002:0000495c       ??_C@_03LJAEFNNE@max?$AA@  100e595c     sqlite3.obj
 0002:00004960       ??_C@_06NDJPCPHC@typeof?$AA@ 100e5960     sqlite3.obj
 0002:00004968       ??_C@_06IJDLPEM@length?$AA@ 100e5968     sqlite3.obj
 0002:00004970       ??_C@_05HALPBNGI@instr?$AA@ 100e5970     sqlite3.obj
 0002:00004978       ??_C@_06OHJFMFMB@printf?$AA@ 100e5978     sqlite3.obj
 0002:00004980       ??_C@_07GAJMMAJO@unicode?$AA@ 100e5980     sqlite3.obj
 0002:00004988       ??_C@_04ENMBGAPA@char?$AA@ 100e5988     sqlite3.obj
 0002:00004990       ??_C@_03BCGAIFPO@abs?$AA@  100e5990     sqlite3.obj
 0002:00004994       ??_C@_05MIMAKCN@round?$AA@ 100e5994     sqlite3.obj
 0002:0000499c       ??_C@_05NECKJAMC@upper?$AA@ 100e599c     sqlite3.obj
 0002:000049a4       ??_C@_05IPJEPLHL@lower?$AA@ 100e59a4     sqlite3.obj
 0002:000049ac       ??_C@_03IJNDAFDK@hex?$AA@  100e59ac     sqlite3.obj
 0002:000049b0       ??_C@_06FAHGEKJN@ifnull?$AA@ 100e59b0     sqlite3.obj
 0002:000049b8       ??_C@_06NLFCANPD@random?$AA@ 100e59b8     sqlite3.obj
 0002:000049c0       ??_C@_0L@IDMFPHDO@randomblob?$AA@ 100e59c0     sqlite3.obj
 0002:000049cc       ??_C@_06LLGGGFDC@nullif?$AA@ 100e59cc     sqlite3.obj
 0002:000049d4       ??_C@_0P@IPDPEBN@sqlite_version?$AA@ 100e59d4     sqlite3.obj
 0002:000049e4       ??_C@_0BB@HPCCOLJC@sqlite_source_id?$AA@ 100e59e4     sqlite3.obj
 0002:000049f8       ??_C@_0L@HNFKFGGK@sqlite_log?$AA@ 100e59f8     sqlite3.obj
 0002:00004a04       ??_C@_05JHEGFHLM@quote?$AA@ 100e5a04     sqlite3.obj
 0002:00004a0c       ??_C@_0BC@EKKKCJJE@last_insert_rowid?$AA@ 100e5a0c     sqlite3.obj
 0002:00004a20       ??_C@_07HFLFHMNL@changes?$AA@ 100e5a20     sqlite3.obj
 0002:00004a28       ??_C@_0O@MLEKHAGK@total_changes?$AA@ 100e5a28     sqlite3.obj
 0002:00004a38       ??_C@_07CLEHDIEJ@replace?$AA@ 100e5a38     sqlite3.obj
 0002:00004a40       ??_C@_08OAGHJJOG@zeroblob?$AA@ 100e5a40     sqlite3.obj
 0002:00004a4c       ??_C@_06DAHFIGOC@substr?$AA@ 100e5a4c     sqlite3.obj
 0002:00004a54       ??_C@_03CFFIJAMA@sum?$AA@  100e5a54     sqlite3.obj
 0002:00004a58       ??_C@_05KBOMEDGA@total?$AA@ 100e5a58     sqlite3.obj
 0002:00004a60       ??_C@_03CHOBFJAH@avg?$AA@  100e5a60     sqlite3.obj
 0002:00004a64       ??_C@_05IOMEMJEC@count?$AA@ 100e5a64     sqlite3.obj
 0002:00004a6c       ??_C@_0N@KKLIBDFO@group_concat?$AA@ 100e5a6c     sqlite3.obj
 0002:00004a7c       ??_C@_08FNGHHBID@coalesce?$AA@ 100e5a7c     sqlite3.obj
 0002:00004a88       ??_C@_09OJILMLHM@Savepoint?$AA@ 100e5a88     sqlite3.obj
 0002:00004a94       ??_C@_0L@BPKAOEDK@AutoCommit?$AA@ 100e5a94     sqlite3.obj
 0002:00004aa0       ??_C@_0M@MEGKBOMN@Transaction?$AA@ 100e5aa0     sqlite3.obj
 0002:00004aac       ??_C@_0L@MGGJHFHJ@SorterNext?$AA@ 100e5aac     sqlite3.obj
 0002:00004ab8       ??_C@_0L@GJHBGGGF@PrevIfOpen?$AA@ 100e5ab8     sqlite3.obj
 0002:00004ac4       ??_C@_0L@EPCJLBGC@NextIfOpen?$AA@ 100e5ac4     sqlite3.obj
 0002:00004ad0       ??_C@_04PHIBHIIF@Prev?$AA@ 100e5ad0     sqlite3.obj
 0002:00004ad8       ??_C@_04MDFHGMOB@Next?$AA@ 100e5ad8     sqlite3.obj
 0002:00004ae0       ??_C@_0L@IHLHABNJ@Checkpoint?$AA@ 100e5ae0     sqlite3.obj
 0002:00004aec       ??_C@_0M@FAIDBMDK@JournalMode?$AA@ 100e5aec     sqlite3.obj
 0002:00004af8       ??_C@_06OBCEMCJB@Vacuum?$AA@ 100e5af8     sqlite3.obj
 0002:00004b00       ??_C@_07OKDOHLDO@VFilter?$AA@ 100e5b00     sqlite3.obj
 0002:00004b08       ??_C@_07NHABAPID@VUpdate?$AA@ 100e5b08     sqlite3.obj
 0002:00004b10       ??_C@_04BNGNMAK@Goto?$AA@  100e5b10     sqlite3.obj
 0002:00004b18       ??_C@_05DLHJCIPI@Gosub?$AA@ 100e5b18     sqlite3.obj
 0002:00004b20       ??_C@_0O@OADCGMIE@InitCoroutine?$AA@ 100e5b20     sqlite3.obj
 0002:00004b30       ??_C@_05LNDKIJIJ@Yield?$AA@ 100e5b30     sqlite3.obj
 0002:00004b38       ??_C@_09LLJOBHN@MustBeInt?$AA@ 100e5b38     sqlite3.obj
 0002:00004b44       ??_C@_04BIEPDJCB@Jump?$AA@ 100e5b44     sqlite3.obj
 0002:00004b4c       ??_C@_03KNKIDPAC@Not?$AA@  100e5b4c     sqlite3.obj
 0002:00004b50       ??_C@_04GKJMKNNB@Once?$AA@ 100e5b50     sqlite3.obj
 0002:00004b58       ??_C@_02EMFCFMID@If?$AA@   100e5b58     sqlite3.obj
 0002:00004b5c       ??_C@_05DALJIPE@IfNot?$AA@ 100e5b5c     sqlite3.obj
 0002:00004b64       ??_C@_09LCOBJNPG@IfNullRow?$AA@ 100e5b64     sqlite3.obj
 0002:00004b70       ??_C@_06DCDFCJIJ@SeekLT?$AA@ 100e5b70     sqlite3.obj
 0002:00004b78       ??_C@_06GBOMAKJJ@SeekLE?$AA@ 100e5b78     sqlite3.obj
 0002:00004b80       ??_C@_06GNLJOFHI@SeekGE?$AA@ 100e5b80     sqlite3.obj
 0002:00004b88       ??_C@_06DOGAMGGI@SeekGT?$AA@ 100e5b88     sqlite3.obj
 0002:00004b90       ??_C@_0L@MAHEJOGD@NoConflict?$AA@ 100e5b90     sqlite3.obj
 0002:00004b9c       ??_C@_08MDBAGECB@NotFound?$AA@ 100e5b9c     sqlite3.obj
 0002:00004ba8       ??_C@_05JDGHEPJG@Found?$AA@ 100e5ba8     sqlite3.obj
 0002:00004bb0       ??_C@_09KDEDFHKA@SeekRowid?$AA@ 100e5bb0     sqlite3.obj
 0002:00004bbc       ??_C@_09HMMGFEAA@NotExists?$AA@ 100e5bbc     sqlite3.obj
 0002:00004bc8       ??_C@_04DKKAEHDH@Last?$AA@ 100e5bc8     sqlite3.obj
 0002:00004bd0       ??_C@_09NNOEIGHK@IfSmaller?$AA@ 100e5bd0     sqlite3.obj
 0002:00004bdc       ??_C@_0L@DMDDEDPI@SorterSort?$AA@ 100e5bdc     sqlite3.obj
 0002:00004be8       ??_C@_04DJANFKGA@Sort?$AA@ 100e5be8     sqlite3.obj
 0002:00004bf0       ??_C@_06MAOEIKCJ@Rewind?$AA@ 100e5bf0     sqlite3.obj
 0002:00004bf8       ??_C@_05FANNJDOC@IdxLE?$AA@ 100e5bf8     sqlite3.obj
 0002:00004c00       ??_C@_05PFBFPBD@IdxGT?$AA@ 100e5c00     sqlite3.obj
 0002:00004c08       ??_C@_05DAELAPC@IdxLT?$AA@ 100e5c08     sqlite3.obj
 0002:00004c10       ??_C@_05FMIIHMAD@IdxGE?$AA@ 100e5c10     sqlite3.obj
 0002:00004c18       ??_C@_0L@JELPJHIJ@RowSetRead?$AA@ 100e5c18     sqlite3.obj
 0002:00004c24       ??_C@_02GGHBPHGE@Or?$AA@   100e5c24     sqlite3.obj
 0002:00004c28       ??_C@_03LOMLFHDC@And?$AA@  100e5c28     sqlite3.obj
 0002:00004c2c       ??_C@_0L@EOJPAHGG@RowSetTest?$AA@ 100e5c2c     sqlite3.obj
 0002:00004c38       ??_C@_07DOMMNIGK@Program?$AA@ 100e5c38     sqlite3.obj
 0002:00004c40       ??_C@_08PNIKOKNB@FkIfZero?$AA@ 100e5c40     sqlite3.obj
 0002:00004c4c       ??_C@_05PMIMCOJP@IfPos?$AA@ 100e5c4c     sqlite3.obj
 0002:00004c54       ??_C@_09ELLCPLME@IfNotZero?$AA@ 100e5c54     sqlite3.obj
 0002:00004c60       ??_C@_06NBBMPCN@IsNull?$AA@ 100e5c60     sqlite3.obj
 0002:00004c68       ??_C@_07HICACDPL@NotNull?$AA@ 100e5c68     sqlite3.obj
 0002:00004c70       ??_C@_02GCDABJMF@Ne?$AA@   100e5c70     sqlite3.obj
 0002:00004c74       ??_C@_02EAMLCBHB@Eq?$AA@   100e5c74     sqlite3.obj
 0002:00004c78       ??_C@_02DODIABFK@Gt?$AA@   100e5c78     sqlite3.obj
 0002:00004c7c       ??_C@_02GBLEMNKL@Le?$AA@   100e5c7c     sqlite3.obj
 0002:00004c80       ??_C@_02DCGNOOLL@Lt?$AA@   100e5c80     sqlite3.obj
 0002:00004c84       ??_C@_02GNOBCCEK@Ge?$AA@   100e5c84     sqlite3.obj
 0002:00004c88       ??_C@_09KPPIGHDL@ElseNotEq?$AA@ 100e5c88     sqlite3.obj
 0002:00004c94       ??_C@_0N@IDMANBEA@DecrJumpZero?$AA@ 100e5c94     sqlite3.obj
 0002:00004ca4       ??_C@_0L@POHPJECG@IncrVacuum?$AA@ 100e5ca4     sqlite3.obj
 0002:00004cb0       ??_C@_05GOGANBLF@VNext?$AA@ 100e5cb0     sqlite3.obj
 0002:00004cb8       ??_C@_04LLJCPOLH@Init?$AA@ 100e5cb8     sqlite3.obj
 0002:00004cc0       ??_C@_06HCFIKKEA@Return?$AA@ 100e5cc0     sqlite3.obj
 0002:00004cc8       ??_C@_0N@FPMLICGC@EndCoroutine?$AA@ 100e5cc8     sqlite3.obj
 0002:00004cd8       ??_C@_0L@GIACEIKJ@HaltIfNull?$AA@ 100e5cd8     sqlite3.obj
 0002:00004ce4       ??_C@_04NIFKAFLK@Halt?$AA@ 100e5ce4     sqlite3.obj
 0002:00004cec       ??_C@_07EDADKEAH@Integer?$AA@ 100e5cec     sqlite3.obj
 0002:00004cf4       ??_C@_05DPPJJBMK@Int64?$AA@ 100e5cf4     sqlite3.obj
 0002:00004cfc       ??_C@_06ENNEIMBA@String?$AA@ 100e5cfc     sqlite3.obj
 0002:00004d04       ??_C@_04KHKKIIL@Null?$AA@  100e5d04     sqlite3.obj
 0002:00004d0c       ??_C@_08BAJALCJE@SoftNull?$AA@ 100e5d0c     sqlite3.obj
 0002:00004d18       ??_C@_04HOFOMOEI@Blob?$AA@ 100e5d18     sqlite3.obj
 0002:00004d20       ??_C@_08DMMJCAML@Variable?$AA@ 100e5d20     sqlite3.obj
 0002:00004d2c       ??_C@_04LCANPIEP@Move?$AA@ 100e5d2c     sqlite3.obj
 0002:00004d34       ??_C@_04OPMHGHMB@Copy?$AA@ 100e5d34     sqlite3.obj
 0002:00004d3c       ??_C@_05BCDNELCG@SCopy?$AA@ 100e5d3c     sqlite3.obj
 0002:00004d44       ??_C@_07DBCPOOBM@IntCopy?$AA@ 100e5d44     sqlite3.obj
 0002:00004d4c       ??_C@_09BKHKEBMD@ResultRow?$AA@ 100e5d4c     sqlite3.obj
 0002:00004d58       ??_C@_07MCEFGNMJ@CollSeq?$AA@ 100e5d58     sqlite3.obj
 0002:00004d60       ??_C@_06JHIJIKD@AddImm?$AA@ 100e5d60     sqlite3.obj
 0002:00004d68       ??_C@_0N@KGPEGHPK@RealAffinity?$AA@ 100e5d68     sqlite3.obj
 0002:00004d78       ??_C@_04LIPANAOG@Cast?$AA@ 100e5d78     sqlite3.obj
 0002:00004d80       ??_C@_0M@LPEOJDB@Permutation?$AA@ 100e5d80     sqlite3.obj
 0002:00004d8c       ??_C@_06PCNOCLJN@BitAnd?$AA@ 100e5d8c     sqlite3.obj
 0002:00004d94       ??_C@_05BKBNAGEF@BitOr?$AA@ 100e5d94     sqlite3.obj
 0002:00004d9c       ??_C@_09IIGOLNPP@ShiftLeft?$AA@ 100e5d9c     sqlite3.obj
 0002:00004da8       ??_C@_0L@DHHFIOFJ@ShiftRight?$AA@ 100e5da8     sqlite3.obj
 0002:00004db4       ??_C@_03LDFMNCOE@Add?$AA@  100e5db4     sqlite3.obj
 0002:00004db8       ??_C@_08DLEJPBEP@Subtract?$AA@ 100e5db8     sqlite3.obj
 0002:00004dc4       ??_C@_08EOBDLMOI@Multiply?$AA@ 100e5dc4     sqlite3.obj
 0002:00004dd0       ??_C@_06JKMEHOIB@Divide?$AA@ 100e5dd0     sqlite3.obj
 0002:00004dd8       ??_C@_09DPOHBCHJ@Remainder?$AA@ 100e5dd8     sqlite3.obj
 0002:00004de4       ??_C@_06ODAFHOMO@Concat?$AA@ 100e5de4     sqlite3.obj
 0002:00004dec       ??_C@_07MBOMJGGF@Compare?$AA@ 100e5dec     sqlite3.obj
 0002:00004df4       ??_C@_06OBLNEDKN@BitNot?$AA@ 100e5df4     sqlite3.obj
 0002:00004dfc       ??_C@_06FFIACGFC@Column?$AA@ 100e5dfc     sqlite3.obj
 0002:00004e04       ??_C@_07KGFHIBD@String8?$AA@ 100e5e04     sqlite3.obj
 0002:00004e0c       ??_C@_08MMCPABPC@Affinity?$AA@ 100e5e0c     sqlite3.obj
 0002:00004e18       ??_C@_0L@PGPMFKDB@MakeRecord?$AA@ 100e5e18     sqlite3.obj
 0002:00004e24       ??_C@_05IJGIMMHE@Count?$AA@ 100e5e24     sqlite3.obj
 0002:00004e2c       ??_C@_0L@LIFFPDNM@ReadCookie?$AA@ 100e5e2c     sqlite3.obj
 0002:00004e38       ??_C@_09FEDANMPL@SetCookie?$AA@ 100e5e38     sqlite3.obj
 0002:00004e44       ??_C@_09GCNMLHFL@ReopenIdx?$AA@ 100e5e44     sqlite3.obj
 0002:00004e50       ??_C@_08FJFCCPFB@OpenRead?$AA@ 100e5e50     sqlite3.obj
 0002:00004e5c       ??_C@_09FPCAPNBB@OpenWrite?$AA@ 100e5e5c     sqlite3.obj
 0002:00004e68       ??_C@_07JBEAGLBO@OpenDup?$AA@ 100e5e68     sqlite3.obj
 0002:00004e70       ??_C@_0O@LLCBFLCA@OpenAutoindex?$AA@ 100e5e70     sqlite3.obj
 0002:00004e80       ??_C@_0O@MHKNMBPC@OpenEphemeral?$AA@ 100e5e80     sqlite3.obj
 0002:00004e90       ??_C@_0L@DIBNDBJM@SorterOpen?$AA@ 100e5e90     sqlite3.obj
 0002:00004e9c       ??_C@_0N@DGILIAAH@SequenceTest?$AA@ 100e5e9c     sqlite3.obj
 0002:00004eac       ??_C@_0L@PKPPHKBP@OpenPseudo?$AA@ 100e5eac     sqlite3.obj
 0002:00004eb8       ??_C@_05LGELBCGM@Close?$AA@ 100e5eb8     sqlite3.obj
 0002:00004ec0       ??_C@_0M@KKDBEJBG@ColumnsUsed?$AA@ 100e5ec0     sqlite3.obj
 0002:00004ecc       ??_C@_08DOCONEG@Sequence?$AA@ 100e5ecc     sqlite3.obj
 0002:00004ed8       ??_C@_08FEDJPMPH@NewRowid?$AA@ 100e5ed8     sqlite3.obj
 0002:00004ee4       ??_C@_06CPFCODOD@Insert?$AA@ 100e5ee4     sqlite3.obj
 0002:00004eec       ??_C@_09LEJELDEO@InsertInt?$AA@ 100e5eec     sqlite3.obj
 0002:00004ef8       ??_C@_06JBKGCNBB@Delete?$AA@ 100e5ef8     sqlite3.obj
 0002:00004f00       ??_C@_0L@NDDNCBN@ResetCount?$AA@ 100e5f00     sqlite3.obj
 0002:00004f0c       ??_C@_0O@GIINMLJL@SorterCompare?$AA@ 100e5f0c     sqlite3.obj
 0002:00004f1c       ??_C@_0L@DNBEOFPP@SorterData?$AA@ 100e5f1c     sqlite3.obj
 0002:00004f28       ??_C@_07OHPACBNN@RowData?$AA@ 100e5f28     sqlite3.obj
 0002:00004f30       ??_C@_05KEGGNBBF@Rowid?$AA@ 100e5f30     sqlite3.obj
 0002:00004f38       ??_C@_07HJJPPOKN@NullRow?$AA@ 100e5f38     sqlite3.obj
 0002:00004f40       ??_C@_07MBDDIPMC@SeekEnd?$AA@ 100e5f40     sqlite3.obj
 0002:00004f48       ??_C@_0N@PCKBEOAP@SorterInsert?$AA@ 100e5f48     sqlite3.obj
 0002:00004f58       ??_C@_09ENCBCCAM@IdxInsert?$AA@ 100e5f58     sqlite3.obj
 0002:00004f64       ??_C@_09PDNFOMPO@IdxDelete?$AA@ 100e5f64     sqlite3.obj
 0002:00004f70       ??_C@_0N@HDHEJACK@DeferredSeek?$AA@ 100e5f70     sqlite3.obj
 0002:00004f80       ??_C@_08KLKOBEJ@IdxRowid?$AA@ 100e5f80     sqlite3.obj
 0002:00004f8c       ??_C@_07BDCAJABG@Destroy?$AA@ 100e5f8c     sqlite3.obj
 0002:00004f94       ??_C@_04PHKLBGME@Real?$AA@ 100e5f94     sqlite3.obj
 0002:00004f9c       ??_C@_05MDNHABIA@Clear?$AA@ 100e5f9c     sqlite3.obj
 0002:00004fa4       ??_C@_0M@IJLMHKBN@ResetSorter?$AA@ 100e5fa4     sqlite3.obj
 0002:00004fb0       ??_C@_0M@DBLJACAP@CreateBtree?$AA@ 100e5fb0     sqlite3.obj
 0002:00004fbc       ??_C@_07EKAJKOOI@SqlExec?$AA@ 100e5fbc     sqlite3.obj
 0002:00004fc4       ??_C@_0M@IPJMJJPI@ParseSchema?$AA@ 100e5fc4     sqlite3.obj
 0002:00004fd0       ??_C@_0N@FEAPPFEN@LoadAnalysis?$AA@ 100e5fd0     sqlite3.obj
 0002:00004fe0       ??_C@_09ELPHDPAO@DropTable?$AA@ 100e5fe0     sqlite3.obj
 0002:00004fec       ??_C@_09KDDJLBNF@DropIndex?$AA@ 100e5fec     sqlite3.obj
 0002:00004ff8       ??_C@_0M@JKNINGPB@DropTrigger?$AA@ 100e5ff8     sqlite3.obj
 0002:00005004       ??_C@_0M@KCIGPGBI@IntegrityCk?$AA@ 100e6004     sqlite3.obj
 0002:00005010       ??_C@_09KPGKMOML@RowSetAdd?$AA@ 100e6010     sqlite3.obj
 0002:0000501c       ??_C@_05LOJBNELM@Param?$AA@ 100e601c     sqlite3.obj
 0002:00005024       ??_C@_09EBKOHGDP@FkCounter?$AA@ 100e6024     sqlite3.obj
 0002:00005030       ??_C@_06LJFJMLCE@MemMax?$AA@ 100e6030     sqlite3.obj
 0002:00005038       ??_C@_0M@MCOGCAAC@OffsetLimit?$AA@ 100e6038     sqlite3.obj
 0002:00005044       ??_C@_08EFCHECBI@AggStep0?$AA@ 100e6044     sqlite3.obj
 0002:00005050       ??_C@_07NOMHFNIB@AggStep?$AA@ 100e6050     sqlite3.obj
 0002:00005058       ??_C@_08FCKHNOBN@AggFinal?$AA@ 100e6058     sqlite3.obj
 0002:00005064       ??_C@_06GDNCIOGJ@Expire?$AA@ 100e6064     sqlite3.obj
 0002:0000506c       ??_C@_09FDKNKOOK@TableLock?$AA@ 100e606c     sqlite3.obj
 0002:00005078       ??_C@_06CLFNNGGK@VBegin?$AA@ 100e6078     sqlite3.obj
 0002:00005080       ??_C@_07KDKHCOMM@VCreate?$AA@ 100e6080     sqlite3.obj
 0002:00005088       ??_C@_08JBEDGDCN@VDestroy?$AA@ 100e6088     sqlite3.obj
 0002:00005094       ??_C@_05JABEJFFA@VOpen?$AA@ 100e6094     sqlite3.obj
 0002:0000509c       ??_C@_07DOIHNMAE@VColumn?$AA@ 100e609c     sqlite3.obj
 0002:000050a4       ??_C@_07BIPKCCHL@VRename?$AA@ 100e60a4     sqlite3.obj
 0002:000050ac       ??_C@_09CNCANJNI@Pagecount?$AA@ 100e60ac     sqlite3.obj
 0002:000050b8       ??_C@_08PCPIJAPH@MaxPgcnt?$AA@ 100e60b8     sqlite3.obj
 0002:000050c4       ??_C@_09IOLDCHIA@PureFunc0?$AA@ 100e60c4     sqlite3.obj
 0002:000050d0       ??_C@_09LAABOPGC@Function0?$AA@ 100e60d0     sqlite3.obj
 0002:000050dc       ??_C@_08CLBBEJDB@PureFunc?$AA@ 100e60dc     sqlite3.obj
 0002:000050e8       ??_C@_08PHKOHANG@Function?$AA@ 100e60e8     sqlite3.obj
 0002:000050f4       ??_C@_0L@CLJLGDBO@CursorHint?$AA@ 100e60f4     sqlite3.obj
 0002:00005100       ??_C@_04NBOPPMHE@Noop?$AA@ 100e6100     sqlite3.obj
 0002:00005108       ??_C@_07EMCFMDDO@Explain?$AA@ 100e6108     sqlite3.obj
 0002:00005110       ??_C@_0BA@FHFNEAED@AreFileApisANSI?$AA@ 100e6110     sqlite3.obj
 0002:00005120       ??_C@_0L@CDADJILC@CharLowerW?$AA@ 100e6120     sqlite3.obj
 0002:0000512c       ??_C@_0L@JBOFCNPB@CharUpperW?$AA@ 100e612c     sqlite3.obj
 0002:00005138       ??_C@_0M@JHJNLFGC@CloseHandle?$AA@ 100e6138     sqlite3.obj
 0002:00005144       ??_C@_0M@HDHGNCCA@CreateFileA?$AA@ 100e6144     sqlite3.obj
 0002:00005150       ??_C@_0M@GPOOGHPH@CreateFileW?$AA@ 100e6150     sqlite3.obj
 0002:0000515c       ??_C@_0BD@GJENCGJD@CreateFileMappingA?$AA@ 100e615c     sqlite3.obj
 0002:00005170       ??_C@_0BD@HFNFJDEE@CreateFileMappingW?$AA@ 100e6170     sqlite3.obj
 0002:00005184       ??_C@_0N@MDNOAJMP@CreateMutexW?$AA@ 100e6184     sqlite3.obj
 0002:00005194       ??_C@_0M@CBNKJACB@DeleteFileA?$AA@ 100e6194     sqlite3.obj
 0002:000051a0       ??_C@_0M@DNECCFPG@DeleteFileW?$AA@ 100e61a0     sqlite3.obj
 0002:000051ac       ??_C@_0BI@EKFDIGHI@FileTimeToLocalFileTime?$AA@ 100e61ac     sqlite3.obj
 0002:000051c4       ??_C@_0BF@KPJNHALE@FileTimeToSystemTime?$AA@ 100e61c4     sqlite3.obj
 0002:000051dc       ??_C@_0BB@MOGECGEP@FlushFileBuffers?$AA@ 100e61dc     sqlite3.obj
 0002:000051f0       ??_C@_03OCHKFGFI@dll?$AA@  100e61f0     sqlite3.obj
 0002:000051f4       ??_C@_0P@FKPELJOF@FormatMessageA?$AA@ 100e61f4     sqlite3.obj
 0002:00005204       ??_C@_0P@EGGMAMDC@FormatMessageW?$AA@ 100e6204     sqlite3.obj
 0002:00005214       ??_C@_0M@FACAOGOA@FreeLibrary?$AA@ 100e6214     sqlite3.obj
 0002:00005220       ??_C@_0BE@BEODBHKD@GetCurrentProcessId?$AA@ 100e6220     sqlite3.obj
 0002:00005234       ??_C@_0BC@CLHNLNI@GetDiskFreeSpaceA?$AA@ 100e6234     sqlite3.obj
 0002:00005248       ??_C@_0BC@BOCPGOAP@GetDiskFreeSpaceW?$AA@ 100e6248     sqlite3.obj
 0002:0000525c       ??_C@_0BD@DJMMCMCB@GetFileAttributesA?$AA@ 100e625c     sqlite3.obj
 0002:00005270       ??_C@_0BD@CFFEJJPG@GetFileAttributesW?$AA@ 100e6270     sqlite3.obj
 0002:00005284       ??_C@_0BF@JODNCFOA@GetFileAttributesExW?$AA@ 100e6284     sqlite3.obj
 0002:0000529c       ??_C@_0M@BAICHOOE@GetFileSize?$AA@ 100e629c     sqlite3.obj
 0002:000052a8       ??_C@_0BB@HALHENPC@GetFullPathNameA?$AA@ 100e62a8     sqlite3.obj
 0002:000052bc       ??_C@_0BB@GMCPPICF@GetFullPathNameW?$AA@ 100e62bc     sqlite3.obj
 0002:000052d0       ??_C@_0N@HICKNDGL@GetLastError?$AA@ 100e62d0     sqlite3.obj
 0002:000052e0       ??_C@_0BA@EJGIKKLP@GetProcAddressA?$AA@ 100e62e0     sqlite3.obj
 0002:000052f0       ??_C@_0O@HJFFHIPG@GetSystemInfo?$AA@ 100e62f0     sqlite3.obj
 0002:00005300       ??_C@_0O@IKEIBEBH@GetSystemTime?$AA@ 100e6300     sqlite3.obj
 0002:00005310       ??_C@_0BI@ENMDHCMK@GetSystemTimeAsFileTime?$AA@ 100e6310     sqlite3.obj
 0002:00005328       ??_C@_0N@CMNFBGGC@GetTempPathA?$AA@ 100e6328     sqlite3.obj
 0002:00005338       ??_C@_0N@DAENKDLF@GetTempPathW?$AA@ 100e6338     sqlite3.obj
 0002:00005348       ??_C@_0N@JOMACIEF@GetTickCount?$AA@ 100e6348     sqlite3.obj
 0002:00005358       ??_C@_0O@LLCLDPIK@GetVersionExA?$AA@ 100e6358     sqlite3.obj
 0002:00005368       ??_C@_0O@KHLDIKFN@GetVersionExW?$AA@ 100e6368     sqlite3.obj
 0002:00005378       ??_C@_09JDKINLHP@HeapAlloc?$AA@ 100e6378     sqlite3.obj
 0002:00005384       ??_C@_05NMJMPJJB@win32?$AA@ 100e6384     sqlite3.obj
 0002:0000538c       ??_C@_0L@ICEGIJOB@HeapCreate?$AA@ 100e638c     sqlite3.obj
 0002:00005398       ??_C@_0P@DDINIIBH@win32?9longpath?$AA@ 100e6398     sqlite3.obj
 0002:000053a8       ??_C@_0M@NELNNOPP@HeapDestroy?$AA@ 100e63a8     sqlite3.obj
 0002:000053b4       ??_C@_0L@GKDKNNFD@win32?9none?$AA@ 100e63b4     sqlite3.obj
 0002:000053c0       ??_C@_08ICEHPNNG@HeapFree?$AA@ 100e63c0     sqlite3.obj
 0002:000053cc       ??_C@_0BE@EDBNHJPM@win32?9longpath?9none?$AA@ 100e63cc     sqlite3.obj
 0002:000053e0       ??_C@_0M@HHKAEGMB@HeapReAlloc?$AA@ 100e63e0     sqlite3.obj
 0002:000053ec       ??_C@_08LKCFNBPH@HeapSize?$AA@ 100e63ec     sqlite3.obj
 0002:000053f8       ??_C@_0N@BKFJNCJM@HeapValidate?$AA@ 100e63f8     sqlite3.obj
 0002:00005408       ??_C@_0M@EIEMDCNL@HeapCompact?$AA@ 100e6408     sqlite3.obj
 0002:00005414       ??_C@_0N@LOMLCOFC@LoadLibraryA?$AA@ 100e6414     sqlite3.obj
 0002:00005424       ??_C@_0N@KCFDJLIF@LoadLibraryW?$AA@ 100e6424     sqlite3.obj
 0002:00005434       ??_C@_09FHKJECCN@LocalFree?$AA@ 100e6434     sqlite3.obj
 0002:00005440       ??_C@_08DICMLIHC@LockFile?$AA@ 100e6440     sqlite3.obj
 0002:0000544c       ??_C@_0L@EJAEKEDD@LockFileEx?$AA@ 100e644c     sqlite3.obj
 0002:00005458       ??_C@_0O@IGIELGBD@MapViewOfFile?$AA@ 100e6458     sqlite3.obj
 0002:00005468       ??_C@_0BE@HCIKGJGE@MultiByteToWideChar?$AA@ 100e6468     sqlite3.obj
 0002:0000547c       ??_C@_0BI@LFICGGHO@QueryPerformanceCounter?$AA@ 100e647c     sqlite3.obj
 0002:00005494       ??_C@_08KLCHJOKF@ReadFile?$AA@ 100e6494     sqlite3.obj
 0002:000054a0       ??_C@_0N@KGGGLBCJ@SetEndOfFile?$AA@ 100e64a0     sqlite3.obj
 0002:000054b0       ??_C@_0P@HKHKGCLN@SetFilePointer?$AA@ 100e64b0     sqlite3.obj
 0002:000054c0       ??_C@_05PFDOMJEF@Sleep?$AA@ 100e64c0     sqlite3.obj
 0002:000054c8       ??_C@_0BF@HBHGIPOG@SystemTimeToFileTime?$AA@ 100e64c8     sqlite3.obj
 0002:000054e0       ??_C@_0L@PBJENKDG@UnlockFile?$AA@ 100e64e0     sqlite3.obj
 0002:000054ec       ??_C@_0N@HOKNOHPO@UnlockFileEx?$AA@ 100e64ec     sqlite3.obj
 0002:000054fc       ??_C@_0BA@GLKNLELN@UnmapViewOfFile?$AA@ 100e64fc     sqlite3.obj
 0002:0000550c       ??_C@_0BE@LJADKLBD@WideCharToMultiByte?$AA@ 100e650c     sqlite3.obj
 0002:00005520       ??_C@_09NOIIIIGM@WriteFile?$AA@ 100e6520     sqlite3.obj
 0002:0000552c       ??_C@_0P@DLHPPCNH@CreateEventExW?$AA@ 100e652c     sqlite3.obj
 0002:0000553c       ??_C@_0BE@CLKLPNNG@WaitForSingleObject?$AA@ 100e653c     sqlite3.obj
 0002:00005550       ??_C@_0BG@IFNJHLEG@WaitForSingleObjectEx?$AA@ 100e6550     sqlite3.obj
 0002:00005568       ??_C@_0BB@GDGABGCO@SetFilePointerEx?$AA@ 100e6568     sqlite3.obj
 0002:0000557c       ??_C@_0BN@NEEHBBPO@GetFileInformationByHandleEx?$AA@ 100e657c     sqlite3.obj
 0002:0000559c       ??_C@_0BF@ECJCKDGL@MapViewOfFileFromApp?$AA@ 100e659c     sqlite3.obj
 0002:000055b4       ??_C@_0M@HHGEPIBF@CreateFile2?$AA@ 100e65b4     sqlite3.obj
 0002:000055c0       ??_C@_0BE@GMOAPDKA@LoadPackagedLibrary?$AA@ 100e65c0     sqlite3.obj
 0002:000055d4       ??_C@_0P@CDHHOHKP@GetTickCount64?$AA@ 100e65d4     sqlite3.obj
 0002:000055e4       ??_C@_0BE@HLKFLAJF@GetNativeSystemInfo?$AA@ 100e65e4     sqlite3.obj
 0002:000055f8       ??_C@_0BD@ILGKEMFC@OutputDebugStringA?$AA@ 100e65f8     sqlite3.obj
 0002:0000560c       ??_C@_0BD@JHPCPJIF@OutputDebugStringW?$AA@ 100e660c     sqlite3.obj
 0002:00005620       ??_C@_0P@BOLOPLNF@GetProcessHeap?$AA@ 100e6620     sqlite3.obj
 0002:00005630       ??_C@_0BJ@EKFPCGJA@CreateFileMappingFromApp?$AA@ 100e6630     sqlite3.obj
 0002:0000564c       ??_C@_0BL@FOMKKFPM@InterlockedCompareExchange?$AA@ 100e664c     sqlite3.obj
 0002:00005668       ??_C@_0L@IDKDBMAM@UuidCreate?$AA@ 100e6668     sqlite3.obj
 0002:00005674       ??_C@_0BF@DJFPALMK@UuidCreateSequential?$AA@ 100e6674     sqlite3.obj
 0002:0000568c       ??_C@_0BA@IHGACFIJ@FlushViewOfFile?$AA@ 100e668c     sqlite3.obj
 0002:0000569c       ??_C@_07DNDIJFOK@20b?320e?$AA@ 100e669c     sqlite3.obj
 0002:000056a4       ??_C@_07PGGEEGEP@20c?320e?$AA@ 100e66a4     sqlite3.obj
 0002:000056ac       ??_C@_03LIHIGKLL@20e?$AA@  100e66ac     sqlite3.obj
 0002:000056b0       ??_C@_0M@FJDHLCLG@40f?921a?921d?$AA@ 100e66b0     sqlite3.obj
 0002:000056bc       ??_C@_03CGLHMDPP@now?$AA@  100e66bc     sqlite3.obj
 0002:000056c0       ??_C@_0BH@HEILFFIJ@local?5time?5unavailable?$AA@ 100e66c0     sqlite3.obj
 0002:000056d8       ??_C@_09EKBOCLDN@localtime?$AA@ 100e66d8     sqlite3.obj
 0002:000056e4       ??_C@_09KNIMKLBK@unixepoch?$AA@ 100e66e4     sqlite3.obj
 0002:000056f0       ??_C@_03JPHCIIKF@utc?$AA@  100e66f0     sqlite3.obj
 0002:000056f4       ??_C@_08IPAOEBNP@weekday?5?$AA@ 100e66f4     sqlite3.obj
 0002:00005700       ??_C@_09CABLEOFK@start?5of?5?$AA@ 100e6700     sqlite3.obj
 0002:0000570c       ??_C@_0BO@NGNOHJIK@?$CF04d?9?$CF02d?9?$CF02d?5?$CF02d?3?$CF02d?3?$CF02d?$AA@ 100e670c     sqlite3.obj
 0002:0000572c       ??_C@_0P@PLMNPDMB@?$CF02d?3?$CF02d?3?$CF02d?$AA@ 100e672c     sqlite3.obj
 0002:0000573c       ??_C@_0P@MCDGMPHH@?$CF04d?9?$CF02d?9?$CF02d?$AA@ 100e673c     sqlite3.obj
 0002:0000574c       ??_C@_04OGKJMPGK@?$CF02d?$AA@ 100e674c     sqlite3.obj
 0002:00005754       ??_C@_06IAGKDDNE@?$CF06?43f?$AA@ 100e6754     sqlite3.obj
 0002:0000575c       ??_C@_04OHGLKFFN@?$CF03d?$AA@ 100e675c     sqlite3.obj
 0002:00005764       ??_C@_05CFGAKADK@?$CF?416g?$AA@ 100e6764     sqlite3.obj
 0002:0000576c       ??_C@_04BFAHMMK@?$CFlld?$AA@ 100e676c     sqlite3.obj
 0002:00005774       ??_C@_04OCCELDNI@?$CF04d?$AA@ 100e6774     sqlite3.obj
 0002:0000577c       ??_C@_0CG@DAAPKCCM@failed?5to?5allocate?5?$CFu?5bytes?5of?5m@ 100e677c     sqlite3.obj
 0002:000057a4       ??_C@_0CE@BFFKOBMD@failed?5memory?5resize?5?$CFu?5to?5?$CFu?5by@ 100e67a4     sqlite3.obj
 0002:000057c8       ??_C@_01FGNFDNOH@?$CF?$AA@ 100e67c8     sqlite3.obj
 0002:000057cc       ??_C@_03ICJPMMHB@NaN?$AA@  100e67cc     sqlite3.obj
 0002:000057d0       ??_C@_03EJEJBNFP@Inf?$AA@  100e67d0     sqlite3.obj
 0002:000057d4       ??_C@_04HIBGFPH@NULL?$AA@  100e67d4     sqlite3.obj
 0002:000057dc       ??_C@_06LHGEHABH@?$CINULL?$CJ?$AA@ 100e67dc     sqlite3.obj
 0002:000057e4       ??_C@_01LFCBOECM@?4?$AA@   100e67e4     sqlite3.obj
 0002:000057e8       ??_C@_0BD@FKIFACO@922337203685477580?$AA@ 100e67e8     sqlite3.obj
 0002:000057fc       ??_C@_0CN@EOKIBNLJ@API?5call?5with?5?$CFs?5database?5connec@ 100e67fc     sqlite3.obj
 0002:0000582c       ??_C@_08NFNJDBOK@unopened?$AA@ 100e682c     sqlite3.obj
 0002:00005838       ??_C@_07MALOAKCI@invalid?$AA@ 100e6838     sqlite3.obj
 0002:00005840       ??_C@_0BE@MJECGBL@OsError?50x?$CFlx?5?$CI?$CFlu?$CJ?$AA@ 100e6840     sqlite3.obj
 0002:00005854       ??_C@_02DKCKIIND@?$CFs?$AA@ 100e6854     sqlite3.obj
 0002:00005858       ??_C@_0BP@JDJJJHMH@os_win?4c?3?$CFd?3?5?$CI?$CFlu?$CJ?5?$CFs?$CI?$CFs?$CJ?5?9?5?$CFs?$AA@ 100e6858     sqlite3.obj
 0002:00005878       ??_C@_0DC@FIDAINO@delayed?5?$CFdms?5for?5lock?1sharing?5co@ 100e6878     sqlite3.obj
 0002:000058ac       ??_C@_0M@JAPMDKOE@winSeekFile?$AA@ 100e68ac     sqlite3.obj
 0002:000058b8       ??_C@_08GBGPIFFF@winClose?$AA@ 100e68b8     sqlite3.obj
 0002:000058c4       ??_C@_07BGDHELCN@winRead?$AA@ 100e68c4     sqlite3.obj
 0002:000058cc       ??_C@_09GFOHNLGD@winWrite1?$AA@ 100e68cc     sqlite3.obj
 0002:000058d8       ??_C@_09EOMKIIKA@winWrite2?$AA@ 100e68d8     sqlite3.obj
 0002:000058e4       ??_C@_0N@JHOIFHJA@winTruncate1?$AA@ 100e68e4     sqlite3.obj
 0002:000058f4       ??_C@_0N@LMMFAEFD@winTruncate2?$AA@ 100e68f4     sqlite3.obj
 0002:00005904       ??_C@_08LAPEMDHJ@winSync1?$AA@ 100e6904     sqlite3.obj
 0002:00005910       ??_C@_08JLNJJALK@winSync2?$AA@ 100e6910     sqlite3.obj
 0002:0000591c       ??_C@_0M@DODNMLAG@winFileSize?$AA@ 100e691c     sqlite3.obj
 0002:00005928       ??_C@_0BC@CHABEBCJ@winUnlockReadLock?$AA@ 100e6928     sqlite3.obj
 0002:0000593c       ??_C@_09INENJOCI@winUnlock?$AA@ 100e693c     sqlite3.obj
 0002:00005948       ??_C@_06KEOMCCGA@?$CFs?9shm?$AA@ 100e6948     sqlite3.obj
 0002:00005950       ??_C@_0L@NHPDAEHO@winOpenShm?$AA@ 100e6950     sqlite3.obj
 0002:0000595c       ??_C@_0L@JMPNPFLA@winShmMap1?$AA@ 100e695c     sqlite3.obj
 0002:00005968       ??_C@_0L@LHNAKGHD@winShmMap2?$AA@ 100e6968     sqlite3.obj
 0002:00005974       ??_C@_0L@KOMLJHDC@winShmMap3?$AA@ 100e6974     sqlite3.obj
 0002:00005980       ??_C@_0O@MBBPBMPM@winUnmapfile1?$AA@ 100e6980     sqlite3.obj
 0002:00005990       ??_C@_0O@OKDCEPDP@winUnmapfile2?$AA@ 100e6990     sqlite3.obj
 0002:000059a0       ??_C@_0M@FMIFOGHC@winMapfile1?$AA@ 100e69a0     sqlite3.obj
 0002:000059ac       ??_C@_0M@HHKILFLB@winMapfile2?$AA@ 100e69ac     sqlite3.obj
 0002:000059b8       ??_C@_07NBNPOOME@etilqs_?$AA@ 100e69b8     sqlite3.obj
 0002:000059c0       ??_C@_0BA@KKAJEMJB@winGetTempname1?$AA@ 100e69c0     sqlite3.obj
 0002:000059d0       ??_C@_0BA@IBCEBPFC@winGetTempname2?$AA@ 100e69d0     sqlite3.obj
 0002:000059e0       ??_C@_0BA@JIDPCOBD@winGetTempname3?$AA@ 100e69e0     sqlite3.obj
 0002:000059f0       ??_C@_0BA@NHHOLINE@winGetTempname4?$AA@ 100e69f0     sqlite3.obj
 0002:00005a00       ??_C@_0BA@MOGFIJJF@winGetTempname5?$AA@ 100e6a00     sqlite3.obj
 0002:00005a10       ??_C@_07BEGGPPOF@winOpen?$AA@ 100e6a10     sqlite3.obj
 0002:00005a18       ??_C@_04JKHAIEHD@psow?$AA@ 100e6a18     sqlite3.obj
 0002:00005a20       ??_C@_09MOHEIBIO@winDelete?$AA@ 100e6a20     sqlite3.obj
 0002:00005a2c       ??_C@_09NBJCHJLH@winAccess?$AA@ 100e6a2c     sqlite3.obj
 0002:00005a38       ??_C@_06GIIGBPHC@?$CFs?$CFc?$CFs?$AA@ 100e6a38     sqlite3.obj
 0002:00005a40       ??_C@_0BB@OFJJKLCE@winFullPathname1?$AA@ 100e6a40     sqlite3.obj
 0002:00005a54       ??_C@_0BB@MOLEPIOH@winFullPathname2?$AA@ 100e6a54     sqlite3.obj
 0002:00005a68       ??_C@_0BB@NHKPMJKG@winFullPathname3?$AA@ 100e6a68     sqlite3.obj
 0002:00005a7c       ??_C@_0BB@JIOOFPGB@winFullPathname4?$AA@ 100e6a7c     sqlite3.obj
 0002:00005a90       ??_C@_0BL@FJPGAHP@recovered?5?$CFd?5pages?5from?5?$CFs?$AA@ 100e6a90     sqlite3.obj
 0002:00005aac       ??_C@_09HKLPJOIM@?9journal?$AA?$AA@ 100e6aac     sqlite3.obj
 0002:00005ab8       ??_C@_05HMKKNGEJ@?9wal?$AA?$AA@ 100e6ab8     sqlite3.obj
 0002:00005ac0       ??_C@_06LDKHBALK@nolock?$AA@ 100e6ac0     sqlite3.obj
 0002:00005ac8       ??_C@_09JFJMBHCC@immutable?$AA@ 100e6ac8     sqlite3.obj
 0002:00005ad4       ??_C@_0CF@EDMDCOFB@recovered?5?$CFd?5frames?5from?5WAL?5fil@ 100e6ad4     sqlite3.obj
 0002:00005afc       ??_C@_0BK@NCCCKLLJ@cannot?5limit?5WAL?5size?3?5?$CFs?$AA@ 100e6afc     sqlite3.obj
 0002:00005b18       ??_C@_08CADOGOJM@?3memory?3?$AA@ 100e6b18     sqlite3.obj
 0002:00005b24       ??_C@_03OIGGBKJM@?$EA?5?5?$AA@ 100e6b24     sqlite3.obj
 0002:00005b28       ??_C@_01EEMJAFIK@?6?$AA@   100e6b28     sqlite3.obj
 0002:00005b2c       ??_C@_0BH@LLKFEBHC@invalid?5page?5number?5?$CFd?$AA@ 100e6b2c     sqlite3.obj
 0002:00005b44       ??_C@_0BJ@HHKCLCDH@2nd?5reference?5to?5page?5?$CFd?$AA@ 100e6b44     sqlite3.obj
 0002:00005b60       ??_C@_0BN@NJCBBLIO@Failed?5to?5read?5ptrmap?5key?$DN?$CFd?$AA@ 100e6b60     sqlite3.obj
 0002:00005b80       ??_C@_0DG@EAEHHDPC@Bad?5ptr?5map?5entry?5key?$DN?$CFd?5expecte@ 100e6b80     sqlite3.obj
 0002:00005bb8       ??_C@_0DJ@PBFEOOMP@?$CFd?5of?5?$CFd?5pages?5missing?5from?5over@ 100e6bb8     sqlite3.obj
 0002:00005bf4       ??_C@_0BG@GMIBDIEE@failed?5to?5get?5page?5?$CFd?$AA@ 100e6bf4     sqlite3.obj
 0002:00005c0c       ??_C@_0CH@LNHECGJJ@freelist?5leaf?5count?5too?5big?5on?5p@ 100e6c0c     sqlite3.obj
 0002:00005c34       ??_C@_0CH@EHDDBGPL@free?9page?5count?5in?5header?5is?5too@ 100e6c34     sqlite3.obj
 0002:00005c5c       ??_C@_09OLGIMPDE@Page?5?$CFd?3?5?$AA@ 100e6c5c     sqlite3.obj
 0002:00005c68       ??_C@_0CG@ILLDAEJM@unable?5to?5get?5the?5page?4?5error?5co@ 100e6c68     sqlite3.obj
 0002:00005c90       ??_C@_0CG@FFKEALPN@btreeInitPage?$CI?$CJ?5returns?5error?5co@ 100e6c90     sqlite3.obj
 0002:00005cb8       ??_C@_0BK@DEBKKJM@On?5tree?5page?5?$CFd?5cell?5?$CFd?3?5?$AA@ 100e6cb8     sqlite3.obj
 0002:00005cd4       ??_C@_0BM@FMPLCKPB@On?5page?5?$CFd?5at?5right?5child?3?5?$AA@ 100e6cd4     sqlite3.obj
 0002:00005cf0       ??_C@_0BO@GNBLAJEP@Offset?5?$CFd?5out?5of?5range?5?$CFd?4?4?$CFd?$AA@ 100e6cf0     sqlite3.obj
 0002:00005d10       ??_C@_0BI@EFAGLMLE@Extends?5off?5end?5of?5page?$AA@ 100e6d10     sqlite3.obj
 0002:00005d28       ??_C@_0BI@CKMEGBED@Rowid?5?$CFlld?5out?5of?5order?$AA@ 100e6d28     sqlite3.obj
 0002:00005d40       ??_C@_0BJ@FLOCKNJL@Child?5page?5depth?5differs?$AA@ 100e6d40     sqlite3.obj
 0002:00005d5c       ??_C@_0CF@FDPBJINM@Multiple?5uses?5for?5byte?5?$CFu?5of?5pag@ 100e6d5c     sqlite3.obj
 0002:00005d84       ??_C@_0DE@NONOJPEC@Fragmentation?5of?5?$CFd?5bytes?5report@ 100e6d84     sqlite3.obj
 0002:00005db8       ??_C@_0BA@EAICBBKE@Main?5freelist?3?5?$AA@ 100e6db8     sqlite3.obj
 0002:00005dc8       ??_C@_0BG@NJBAMKDO@Page?5?$CFd?5is?5never?5used?$AA@ 100e6dc8     sqlite3.obj
 0002:00005de0       ??_C@_0CC@IBCKHFBM@Pointer?5map?5page?5?$CFd?5is?5reference@ 100e6de0     sqlite3.obj
 0002:00005e04       ??_C@_0BE@OKPJBBEB@unknown?5database?5?$CFs?$AA@ 100e6e04     sqlite3.obj
 0002:00005e18       ??_C@_0BP@CNIPEHFB@destination?5database?5is?5in?5use?$AA@ 100e6e18     sqlite3.obj
 0002:00005e38       ??_C@_0CI@IHDDPHMP@source?5and?5destination?5must?5be?5d@ 100e6e38     sqlite3.obj
 0002:00005e60       ??_C@_06NJMDEJD@?$CF?$CB?415g?$AA@ 100e6e60     sqlite3.obj
 0002:00005e68       ??_C@_01JOAMLHOP@?9?$AA@   100e6e68     sqlite3.obj
 0002:00005e6c       ??_C@_04HDOCAJNK@?$CFs?$CFs?$AA@ 100e6e6c     sqlite3.obj
 0002:00005e74       ??_C@_04INKOODMH@k?$CI?$CFd?$AA@ 100e6e74     sqlite3.obj
 0002:00005e7c       ??_C@_06FJHKNKMG@BINARY?$AA@ 100e6e7c     sqlite3.obj
 0002:00005e84       ??_C@_01HMGJMAIH@B?$AA@    100e6e84     sqlite3.obj
 0002:00005e88       ??_C@_05HEGMJKCJ@?0?$CFs?$CFs?$AA@ 100e6e88     sqlite3.obj
 0002:00005e90       ??_C@_01PKGAHCOL@?$CJ?$AA@ 100e6e90     sqlite3.obj
 0002:00005e94       ??_C@_07CJFGHBKN@?$CI?$CF?420s?$CJ?$AA@ 100e6e94     sqlite3.obj
 0002:00005e9c       ??_C@_06BPGFIOAL@?$CFs?$CI?$CFd?$CJ?$AA@ 100e6e9c     sqlite3.obj
 0002:00005ea4       ??_C@_02DPKJAMEF@?$CFd?$AA@ 100e6ea4     sqlite3.obj
 0002:00005ea8       ??_C@_06OLGPAEJH@?$CIblob?$CJ?$AA@ 100e6ea8     sqlite3.obj
 0002:00005eb0       ??_C@_07EGLAFBFD@vtab?3?$CFp?$AA@ 100e6eb0     sqlite3.obj
 0002:00005eb8       ??_C@_03LEIBKMN@?0?$CFd?$AA@ 100e6eb8     sqlite3.obj
 0002:00005ebc       ??_C@_01LBDDMOBJ@?$FN?$AA@ 100e6ebc     sqlite3.obj
 0002:00005ec0       ??_C@_07MHLKLKDM@program?$AA@ 100e6ec0     sqlite3.obj
 0002:00005ec8       ??_C@_04LABILCJL@?$CF?42x?$AA@ 100e6ec8     sqlite3.obj
 0002:00005ed0       ??_C@_0BA@FKMAFLJK@?$CFs?9mjXXXXXX9XXz?$AA@ 100e6ed0     sqlite3.obj
 0002:00005ee0       ??_C@_0O@IDFCBAPA@MJ?5delete?3?5?$CFs?$AA@ 100e6ee0     sqlite3.obj
 0002:00005ef0       ??_C@_0P@EKBGDFBG@MJ?5collide?3?5?$CFs?$AA@ 100e6ef0     sqlite3.obj
 0002:00005f00       ??_C@_0N@FLHACMNC@?9mj?$CF06X9?$CF02X?$AA@ 100e6f00     sqlite3.obj
 0002:00005f10       ??_C@_0BO@PMDGIFIC@FOREIGN?5KEY?5constraint?5failed?$AA@ 100e6f10     sqlite3.obj
 0002:00005f30       ??_C@_0ED@KOIKBLFM@non?9deterministic?5function?5in?5in@ 100e6f30     sqlite3.obj
 0002:00005f74       ??_C@_0CN@JCKHFJMJ@API?5called?5with?5finalized?5prepar@ 100e6f74     sqlite3.obj
 0002:00005fa4       ??_C@_0CI@DGDEMKDJ@API?5called?5with?5NULL?5prepared?5st@ 100e6fa4     sqlite3.obj
 0002:00005fcc       ??_C@_0DD@BOPMNMAO@unable?5to?5use?5function?5?$CFs?5in?5the@ 100e6fcc     sqlite3.obj
 0002:00006000       ??_C@_0CI@NKIMDBDG@bind?5on?5a?5busy?5prepared?5statemen@ 100e7000     sqlite3.obj
 0002:00006028       ??_C@_03CJPCKGBB@?9?9?5?$AA@ 100e7028     sqlite3.obj
 0002:0000602c       ??_C@_06BGANNCL@?8?$CF?4?$CKq?8?$AA@ 100e702c     sqlite3.obj
 0002:00006034       ??_C@_0N@OGKFEFFN@zeroblob?$CI?$CFd?$CJ?$AA@ 100e7034     sqlite3.obj
 0002:00006044       ??_C@_02IAJJKNGA@x?8?$AA@  100e7044     sqlite3.obj
 0002:00006048       ??_C@_04NOJCDH@?$CF02x?$AA@ 100e7048     sqlite3.obj
 0002:00006050       ??_C@_01GEODFPGF@?8?$AA@   100e7050     sqlite3.obj
 0002:00006054       ??_C@_0BF@PPLEKELH@?$CFs?5constraint?5failed?$AA@ 100e7054     sqlite3.obj
 0002:0000606c       ??_C@_06CEJILJDK@?$CFz?3?5?$CFs?$AA@ 100e706c     sqlite3.obj
 0002:00006074       ??_C@_0BI@CKCEIKAL@abort?5at?5?$CFd?5in?5?$FL?$CFs?$FN?3?5?$CFs?$AA@ 100e7074     sqlite3.obj
 0002:0000608c       ??_C@_0DD@EHMCJFDN@cannot?5open?5savepoint?5?9?5SQL?5stat@ 100e708c     sqlite3.obj
 0002:000060c0       ??_C@_0BG@NADCOEGF@no?5such?5savepoint?3?5?$CFs?$AA@ 100e70c0     sqlite3.obj
 0002:000060d8       ??_C@_0DG@JCGPCDM@cannot?5release?5savepoint?5?9?5SQL?5s@ 100e70d8     sqlite3.obj
 0002:00006110       ??_C@_0DH@EPKPHENF@cannot?5commit?5transaction?5?9?5SQL?5@ 100e7110     sqlite3.obj
 0002:00006148       ??_C@_0DA@CKKHGBEC@cannot?5start?5a?5transaction?5withi@ 100e7148     sqlite3.obj
 0002:00006178       ??_C@_0CL@DIEDEFLK@cannot?5rollback?5?9?5no?5transaction@ 100e7178     sqlite3.obj
 0002:000061a4       ??_C@_0CJ@LALCBGBP@cannot?5commit?5?9?5no?5transaction?5i@ 100e71a4     sqlite3.obj
 0002:000061d0       ??_C@_0O@JMEKHCEB@sqlite_master?$AA@ 100e71d0     sqlite3.obj
 0002:000061e0       ??_C@_0EA@GFNDAJBJ@SELECT?5name?0?5rootpage?0?5sql?5FROM?5@ 100e71e0     sqlite3.obj
 0002:00006220       ??_C@_0CF@DBNDEPJP@too?5many?5levels?5of?5trigger?5recur@ 100e7220     sqlite3.obj
 0002:00006248       ??_C@_04MHJLCKAK@into?$AA@ 100e7248     sqlite3.obj
 0002:00006250       ??_C@_06JIMOCJPC@out?5of?$AA@ 100e7250     sqlite3.obj
 0002:00006258       ??_C@_0DE@KIPNAMAA@cannot?5change?5?$CFs?5wal?5mode?5from?5w@ 100e7258     sqlite3.obj
 0002:0000628c       ??_C@_0BN@JOIFECGM@database?5table?5is?5locked?3?5?$CFs?$AA@ 100e728c     sqlite3.obj
 0002:000062ac       ??_C@_05FGPIKCAB@?9?9?5?$CFs?$AA@ 100e72ac     sqlite3.obj
 0002:000062b4       ??_C@_0CA@JGFGBIFL@statement?5aborts?5at?5?$CFd?3?5?$FL?$CFs?$FN?5?$CFs?$AA@ 100e72b4     sqlite3.obj
 0002:000062d4       ??_C@_0BN@OFFACDFM@cannot?5open?5value?5of?5type?5?$CFs?$AA@ 100e72d4     sqlite3.obj
 0002:000062f4       ??_C@_0BE@PGLAJEIK@no?5such?5rowid?3?5?$CFlld?$AA@ 100e72f4     sqlite3.obj
 0002:00006308       ??_C@_0BO@BCBGJJEM@cannot?5open?5virtual?5table?3?5?$CFs?$AA@ 100e7308     sqlite3.obj
 0002:00006328       ??_C@_0CE@OCACOFEC@cannot?5open?5table?5without?5rowid?3@ 100e7328     sqlite3.obj
 0002:0000634c       ??_C@_0BF@LEHNPEDD@cannot?5open?5view?3?5?$CFs?$AA@ 100e734c     sqlite3.obj
 0002:00006364       ??_C@_0BF@IFOHJMAC@no?5such?5column?3?5?$CC?$CFs?$CC?$AA@ 100e7364     sqlite3.obj
 0002:0000637c       ??_C@_0M@EKGNDAGL@foreign?5key?$AA@ 100e737c     sqlite3.obj
 0002:00006388       ??_C@_07KNEBDGNE@indexed?$AA@ 100e7388     sqlite3.obj
 0002:00006390       ??_C@_0CC@PCDMPIAA@cannot?5open?5?$CFs?5column?5for?5writin@ 100e7390     sqlite3.obj
 0002:000063b4       ??_C@_03CLCAEGCJ@new?$AA@  100e73b4     sqlite3.obj
 0002:000063b8       ??_C@_03PNKCFLFB@old?$AA@  100e73b8     sqlite3.obj
 0002:000063bc       ??_C@_0BP@LIGNHLP@misuse?5of?5aliased?5aggregate?5?$CFs?$AA@ 100e73bc     sqlite3.obj
 0002:000063dc       ??_C@_0BC@ECPMLDEB@row?5value?5misused?$AA@ 100e73dc     sqlite3.obj
 0002:000063f0       ??_C@_0P@OOEELNMH@no?5such?5column?$AA@ 100e73f0     sqlite3.obj
 0002:00006400       ??_C@_0BG@CPPEOILG@ambiguous?5column?5name?$AA@ 100e7400     sqlite3.obj
 0002:00006418       ??_C@_0N@GOMHGJCA@?$CFs?3?5?$CFs?4?$CFs?4?$CFs?$AA@ 100e7418     sqlite3.obj
 0002:00006428       ??_C@_09DEPFKOIN@?$CFs?3?5?$CFs?4?$CFs?$AA@ 100e7428     sqlite3.obj
 0002:00006434       ??_C@_06DJHOIPC@?$CFs?3?5?$CFs?$AA@ 100e7434     sqlite3.obj
 0002:0000643c       ??_C@_0BM@FHGIFHJI@partial?5index?5WHERE?5clauses?$AA@ 100e743c     sqlite3.obj
 0002:00006458       ??_C@_0BC@OGGBHAGM@index?5expressions?$AA@ 100e7458     sqlite3.obj
 0002:0000646c       ??_C@_0BC@FDHDOACM@CHECK?5constraints?$AA@ 100e746c     sqlite3.obj
 0002:00006480       ??_C@_0BE@FFEBFOFH@?$CFs?5prohibited?5in?5?$CFs?$AA@ 100e7480     sqlite3.obj
 0002:00006494       ??_C@_0BB@MKMPFLCK@the?5?$CC?4?$CC?5operator?$AA@ 100e7494     sqlite3.obj
 0002:000064a8       ??_C@_0EH@BOEFIEGB@second?5argument?5to?5likelihood?$CI?$CJ?5@ 100e74a8     sqlite3.obj
 0002:000064f0       ??_C@_0CD@CLOCOINF@not?5authorized?5to?5use?5function?3?5@ 100e74f0     sqlite3.obj
 0002:00006514       ??_C@_0BM@KJBKFFPA@non?9deterministic?5functions?$AA@ 100e7514     sqlite3.obj
 0002:00006530       ??_C@_0CE@JOMBDPK@misuse?5of?5aggregate?5function?5?$CF?4?$CK@ 100e7530     sqlite3.obj
 0002:00006554       ??_C@_0BH@DEPAIHDK@no?5such?5function?3?5?$CF?4?$CKs?$AA@ 100e7554     sqlite3.obj
 0002:0000656c       ??_C@_0CN@GBOJIJCC@wrong?5number?5of?5arguments?5to?5fun@ 100e756c     sqlite3.obj
 0002:0000659c       ??_C@_0L@JIOMEFKM@subqueries?$AA@ 100e759c     sqlite3.obj
 0002:000065a8       ??_C@_0L@HHPOFMCB@parameters?$AA@ 100e75a8     sqlite3.obj
 0002:000065b4       ??_C@_0DI@IJOLPLNO@?$CFr?5?$CFs?5BY?5term?5out?5of?5range?5?9?5sho@ 100e75b4     sqlite3.obj
 0002:000065ec       ??_C@_0CC@GEJJPDIE@too?5many?5terms?5in?5ORDER?5BY?5claus@ 100e75ec     sqlite3.obj
 0002:00006610       ??_C@_05BIEKMFNJ@ORDER?$AA@ 100e7610     sqlite3.obj
 0002:00006618       ??_C@_0DN@KHANHMIL@?$CFr?5ORDER?5BY?5term?5does?5not?5match?5@ 100e7618     sqlite3.obj
 0002:00006658       ??_C@_0BP@OLNMGBH@too?5many?5terms?5in?5?$CFs?5BY?5clause?$AA@ 100e7658     sqlite3.obj
 0002:00006678       ??_C@_0CM@CFGBPLAG@a?5GROUP?5BY?5clause?5is?5required?5be@ 100e7678     sqlite3.obj
 0002:000066a4       ??_C@_05NAIABEH@GROUP?$AA@ 100e76a4     sqlite3.obj
 0002:000066ac       ??_C@_0DL@LDIIFJFH@aggregate?5functions?5are?5not?5allo@ 100e76ac     sqlite3.obj
 0002:000066e8       ??_C@_0DA@HPOBBFJP@Expression?5tree?5is?5too?5large?5?$CIma@ 100e76e8     sqlite3.obj
 0002:00006718       ??_C@_0CL@MAPAMFMM@variable?5number?5must?5be?5between?5@ 100e7718     sqlite3.obj
 0002:00006744       ??_C@_0BH@KLMBLGJH@too?5many?5SQL?5variables?$AA@ 100e7744     sqlite3.obj
 0002:0000675c       ??_C@_0BO@INDAFOLJ@?$CFd?5columns?5assigned?5?$CFd?5values?$AA@ 100e775c     sqlite3.obj
 0002:0000677c       ??_C@_0BH@HJGFDJPB@too?5many?5columns?5in?5?$CFs?$AA@ 100e777c     sqlite3.obj
 0002:00006794       ??_C@_07HKAAOBDA@_ROWID_?$AA@ 100e7794     sqlite3.obj
 0002:0000679c       ??_C@_05GIFMDDGN@ROWID?$AA@ 100e779c     sqlite3.obj
 0002:000067a4       ??_C@_03PGJCFEMG@OID?$AA@  100e77a4     sqlite3.obj
 0002:000067a8       ??_C@_0BP@PMIGPOKJ@USING?5INDEX?5?$CFs?5FOR?5IN?9OPERATOR?$AA@ 100e77a8     sqlite3.obj
 0002:000067c8       ??_C@_0CM@BAEGMMEI@sub?9select?5returns?5?$CFd?5columns?5?9?5@ 100e77c8     sqlite3.obj
 0002:000067f4       ??_C@_04PCOPKCKE@LIST?$AA@ 100e77f4     sqlite3.obj
 0002:000067fc       ??_C@_06LEOGOFDE@SCALAR?$AA@ 100e77fc     sqlite3.obj
 0002:00006804       ??_C@_0M@MCLOEEML@CORRELATED?5?$AA@ 100e7804     sqlite3.obj
 0002:00006810       ??_C@_0BJ@HNBNONDH@EXECUTE?5?$CFs?$CFs?5SUBQUERY?5?$CFd?$AA@ 100e7810     sqlite3.obj
 0002:0000682c       ??_C@_02MDDDDAID@0x?$AA@   100e782c     sqlite3.obj
 0002:00006830       ??_C@_0BK@FAKNEGAL@hex?5literal?5too?5big?3?5?$CFs?$CFs?$AA@ 100e7830     sqlite3.obj
 0002:0000684c       ??_C@_0BK@BMEAFNCN@misuse?5of?5aggregate?3?5?$CFs?$CI?$CJ?$AA@ 100e784c     sqlite3.obj
 0002:00006868       ??_C@_0BH@DOLDNOOG@unknown?5function?3?5?$CFs?$CI?$CJ?$AA@ 100e7868     sqlite3.obj
 0002:00006880       ??_C@_0DC@JGGJAPOJ@RAISE?$CI?$CJ?5may?5only?5be?5used?5within?5@ 100e7880     sqlite3.obj
 0002:000068b4       ??_C@_0L@HDDJIJMP@?$CF?4?$CKs?$CC?$CFw?$CC?$CFs?$AA@ 100e78b4     sqlite3.obj
 0002:000068c0       ??_C@_0L@GGMNOGLF@?$CFs?$CF?4?$CKs?$CC?$CFw?$CC?$AA@ 100e78c0     sqlite3.obj
 0002:000068cc       ??_C@_07IKCPJJF@name?$DN?$CFQ?$AA@ 100e78cc     sqlite3.obj
 0002:000068d4       ??_C@_0O@JAFDLLMD@?$CFs?5OR?5name?$DN?$CFQ?$AA@ 100e78d4     sqlite3.obj
 0002:000068e4       ??_C@_0BI@IBIDABAM@type?$DN?8trigger?8?5AND?5?$CI?$CFs?$CJ?$AA@ 100e78e4     sqlite3.obj
 0002:000068fc       ??_C@_0M@FPJBBPLI@tbl_name?$DN?$CFQ?$AA@ 100e78fc     sqlite3.obj
 0002:00006908       ??_C@_07IOGLMIPM@sqlite_?$AA@ 100e7908     sqlite3.obj
 0002:00006910       ??_C@_0BM@IAHFHDLE@table?5?$CFs?5may?5not?5be?5altered?$AA@ 100e7910     sqlite3.obj
 0002:0000692c       ??_C@_0DL@DAEIJKNC@there?5is?5already?5another?5table?5o@ 100e792c     sqlite3.obj
 0002:00006968       ??_C@_0BL@FIDIAKLG@view?5?$CFs?5may?5not?5be?5altered?$AA@ 100e7968     sqlite3.obj
 0002:00006988       ??_C@_0EF@LBDFNLNO@UPDATE?5?$CC?$CFw?$CC?4?$CFs?5SET?5sql?5?$DN?5sqlite_@ 100e7988     sqlite3.obj
 0002:000069d0       ??_C@_0BIA@DMFFJHNO@UPDATE?5?$CFQ?4?$CFs?5SET?5sql?5?$DN?5CASE?5WHEN@ 100e79d0     sqlite3.obj
 0002:00006b50       ??_C@_0BA@KDDGKFDH@sqlite_sequence?$AA@ 100e7b50     sqlite3.obj
 0002:00006b60       ??_C@_0DK@NPMGFNPC@UPDATE?5?$CC?$CFw?$CC?4sqlite_sequence?5set?5@ 100e7b60     sqlite3.obj
 0002:00006ba0       ??_C@_0FM@GJOILOPP@UPDATE?5sqlite_temp_master?5SET?5sq@ 100e7ba0     sqlite3.obj
 0002:00006bfc       ??_C@_0CA@KEHKHMLG@Cannot?5add?5a?5PRIMARY?5KEY?5column?$AA@ 100e7bfc     sqlite3.obj
 0002:00006c1c       ??_C@_0BL@NAFLCLKF@Cannot?5add?5a?5UNIQUE?5column?$AA@ 100e7c1c     sqlite3.obj
 0002:00006c38       ??_C@_0DL@KNFPANHI@Cannot?5add?5a?5REFERENCES?5column?5w@ 100e7c38     sqlite3.obj
 0002:00006c74       ??_C@_0DF@JACFJFPO@Cannot?5add?5a?5NOT?5NULL?5column?5wit@ 100e7c74     sqlite3.obj
 0002:00006cac       ??_C@_0CO@DPKGGDEF@Cannot?5add?5a?5column?5with?5non?9con@ 100e7cac     sqlite3.obj
 0002:00006ce0       ??_C@_0GN@GPPLIGGM@UPDATE?5?$CC?$CFw?$CC?4?$CFs?5SET?5sql?5?$DN?5substr?$CI@ 100e7ce0     sqlite3.obj
 0002:00006d50       ??_C@_0CC@HCCMFAJP@virtual?5tables?5may?5not?5be?5altere@ 100e7d50     sqlite3.obj
 0002:00006d74       ??_C@_0BO@IKHDEECD@Cannot?5add?5a?5column?5to?5a?5view?$AA@ 100e7d74     sqlite3.obj
 0002:00006d94       ??_C@_0BD@PKLNNDD@sqlite_altertab_?$CFs?$AA@ 100e7d94     sqlite3.obj
 0002:00006da8       ??_C@_0BH@NPNIHFHO@CREATE?5TABLE?5?$CFQ?4?$CFs?$CI?$CFs?$CJ?$AA@ 100e7da8     sqlite3.obj
 0002:00006dc0       ??_C@_0BO@HNIAJBGG@DELETE?5FROM?5?$CFQ?4?$CFs?5WHERE?5?$CFs?$DN?$CFQ?$AA@ 100e7dc0     sqlite3.obj
 0002:00006de0       ??_C@_04FCIJFPNK@?$CFllu?$AA@ 100e7de0     sqlite3.obj
 0002:00006de8       ??_C@_05CCMFAMFC@?5?$CFllu?$AA@ 100e7de8     sqlite3.obj
 0002:00006df0       ??_C@_08FMHGAFBI@sqlite_?$CF?$AA@ 100e7df0     sqlite3.obj
 0002:00006dfc       ??_C@_03FOPHMEHM@BBB?$AA@  100e7dfc     sqlite3.obj
 0002:00006e00       ??_C@_0L@DBBDLBKM@unordered?$CK?$AA@ 100e7e00     sqlite3.obj
 0002:00006e0c       ??_C@_09OAJLDBEA@sz?$DN?$FL0?99?$FN?$CK?$AA@ 100e7e0c     sqlite3.obj
 0002:00006e18       ??_C@_0M@JLHNGGLH@noskipscan?$CK?$AA@ 100e7e18     sqlite3.obj
 0002:00006e24       ??_C@_0CJ@CJKDHBGL@SELECT?5tbl?0idx?0stat?5FROM?5?$CFQ?4sqli@ 100e7e24     sqlite3.obj
 0002:00006e50       ??_C@_0CF@FLFLBLIN@too?5many?5attached?5databases?5?9?5ma@ 100e7e50     sqlite3.obj
 0002:00006e78       ??_C@_0BO@FOBANNIG@database?5?$CFs?5is?5already?5in?5use?$AA@ 100e7e78     sqlite3.obj
 0002:00006e98       ??_C@_0BN@IAAPNCPC@database?5is?5already?5attached?$AA@ 100e7e98     sqlite3.obj
 0002:00006eb8       ??_C@_0EE@MLIDCBJA@attached?5databases?5must?5use?5the?5@ 100e7eb8     sqlite3.obj
 0002:00006efc       ??_C@_0BM@JECJFHOP@unable?5to?5open?5database?3?5?$CFs?$AA@ 100e7efc     sqlite3.obj
 0002:00006f18       ??_C@_0BF@PJFCJDG@no?5such?5database?3?5?$CFs?$AA@ 100e7f18     sqlite3.obj
 0002:00006f30       ??_C@_0BK@KGABJE@cannot?5detach?5database?5?$CFs?$AA@ 100e7f30     sqlite3.obj
 0002:00006f4c       ??_C@_0BG@HKAEEBEM@database?5?$CFs?5is?5locked?$AA@ 100e7f4c     sqlite3.obj
 0002:00006f64       ??_C@_0CO@IGOBCPDP@?$CFs?5?$CFT?5cannot?5reference?5objects?5i@ 100e7f64     sqlite3.obj
 0002:00006f94       ??_C@_0BI@NDHFOPCH@?$CFs?5cannot?5use?5variables?$AA@ 100e7f94     sqlite3.obj
 0002:00006fac       ??_C@_0BH@KNHNEHPN@authorizer?5malfunction?$AA@ 100e7fac     sqlite3.obj
 0002:00006fc4       ??_C@_05NNFHCGPF@?$CFs?4?$CFs?$AA@ 100e7fc4     sqlite3.obj
 0002:00006fcc       ??_C@_05MJFJNLM@?$CFs?4?$CFz?$AA@ 100e7fcc     sqlite3.obj
 0002:00006fd4       ??_C@_0BL@EPLLLCGN@access?5to?5?$CFz?5is?5prohibited?$AA@ 100e7fd4     sqlite3.obj
 0002:00006ff0       ??_C@_0P@PEBGBLCC@not?5authorized?$AA@ 100e7ff0     sqlite3.obj
 0002:00007000       ??_C@_0BD@OLGFAFA@sqlite_temp_master?$AA@ 100e8000     sqlite3.obj
 0002:00007014       ??_C@_0N@IAMBEAMM@no?5such?5view?$AA@ 100e8014     sqlite3.obj
 0002:00007024       ??_C@_0O@HKMEEONL@no?5such?5table?$AA@ 100e8024     sqlite3.obj
 0002:00007034       ??_C@_07BILKMIPE@pragma_?$AA@ 100e8034     sqlite3.obj
 0002:0000703c       ??_C@_04GHJNJNPO@main?$AA@ 100e803c     sqlite3.obj
 0002:00007044       ??_C@_0BB@GODMDNII@corrupt?5database?$AA@ 100e8044     sqlite3.obj
 0002:00007058       ??_C@_0BE@DADMKDCE@unknown?5database?5?$CFT?$AA@ 100e8058     sqlite3.obj
 0002:0000706c       ??_C@_0CK@DHAAGEMP@object?5name?5reserved?5for?5interna@ 100e806c     sqlite3.obj
 0002:00007098       ??_C@_0CJ@GGBIBJLH@temporary?5table?5name?5must?5be?5unq@ 100e8098     sqlite3.obj
 0002:000070c4       ??_C@_0BI@NMBJKJHP@table?5?$CFT?5already?5exists?$AA@ 100e80c4     sqlite3.obj
 0002:000070dc       ??_C@_0CD@FJHICPML@there?5is?5already?5an?5index?5named?5@ 100e80dc     sqlite3.obj
 0002:00007100       ??_C@_0BH@KPDMNKOM@too?5many?5columns?5on?5?$CFs?$AA@ 100e8100     sqlite3.obj
 0002:00007118       ??_C@_0BK@CJJKBEHE@duplicate?5column?5name?3?5?$CFs?$AA@ 100e8118     sqlite3.obj
 0002:00007134       ??_C@_0CN@MLPCOIJO@default?5value?5of?5column?5?$FL?$CFs?$FN?5is?5@ 100e8134     sqlite3.obj
 0002:00007164       ??_C@_0CJ@LEOOFHMA@table?5?$CC?$CFs?$CC?5has?5more?5than?5one?5pri@ 100e8164     sqlite3.obj
 0002:00007190       ??_C@_07EHCIHKNF@INTEGER?$AA@ 100e8190     sqlite3.obj
 0002:00007198       ??_C@_0DI@IAIBDBA@AUTOINCREMENT?5is?5only?5allowed?5on@ 100e8198     sqlite3.obj
 0002:000071d0       ??_C@_01IHBHIGKO@?0?$AA@   100e81d0     sqlite3.obj
 0002:000071d4       ??_C@_03BMMPKCMF@?6?5?5?$AA@ 100e81d4     sqlite3.obj
 0002:000071d8       ??_C@_04PPJIEIMB@?0?6?5?5?$AA@ 100e81d8     sqlite3.obj
 0002:000071e0       ??_C@_02EJGPDMNA@?6?$CJ?$AA@ 100e81e0     sqlite3.obj
 0002:000071e4       ??_C@_0O@BLHKEBID@CREATE?5TABLE?5?$AA@ 100e81e4     sqlite3.obj
 0002:000071f4       ??_C@_0DC@FOEHBEGD@AUTOINCREMENT?5not?5allowed?5on?5WIT@ 100e81f4     sqlite3.obj
 0002:00007228       ??_C@_0CA@OMALJPLC@PRIMARY?5KEY?5missing?5on?5table?5?$CFs?$AA@ 100e8228     sqlite3.obj
 0002:00007248       ??_C@_05HJCCDKBG@TABLE?$AA@ 100e8248     sqlite3.obj
 0002:00007250       ??_C@_04CHADEDPO@view?$AA@ 100e8250     sqlite3.obj
 0002:00007258       ??_C@_04OLDJKBIG@VIEW?$AA@ 100e8258     sqlite3.obj
 0002:00007260       ??_C@_0P@BPBAOJCC@CREATE?5?$CFs?5?$CF?4?$CKs?$AA@ 100e8260     sqlite3.obj
 0002:00007270       ??_C@_0FH@BLIGLCKI@UPDATE?5?$CFQ?4?$CFs?5SET?5type?$DN?8?$CFs?8?0?5name@ 100e8270     sqlite3.obj
 0002:000072c8       ??_C@_0CK@BLJIJAMD@CREATE?5TABLE?5?$CFQ?4sqlite_sequence?$CI@ 100e82c8     sqlite3.obj
 0002:000072f4       ??_C@_0CC@CBOBIFGC@tbl_name?$DN?8?$CFq?8?5AND?5type?$CB?$DN?8trigger@ 100e82f4     sqlite3.obj
 0002:00007318       ??_C@_0CE@HIMMFEMD@parameters?5are?5not?5allowed?5in?5vi@ 100e8318     sqlite3.obj
 0002:0000733c       ??_C@_0BO@BLAOKNKN@view?5?$CFs?5is?5circularly?5defined?$AA@ 100e833c     sqlite3.obj
 0002:0000735c       ??_C@_0DI@GKCMDFKF@UPDATE?5?$CFQ?4?$CFs?5SET?5rootpage?$DN?$CFd?5WHE@ 100e835c     sqlite3.obj
 0002:00007394       ??_C@_0O@IOJCPKAP@sqlite_stat?$CFd?$AA@ 100e8394     sqlite3.obj
 0002:000073a4       ??_C@_0CN@DKDOKGOO@DELETE?5FROM?5?$CFQ?4sqlite_sequence?5W@ 100e83a4     sqlite3.obj
 0002:000073d4       ??_C@_0DI@FOLLFOLB@DELETE?5FROM?5?$CFQ?4?$CFs?5WHERE?5tbl_name@ 100e83d4     sqlite3.obj
 0002:0000740c       ??_C@_0M@IHGMMCJN@sqlite_stat?$AA@ 100e840c     sqlite3.obj
 0002:00007418       ??_C@_0BM@JEGMLIGC@table?5?$CFs?5may?5not?5be?5dropped?$AA@ 100e8418     sqlite3.obj
 0002:00007434       ??_C@_0CC@HNNEDPB@use?5DROP?5TABLE?5to?5delete?5table?5?$CF@ 100e8434     sqlite3.obj
 0002:00007458       ??_C@_0CA@FJIHAAAA@use?5DROP?5VIEW?5to?5delete?5view?5?$CFs?$AA@ 100e8458     sqlite3.obj
 0002:00007478       ??_C@_0DP@HFDIOLMB@foreign?5key?5on?5?$CFs?5should?5referen@ 100e8478     sqlite3.obj
 0002:000074b8       ??_C@_0FO@BDBBNOLJ@number?5of?5columns?5in?5foreign?5key@ 100e84b8     sqlite3.obj
 0002:00007518       ??_C@_0CO@ECJPGOGF@unknown?5column?5?$CC?$CFs?$CC?5in?5foreign?5k@ 100e8518     sqlite3.obj
 0002:00007548       ??_C@_05FKHKFDID@index?$AA@ 100e8548     sqlite3.obj
 0002:00007550       ??_C@_0DC@MMFBMLFB@cannot?5create?5a?5TEMP?5index?5on?5no@ 100e8550     sqlite3.obj
 0002:00007584       ??_C@_09NGMBFCCJ@altertab_?$AA@ 100e8584     sqlite3.obj
 0002:00007590       ??_C@_0BM@KIGEJLNH@table?5?$CFs?5may?5not?5be?5indexed?$AA@ 100e8590     sqlite3.obj
 0002:000075ac       ??_C@_0BJ@CFGNJLOC@views?5may?5not?5be?5indexed?$AA@ 100e85ac     sqlite3.obj
 0002:000075c8       ??_C@_0CC@FKDNLIPM@virtual?5tables?5may?5not?5be?5indexe@ 100e85c8     sqlite3.obj
 0002:000075ec       ??_C@_0CC@CKJEJGLG@there?5is?5already?5a?5table?5named?5?$CF@ 100e85ec     sqlite3.obj
 0002:00007610       ??_C@_0BI@HPCDPJFN@index?5?$CFs?5already?5exists?$AA@ 100e8610     sqlite3.obj
 0002:00007628       ??_C@_0BH@HCCALECK@sqlite_autoindex_?$CFs_?$CFd?$AA@ 100e8628     sqlite3.obj
 0002:00007640       ??_C@_0DN@KANOKGBN@expressions?5prohibited?5in?5PRIMAR@ 100e8640     sqlite3.obj
 0002:00007680       ??_C@_0CK@BPKJMBLB@conflicting?5ON?5CONFLICT?5clauses?5@ 100e8680     sqlite3.obj
 0002:000076ac       ??_C@_07OGDPOKCI@?5UNIQUE?$AA@ 100e86ac     sqlite3.obj
 0002:000076b4       ??_C@_0BE@NHCJMGDI@CREATE?$CFs?5INDEX?5?$CF?4?$CKs?$AA@ 100e86b4     sqlite3.obj
 0002:000076c8       ??_C@_0DA@DLDDDEKN@INSERT?5INTO?5?$CFQ?4?$CFs?5VALUES?$CI?8index?8@ 100e86c8     sqlite3.obj
 0002:000076f8       ??_C@_0BL@CHCJOOMG@name?$DN?8?$CFq?8?5AND?5type?$DN?8index?8?$AA@ 100e86f8     sqlite3.obj
 0002:00007714       ??_C@_0BC@JBPCAJCH@no?5such?5index?3?5?$CFS?$AA@ 100e8714     sqlite3.obj
 0002:00007728       ??_C@_0EJ@MFMNFJHB@index?5associated?5with?5UNIQUE?5or?5@ 100e8728     sqlite3.obj
 0002:00007774       ??_C@_0DB@DNHAJCKG@DELETE?5FROM?5?$CFQ?4?$CFs?5WHERE?5name?$DN?$CFQ?5@ 100e8774     sqlite3.obj
 0002:000077a8       ??_C@_02BFICIOJL@ON?$AA@   100e87a8     sqlite3.obj
 0002:000077ac       ??_C@_05EOONBMLM@USING?$AA@ 100e87ac     sqlite3.obj
 0002:000077b4       ??_C@_0CE@GFPKLECD@a?5JOIN?5clause?5is?5required?5before@ 100e87b4     sqlite3.obj
 0002:000077d8       ??_C@_06IBPPMFNL@COMMIT?$AA@ 100e87d8     sqlite3.obj
 0002:000077e0       ??_C@_0EG@GIEOJFED@unable?5to?5open?5a?5temporary?5datab@ 100e87e0     sqlite3.obj
 0002:00007828       ??_C@_0L@FKJLCLHK@index?5?8?$CFq?8?$AA@ 100e8828     sqlite3.obj
 0002:00007834       ??_C@_02KEGNLNML@?0?5?$AA@ 100e8834     sqlite3.obj
 0002:00007838       ??_C@_08IBDKHCHA@?$CFs?4rowid?$AA@ 100e8838     sqlite3.obj
 0002:00007844       ??_C@_0CO@PMBDNHDC@unable?5to?5identify?5the?5object?5to@ 100e8844     sqlite3.obj
 0002:00007874       ??_C@_0BO@HBGGJFCF@duplicate?5WITH?5table?5name?3?5?$CFs?$AA@ 100e8874     sqlite3.obj
 0002:00007894       ??_C@_0BP@CGLMEPGG@no?5such?5collation?5sequence?3?5?$CFs?$AA@ 100e8894     sqlite3.obj
 0002:000078b4       ??_C@_0BN@GLMOOAMK@table?5?$CFs?5may?5not?5be?5modified?$AA@ 100e88b4     sqlite3.obj
 0002:000078d4       ??_C@_0CG@CNPJIJGN@cannot?5modify?5?$CFs?5because?5it?5is?5a@ 100e88d4     sqlite3.obj
 0002:000078fc       ??_C@_0N@DAGIBCDP@rows?5deleted?$AA@ 100e88fc     sqlite3.obj
 0002:0000790c       ??_C@_0BB@KBEKGHFK@integer?5overflow?$AA@ 100e890c     sqlite3.obj
 0002:00007920       ??_C@_04HGGMHPIM@?$CF?4?$CKf?$AA@ 100e8920     sqlite3.obj
 0002:00007928       ??_C@_0CB@LFIMBCA@LIKE?5or?5GLOB?5pattern?5too?5complex@ 100e8928     sqlite3.obj
 0002:0000794c       ??_C@_0CN@PAMOLCDH@ESCAPE?5expression?5must?5be?5a?5sing@ 100e894c     sqlite3.obj
 0002:0000797c       ??_C@_06CLNEDLBE@?$CF?$CB?420e?$AA@ 100e897c     sqlite3.obj
 0002:00007984       ??_C@_05JGHLFIHG@MATCH?$AA@ 100e8984     sqlite3.obj
 0002:0000798c       ??_C@_0CN@NOKHDNFH@foreign?5key?5mismatch?5?9?5?$CC?$CFw?$CC?5refe@ 100e898c     sqlite3.obj
 0002:000079bc       ??_C@_0CA@HKGLKLIP@table?5?$CFS?5has?5no?5column?5named?5?$CFs?$AA@ 100e89bc     sqlite3.obj
 0002:000079dc       ??_C@_0DE@HLHNLKJ@table?5?$CFS?5has?5?$CFd?5columns?5but?5?$CFd?5v@ 100e89dc     sqlite3.obj
 0002:00007a10       ??_C@_0BJ@IABIHKKK@?$CFd?5values?5for?5?$CFd?5columns?$AA@ 100e8a10     sqlite3.obj
 0002:00007a2c       ??_C@_0O@OMFDFDMH@rows?5inserted?$AA@ 100e8a2c     sqlite3.obj
 0002:00007a3c       ??_C@_0BH@NNAEMFED@sqlite3_extension_init?$AA@ 100e8a3c     sqlite3.obj
 0002:00007a54       ??_C@_0CD@FENJJFPL@unable?5to?5open?5shared?5library?5?$FL?$CF@ 100e8a54     sqlite3.obj
 0002:00007a78       ??_C@_08MIGLKGCA@sqlite3_?$AA@ 100e8a78     sqlite3.obj
 0002:00007a84       ??_C@_03LPIGJBNC@lib?$AA@  100e8a84     sqlite3.obj
 0002:00007a88       ??_C@_05PAGLDNCP@_init?$AA@ 100e8a88     sqlite3.obj
 0002:00007a90       ??_C@_0CL@IHPFGADB@no?5entry?5point?5?$FL?$CFs?$FN?5in?5shared?5li@ 100e8a90     sqlite3.obj
 0002:00007abc       ??_C@_0CA@BPLHPOIJ@error?5during?5initialization?3?5?$CFs?$AA@ 100e8abc     sqlite3.obj
 0002:00007adc       ??_C@_0CH@EKKEGGML@automatic?5extension?5loading?5fail@ 100e8adc     sqlite3.obj
 0002:00007b04       ??_C@_09JJPHINFN@exclusive?$AA@ 100e8b04     sqlite3.obj
 0002:00007b10       ??_C@_06IKLLLDHL@normal?$AA@ 100e8b10     sqlite3.obj
 0002:00007b18       ??_C@_04CGFJFPFD@none?$AA@ 100e8b18     sqlite3.obj
 0002:00007b20       ??_C@_04PLMLMMEO@full?$AA@ 100e8b20     sqlite3.obj
 0002:00007b28       ??_C@_0M@LPKHOAFP@incremental?$AA@ 100e8b28     sqlite3.obj
 0002:00007b34       ??_C@_0DO@MAKCDDCJ@temporary?5storage?5cannot?5be?5chan@ 100e8b34     sqlite3.obj
 0002:00007b74       ??_C@_08NNDOPPOM@SET?5NULL?$AA@ 100e8b74     sqlite3.obj
 0002:00007b80       ??_C@_0M@GCMLNHF@SET?5DEFAULT?$AA@ 100e8b80     sqlite3.obj
 0002:00007b8c       ??_C@_07JDMPGCJB@CASCADE?$AA@ 100e8b8c     sqlite3.obj
 0002:00007b94       ??_C@_08KJMJNHDG@RESTRICT?$AA@ 100e8b94     sqlite3.obj
 0002:00007ba0       ??_C@_09DBFINONP@NO?5ACTION?$AA@ 100e8ba0     sqlite3.obj
 0002:00007bac       ??_C@_03GMLCELFL@?9?$CFT?$AA@ 100e8bac     sqlite3.obj
 0002:00007bb0       ??_C@_04LBNBHAJC@fast?$AA@ 100e8bb0     sqlite3.obj
 0002:00007bb8       ??_C@_0BJ@INLPNACB@not?5a?5writable?5directory?$AA@ 100e8bb8     sqlite3.obj
 0002:00007bd4       ??_C@_0DF@GMDBDCKL@Safety?5level?5may?5not?5be?5changed?5@ 100e8bd4     sqlite3.obj
 0002:00007c0c       ??_C@_06OLNPHCKJ@issisi?$AA@ 100e8c0c     sqlite3.obj
 0002:00007c14       ??_C@_04MPAEKEAC@iisX?$AA@ 100e8c14     sqlite3.obj
 0002:00007c1c       ??_C@_04OBBBDFFP@isiX?$AA@ 100e8c1c     sqlite3.obj
 0002:00007c24       ??_C@_01PAPGNFGE@c?$AA@    100e8c24     sqlite3.obj
 0002:00007c28       ??_C@_01OMGOGALD@u?$AA@    100e8c28     sqlite3.obj
 0002:00007c2c       ??_C@_05HLBCCELP@isisi?$AA@ 100e8c2c     sqlite3.obj
 0002:00007c34       ??_C@_03MKDAGEFG@iss?$AA@  100e8c34     sqlite3.obj
 0002:00007c38       ??_C@_02EDKKPMHH@is?$AA@   100e8c38     sqlite3.obj
 0002:00007c3c       ??_C@_04OKGDLNCL@NONE?$AA@ 100e8c3c     sqlite3.obj
 0002:00007c44       ??_C@_08ODPJLLLG@iissssss?$AA@ 100e8c44     sqlite3.obj
 0002:00007c50       ??_C@_03JCFFAIGC@siX?$AA@  100e8c50     sqlite3.obj
 0002:00007c54       ??_C@_0BI@FOLPKNAK@?$CK?$CK?$CK?5in?5database?5?$CFs?5?$CK?$CK?$CK?6?$AA@ 100e8c54     sqlite3.obj
 0002:00007c6c       ??_C@_0BE@NPIDKCIA@NULL?5value?5in?5?$CFs?4?$CFs?$AA@ 100e8c6c     sqlite3.obj
 0002:00007c80       ??_C@_0BO@NENBDEJP@CHECK?5constraint?5failed?5in?5?$CFs?$AA@ 100e8c80     sqlite3.obj
 0002:00007ca0       ??_C@_04BNLAAGGP@row?5?$AA@ 100e8ca0     sqlite3.obj
 0002:00007ca8       ??_C@_0BF@JGBLFHJL@?5missing?5from?5index?5?$AA@ 100e8ca8     sqlite3.obj
 0002:00007cc0       ??_C@_0BL@POCBBOHD@non?9unique?5entry?5in?5index?5?$AA@ 100e8cc0     sqlite3.obj
 0002:00007cdc       ??_C@_0BN@JKHLHJNK@wrong?5?$CD?5of?5entries?5in?5index?5?$AA@ 100e8cdc     sqlite3.obj
 0002:00007cfc       ??_C@_02MFDMBIJM@ok?$AA@   100e8cfc     sqlite3.obj
 0002:00007d00       ??_C@_0BJ@GJBMJNNI@unsupported?5encoding?3?5?$CFs?$AA@ 100e8d00     sqlite3.obj
 0002:00007d1c       ??_C@_07LDHOHMPD@restart?$AA@ 100e8d1c     sqlite3.obj
 0002:00007d24       ??_C@_0BC@NAKLCPPI@ANALYZE?5?$CC?$CFw?$CC?4?$CC?$CFw?$CC?$AA@ 100e8d24     sqlite3.obj
 0002:00007d38       ??_C@_0P@JDEMFLCF@CREATE?5TABLE?5x?$AA@ 100e8d38     sqlite3.obj
 0002:00007d48       ??_C@_06KMJOPIAP@?$CFc?$CC?$CFs?$CC?$AA@ 100e8d48     sqlite3.obj
 0002:00007d50       ??_C@_05HICKGKEG@?$CI?$CC?$CFs?$CC?$AA@ 100e8d50     sqlite3.obj
 0002:00007d58       ??_C@_0M@MFJOEBHG@?0arg?5HIDDEN?$AA@ 100e8d58     sqlite3.obj
 0002:00007d64       ??_C@_0P@KHJMGPGI@?0schema?5HIDDEN?$AA@ 100e8d64     sqlite3.obj
 0002:00007d74       ??_C@_07NIMEDFOL@PRAGMA?5?$AA@ 100e8d74     sqlite3.obj
 0002:00007d7c       ??_C@_03CPCODCEE@?$CFQ?4?$AA@ 100e8d7c     sqlite3.obj
 0002:00007d80       ??_C@_03EBNMOIIB@?$DN?$CFQ?$AA@ 100e8d80     sqlite3.obj
 0002:00007d84       ??_C@_01OGPIMHDM@?$DP?$AA@ 100e8d84     sqlite3.obj
 0002:00007d88       ??_C@_0BP@EHGGIFII@malformed?5database?5schema?5?$CI?$CFs?$CJ?$AA@ 100e8d88     sqlite3.obj
 0002:00007da8       ??_C@_07MHAICMEC@?$CFz?5?9?5?$CFs?$AA@ 100e8da8     sqlite3.obj
 0002:00007db0       ??_C@_07HMOAJMHK@create?5?$AA@ 100e8db0     sqlite3.obj
 0002:00007db8       ??_C@_0BB@JDJPANJL@invalid?5rootpage?$AA@ 100e8db8     sqlite3.obj
 0002:00007dd0       ??_C@_0EI@PHDEEPEH@CREATE?5TABLE?5x?$CItype?5text?0name?5te@ 100e8dd0     sqlite3.obj
 0002:00007e18       ??_C@_0BI@FFDCNLCF@unsupported?5file?5format?$AA@ 100e8e18     sqlite3.obj
 0002:00007e30       ??_C@_0DH@KOGIOIF@SELECT?5name?0?5rootpage?0?5sql?5FROM?5@ 100e8e30     sqlite3.obj
 0002:00007e68       ??_C@_0BO@EBFEALBC@database?5schema?5is?5locked?3?5?$CFs?$AA@ 100e8e68     sqlite3.obj
 0002:00007e88       ??_C@_0BD@NDJILONF@statement?5too?5long?$AA@ 100e8e88     sqlite3.obj
 0002:00007e9c       ??_C@_0CM@LOMFMKCH@unknown?5or?5unsupported?5join?5type@ 100e8e9c     sqlite3.obj
 0002:00007ec8       ??_C@_0DH@LJEHIDDA@RIGHT?5and?5FULL?5OUTER?5JOINs?5are?5n@ 100e8ec8     sqlite3.obj
 0002:00007f00       ??_C@_0DC@NBGJANJH@a?5NATURAL?5join?5may?5not?5have?5an?5O@ 100e8f00     sqlite3.obj
 0002:00007f34       ??_C@_0DH@DHMOHNCE@cannot?5have?5both?5ON?5and?5USING?5cl@ 100e8f34     sqlite3.obj
 0002:00007f70       ??_C@_0EA@LFCKDDII@cannot?5join?5using?5column?5?$CFs?5?9?5co@ 100e8f70     sqlite3.obj
 0002:00007fb0       ??_C@_09CDPONBKL@UNION?5ALL?$AA@ 100e8fb0     sqlite3.obj
 0002:00007fbc       ??_C@_09JBOBNLLF@INTERSECT?$AA@ 100e8fbc     sqlite3.obj
 0002:00007fc8       ??_C@_06JFIPMMLD@EXCEPT?$AA@ 100e8fc8     sqlite3.obj
 0002:00007fd0       ??_C@_05GJNJOPB@UNION?$AA@ 100e8fd0     sqlite3.obj
 0002:00007fd8       ??_C@_0BH@JCGMDKCI@USE?5TEMP?5B?9TREE?5FOR?5?$CFs?$AA@ 100e8fd8     sqlite3.obj
 0002:00007ff0       ??_C@_0BD@INMGDFNB@USING?5TEMP?5B?9TREE?5?$AA@ 100e8ff0     sqlite3.obj
 0002:00008004       ??_C@_0CF@IFPCHLOK@COMPOUND?5SUBQUERIES?5?$CFd?5AND?5?$CFd?5?$CFs@ 100e9004     sqlite3.obj
 0002:0000802c       ??_C@_08OHGGEHKA@column?$CFd?$AA@ 100e902c     sqlite3.obj
 0002:00008038       ??_C@_07FCMEMBCG@?$CF?4?$CKz?3?$CFu?$AA@ 100e9038     sqlite3.obj
 0002:00008040       ??_C@_0CK@HHBJKMKL@recursive?5aggregate?5queries?5not?5@ 100e9040     sqlite3.obj
 0002:0000806c       ??_C@_08BKIJJFKP@ORDER?5BY?$AA@ 100e906c     sqlite3.obj
 0002:00008078       ??_C@_05KLKGAAIM@LIMIT?$AA@ 100e9078     sqlite3.obj
 0002:00008080       ??_C@_0CK@PJFEEKBP@?$CFs?5clause?5should?5come?5after?5?$CFs?5n@ 100e9080     sqlite3.obj
 0002:000080ac       ??_C@_0CO@DAHFDIDO@all?5VALUES?5must?5have?5the?5same?5nu@ 100e90ac     sqlite3.obj
 0002:000080e0       ??_C@_0FC@CMDCIIHA@SELECTs?5to?5the?5left?5and?5right?5of@ 100e90e0     sqlite3.obj
 0002:00008134       ??_C@_0BC@EHGCNIF@no?5such?5index?3?5?$CFs?$AA@ 100e9134     sqlite3.obj
 0002:00008148       ??_C@_0BH@COPFJELM@?8?$CFs?8?5is?5not?5a?5function?$AA@ 100e9148     sqlite3.obj
 0002:00008160       ??_C@_0CL@CKHNGNG@multiple?5references?5to?5recursive@ 100e9160     sqlite3.obj
 0002:0000818c       ??_C@_0BH@IJPFMMLM@circular?5reference?3?5?$CFs?$AA@ 100e918c     sqlite3.obj
 0002:000081a4       ??_C@_0CG@GEPIMHHM@table?5?$CFs?5has?5?$CFd?5values?5for?5?$CFd?5co@ 100e91a4     sqlite3.obj
 0002:000081cc       ??_C@_0CC@BILCKNBO@multiple?5recursive?5references?3?5?$CF@ 100e91cc     sqlite3.obj
 0002:000081f0       ??_C@_0CG@CINNECCN@recursive?5reference?5in?5a?5subquer@ 100e91f0     sqlite3.obj
 0002:00008218       ??_C@_0M@GHIAKHDF@subquery_?$CFp?$AA@ 100e9218     sqlite3.obj
 0002:00008224       ??_C@_0CH@HMBFCKPN@too?5many?5references?5to?5?$CC?$CFs?$CC?3?5max@ 100e9224     sqlite3.obj
 0002:0000824c       ??_C@_01NBENCBCI@?$CK?$AA@ 100e924c     sqlite3.obj
 0002:00008250       ??_C@_08PPKHIAKG@?$CFs?4?$CFs?4?$CFs?$AA@ 100e9250     sqlite3.obj
 0002:0000825c       ??_C@_0BC@OFCALFBN@no?5such?5table?3?5?$CFs?$AA@ 100e925c     sqlite3.obj
 0002:00008270       ??_C@_0BE@EGLAAHPP@no?5tables?5specified?$AA@ 100e9270     sqlite3.obj
 0002:00008284       ??_C@_0BP@JFMLENOH@too?5many?5columns?5in?5result?5set?$AA@ 100e9284     sqlite3.obj
 0002:000082a4       ??_C@_0DD@MKKFPBAF@DISTINCT?5aggregates?5must?5have?5ex@ 100e92a4     sqlite3.obj
 0002:000082d8       ??_C@_0BH@EIOOLNKK@?5USING?5COVERING?5INDEX?5?$AA@ 100e92d8     sqlite3.obj
 0002:000082f0       ??_C@_0BC@NNECCOGJ@SCAN?5TABLE?5?$CFs?$CFs?$CFs?$AA@ 100e92f0     sqlite3.obj
 0002:00008304       ??_C@_0CI@GMLFBPGG@expected?5?$CFd?5columns?5for?5?8?$CFs?8?5but@ 100e9304     sqlite3.obj
 0002:0000832c       ??_C@_08KLFLGHKI@DISTINCT?$AA@ 100e932c     sqlite3.obj
 0002:00008338       ??_C@_08NKEADCLG@GROUP?5BY?$AA@ 100e9338     sqlite3.obj
 0002:00008344       ??_C@_0BH@IOPKGOOF@RIGHT?5PART?5OF?5ORDER?5BY?$AA@ 100e9344     sqlite3.obj
 0002:00008360       ??_C@_0EB@PHGCKHIG@sqlite3_get_table?$CI?$CJ?5called?5with?5@ 100e9360     sqlite3.obj
 0002:000083a4       ??_C@_0CO@CGGBEMGD@temporary?5trigger?5may?5not?5have?5q@ 100e93a4     sqlite3.obj
 0002:000083d4       ??_C@_07DIDNFGDE@trigger?$AA@ 100e93d4     sqlite3.obj
 0002:000083dc       ??_C@_0CJ@KLDCMPKB@cannot?5create?5triggers?5on?5virtua@ 100e93dc     sqlite3.obj
 0002:00008408       ??_C@_0BK@IACDKJFA@trigger?5?$CFT?5already?5exists?$AA@ 100e9408     sqlite3.obj
 0002:00008424       ??_C@_0CG@JAGCNIHD@cannot?5create?5trigger?5on?5system?5@ 100e9424     sqlite3.obj
 0002:0000844c       ??_C@_06BIGAHLBC@BEFORE?$AA@ 100e944c     sqlite3.obj
 0002:00008454       ??_C@_05OHDJMCHE@AFTER?$AA@ 100e9454     sqlite3.obj
 0002:0000845c       ??_C@_0CF@CNPIEMED@cannot?5create?5?$CFs?5trigger?5on?5view@ 100e945c     sqlite3.obj
 0002:00008484       ??_C@_0CO@GJNALGCE@cannot?5create?5INSTEAD?5OF?5trigger@ 100e9484     sqlite3.obj
 0002:000084b8       ??_C@_0EA@IJNEMIHP@INSERT?5INTO?5?$CFQ?4?$CFs?5VALUES?$CI?8trigge@ 100e94b8     sqlite3.obj
 0002:000084f8       ??_C@_0BN@JFPIJHCG@type?$DN?8trigger?8?5AND?5name?$DN?8?$CFq?8?$AA@ 100e94f8     sqlite3.obj
 0002:00008518       ??_C@_0BE@ELCABEID@no?5such?5trigger?3?5?$CFS?$AA@ 100e9518     sqlite3.obj
 0002:0000852c       ??_C@_0DD@OCMFALEA@DELETE?5FROM?5?$CFQ?4?$CFs?5WHERE?5name?$DN?$CFQ?5@ 100e952c     sqlite3.obj
 0002:00008560       ??_C@_0O@JKBKLFDA@?9?9?5TRIGGER?5?$CFs?$AA@ 100e9560     sqlite3.obj
 0002:00008570       ??_C@_0BD@IEIMFPKF@no?5such?5column?3?5?$CFs?$AA@ 100e9570     sqlite3.obj
 0002:00008584       ??_C@_0N@KMEMLEEO@rows?5updated?$AA@ 100e9584     sqlite3.obj
 0002:00008594       ??_C@_0CI@CPMJIPOI@cannot?5VACUUM?5from?5within?5a?5tran@ 100e9594     sqlite3.obj
 0002:000085bc       ??_C@_0CL@HKLPPLKM@cannot?5VACUUM?5?9?5SQL?5statements?5i@ 100e95bc     sqlite3.obj
 0002:000085e8       ??_C@_0BF@IBNJBCD@ATTACH?8?8AS?5vacuum_db?$AA@ 100e95e8     sqlite3.obj
 0002:00008600       ??_C@_0GM@GOHMCDJN@SELECT?5sql?5FROM?5?$CC?$CFw?$CC?4sqlite_mast@ 100e9600     sqlite3.obj
 0002:00008670       ??_C@_0EJ@NHLMFICD@SELECT?5sql?5FROM?5?$CC?$CFw?$CC?4sqlite_mast@ 100e9670     sqlite3.obj
 0002:000086c0       ??_C@_0JH@HEHPCDOG@SELECT?8INSERT?5INTO?5vacuum_db?4?8?$HM?$HM@ 100e96c0     sqlite3.obj
 0002:00008758       ??_C@_0IC@HHOGFJCL@INSERT?5INTO?5vacuum_db?4sqlite_mas@ 100e9758     sqlite3.obj
 0002:000087dc       ??_C@_0BI@PDMEEOA@CREATE?5VIRTUAL?5TABLE?5?$CFT?$AA@ 100e97dc     sqlite3.obj
 0002:000087f8       ??_C@_0FI@IFIJAFLJ@UPDATE?5?$CFQ?4?$CFs?5SET?5type?$DN?8table?8?0?5n@ 100e97f8     sqlite3.obj
 0002:00008850       ??_C@_0BL@DGMACLBE@name?$DN?8?$CFq?8?5AND?5type?$DN?8table?8?$AA@ 100e9850     sqlite3.obj
 0002:0000886c       ??_C@_0CK@JFGPKPML@vtable?5constructor?5called?5recurs@ 100e986c     sqlite3.obj
 0002:00008898       ??_C@_0BO@DEKEKMPI@vtable?5constructor?5failed?3?5?$CFs?$AA@ 100e9898     sqlite3.obj
 0002:000088b8       ??_C@_0CO@NAIIFAKI@vtable?5constructor?5did?5not?5decla@ 100e98b8     sqlite3.obj
 0002:000088e8       ??_C@_06JIKFICKK@hidden?$AA@ 100e98e8     sqlite3.obj
 0002:000088f0       ??_C@_0BD@KBJCCNMM@no?5such?5module?3?5?$CFs?$AA@ 100e98f0     sqlite3.obj
 0002:00008904       ??_C@_06OBEENNJP@?$DMexpr?$DO?$AA@ 100e9904     sqlite3.obj
 0002:0000890c       ??_C@_05LFNOAECD@?5AND?5?$AA@ 100e990c     sqlite3.obj
 0002:00008914       ??_C@_01ODHLEDKK@?$CI?$AA@ 100e9914     sqlite3.obj
 0002:00008918       ??_C@_02GFKOMOKH@?5?$CI?$AA@ 100e9918     sqlite3.obj
 0002:0000891c       ??_C@_04DNBLPLBL@?$CFs?$DN?$DP?$AA@ 100e991c     sqlite3.obj
 0002:00008924       ??_C@_07DEPDMHNF@ANY?$CI?$CFs?$CJ?$AA@ 100e9924     sqlite3.obj
 0002:0000892c       ??_C@_01PPODPGHN@?$DO?$AA@ 100e992c     sqlite3.obj
 0002:00008930       ??_C@_01MNNFJEPP@?$DM?$AA@ 100e9930     sqlite3.obj
 0002:00008934       ??_C@_06GBNAAIDA@SEARCH?$AA@ 100e9934     sqlite3.obj
 0002:0000893c       ??_C@_04NAGNMPFG@SCAN?$AA@ 100e993c     sqlite3.obj
 0002:00008944       ??_C@_0N@BOAKKPBG@?5SUBQUERY?5?$CFd?$AA@ 100e9944     sqlite3.obj
 0002:00008954       ??_C@_09DIBKDOCO@?5TABLE?5?$CFs?$AA@ 100e9954     sqlite3.obj
 0002:00008960       ??_C@_06IMDPHEMP@?5AS?5?$CFs?$AA@ 100e9960     sqlite3.obj
 0002:00008968       ??_C@_0M@DPPBPFJP@PRIMARY?5KEY?$AA@ 100e9968     sqlite3.obj
 0002:00008974       ??_C@_0CB@HEDLDBJB@AUTOMATIC?5PARTIAL?5COVERING?5INDEX@ 100e9974     sqlite3.obj
 0002:00008998       ??_C@_0BJ@OBMPNMAB@AUTOMATIC?5COVERING?5INDEX?$AA@ 100e9998     sqlite3.obj
 0002:000089b4       ??_C@_0BC@JHKMHKPK@COVERING?5INDEX?5?$CFs?$AA@ 100e99b4     sqlite3.obj
 0002:000089c8       ??_C@_08CKMEMBGN@INDEX?5?$CFs?$AA@ 100e99c8     sqlite3.obj
 0002:000089d4       ??_C@_07FGCFFEFI@?5USING?5?$AA@ 100e99d4     sqlite3.obj
 0002:000089dc       ??_C@_01NEMOKFLO@?$DN?$AA@ 100e99dc     sqlite3.obj
 0002:000089e0       ??_C@_0O@CICIFHFH@?$DO?$DP?5AND?5rowid?$DM?$AA@ 100e99e0     sqlite3.obj
 0002:000089f0       ??_C@_0CG@OJDGGIHC@?5USING?5INTEGER?5PRIMARY?5KEY?5?$CIrowi@ 100e99f0     sqlite3.obj
 0002:00008a18       ??_C@_0BL@NFGDLEEC@?5VIRTUAL?5TABLE?5INDEX?5?$CFd?3?$CFs?$AA@ 100e9a18     sqlite3.obj
 0002:00008a34       ??_C@_0CJ@DOAPMDLM@ON?5clause?5references?5tables?5to?5i@ 100e9a34     sqlite3.obj
 0002:00008a60       ??_C@_06FHKGKAHE@NOCASE?$AA@ 100e9a60     sqlite3.obj
 0002:00008a68       ??_C@_0CE@MBDKDMPE@too?5many?5arguments?5on?5?$CFs?$CI?$CJ?5?9?5max@ 100e9a68     sqlite3.obj
 0002:00008a8c       ??_C@_0BK@FFCJJLEP@automatic?5index?5on?5?$CFs?$CI?$CFs?$CJ?$AA@ 100e9a8c     sqlite3.obj
 0002:00008aa8       ??_C@_0L@LOLDMHK@auto?9index?$AA@ 100e9aa8     sqlite3.obj
 0002:00008ab4       ??_C@_0BK@BDHGLICJ@?$CFs?4xBestIndex?5malfunction?$AA@ 100e9ab4     sqlite3.obj
 0002:00008ad0       ??_C@_0BC@CBDLPDHH@no?5query?5solution?$AA@ 100e9ad0     sqlite3.obj
 0002:00008ae4       ??_C@_0BM@BLDEAGOK@at?5most?5?$CFd?5tables?5in?5a?5join?$AA@ 100e9ae4     sqlite3.obj
 0002:00008b00       ??_C@_0CC@DHLFNDIF@too?5many?5terms?5in?5compound?5SELEC@ 100e9b00     sqlite3.obj
 0002:00008b24       ??_C@_0CG@KKIPIFCN@syntax?5error?5after?5column?5name?5?$CC@ 100e9b24     sqlite3.obj
 0002:00008b4c       ??_C@_0BG@FMAEELCM@parser?5stack?5overflow?$AA@ 100e9b4c     sqlite3.obj
 0002:00008b64       ??_C@_0BL@DBADNDMB@unknown?5table?5option?3?5?$CF?4?$CKs?$AA@ 100e9b64     sqlite3.obj
 0002:00008b80       ??_C@_08FAFAADKO@set?5list?$AA@ 100e9b80     sqlite3.obj
 0002:00008b8c       ??_C@_0BI@CBJKLAIG@near?5?$CC?$CFT?$CC?3?5syntax?5error?$AA@ 100e9b8c     sqlite3.obj
 0002:00008ba4       ??_C@_0CC@BHLMPGNH@too?5many?5arguments?5on?5function?5?$CF@ 100e9ba4     sqlite3.obj
 0002:00008bc8       ??_C@_0FP@BDHEAEAL@qualified?5table?5names?5are?5not?5al@ 100e9bc8     sqlite3.obj
 0002:00008c28       ??_C@_0FE@ONDNFGPP@the?5INDEXED?5BY?5clause?5is?5not?5all@ 100e9c28     sqlite3.obj
 0002:00008c80       ??_C@_0FF@IPEGLKPG@the?5NOT?5INDEXED?5clause?5is?5not?5al@ 100e9c80     sqlite3.obj
 0002:00008cd8       ??_C@_0BL@EHMGGKMK@unrecognized?5token?3?5?$CC?$CF?4?$CKs?$CC?$AA@ 100e9cd8     sqlite3.obj
 0002:00008cf4       ??_C@_06HBNONAG@create?$AA@ 100e9cf4     sqlite3.obj
 0002:00008cfc       ??_C@_04FGEHGIFJ@temp?$AA@ 100e9cfc     sqlite3.obj
 0002:00008d04       ??_C@_09CAHPDAG@temporary?$AA@ 100e9d04     sqlite3.obj
 0002:00008d10       ??_C@_03JBJLGPFL@end?$AA@  100e9d10     sqlite3.obj
 0002:00008d14       ??_C@_07LFFDKBGI@explain?$AA@ 100e9d14     sqlite3.obj
 0002:00008d20       ??_C@_0EE@DHFGJPIC@unable?5to?5close?5due?5to?5unfinaliz@ 100e9d20     sqlite3.obj
 0002:00008d64       ??_C@_0O@BFJCFAAK@unknown?5error?$AA@ 100e9d64     sqlite3.obj
 0002:00008d74       ??_C@_0BG@MJDEINHO@abort?5due?5to?5ROLLBACK?$AA@ 100e9d74     sqlite3.obj
 0002:00008d8c       ??_C@_0DP@BDIELDAF@unable?5to?5delete?1modify?5user?9fun@ 100e9d8c     sqlite3.obj
 0002:00008dcc       ??_C@_0BF@HAJMIPDB@unknown?5database?3?5?$CFs?$AA@ 100e9dcc     sqlite3.obj
 0002:00008de8       ??_C@_0EE@IKACNBHK@unable?5to?5delete?1modify?5collatio@ 100e9de8     sqlite3.obj
 0002:00008e2c       ??_C@_05BOPHDICO@file?3?$AA@ 100e9e2c     sqlite3.obj
 0002:00008e34       ??_C@_09IPAEKDAI@localhost?$AA@ 100e9e34     sqlite3.obj
 0002:00008e40       ??_C@_0BM@COJKMEBB@invalid?5uri?5authority?3?5?$CF?4?$CKs?$AA@ 100e9e40     sqlite3.obj
 0002:00008e5c       ??_C@_03NIKHECAE@vfs?$AA@  100e9e5c     sqlite3.obj
 0002:00008e60       ??_C@_05BDNCCAMC@cache?$AA@ 100e9e60     sqlite3.obj
 0002:00008e68       ??_C@_04GMGOKAFF@mode?$AA@ 100e9e68     sqlite3.obj
 0002:00008e70       ??_C@_06EBPNOMLE@access?$AA@ 100e9e70     sqlite3.obj
 0002:00008e78       ??_C@_0BE@CEDEHNFE@no?5such?5?$CFs?5mode?3?5?$CFs?$AA@ 100e9e78     sqlite3.obj
 0002:00008e8c       ??_C@_0BI@PGEAHBFI@?$CFs?5mode?5not?5allowed?3?5?$CFs?$AA@ 100e9e8c     sqlite3.obj
 0002:00008ea4       ??_C@_0BA@JNKNNOBA@no?5such?5vfs?3?5?$CFs?$AA@ 100e9ea4     sqlite3.obj
 0002:00008eb4       ??_C@_05JJHANOIF@RTRIM?$AA@ 100e9eb4     sqlite3.obj
 0002:00008ebc       ??_C@_02LOCGON@?$AA?$AA?$AA@ 100e9ebc     sqlite3.obj
 0002:00008ec0       ??_C@_0BJ@ICCNDDFO@?$CFs?5at?5line?5?$CFd?5of?5?$FL?$CF?410s?$FN?$AA@ 100e9ec0     sqlite3.obj
 0002:00008edc       ??_C@_0BE@FNOILMBA@database?5corruption?$AA@ 100e9edc     sqlite3.obj
 0002:00008ef0       ??_C@_06LKHNAGM@misuse?$AA@ 100e9ef0     sqlite3.obj
 0002:00008ef8       ??_C@_0BB@HMGEDEGN@cannot?5open?5file?$AA@ 100e9ef8     sqlite3.obj
 0002:00008f0c       ??_C@_0BM@OILBPENI@no?5such?5table?5column?3?5?$CFs?4?$CFs?$AA@ 100e9f0c     sqlite3.obj
 0002:00008f28       ??_C@_07OGLCFANK@SQLITE_?$AA@ 100e9f28     sqlite3.obj
 0002:00008f30       ??_C@_0FF@HMKMDDH@2017?910?924?518?355?349?51a584e499906@ 100e9f30     sqlite3.obj
 0002:00008f88       __real@0000000000000000    100e9f88     sqlite3.obj
 0002:00008f90       __real@3e45798ee2308c3a    100e9f90     sqlite3.obj
 0002:00008f98       __real@3fb999999999999a    100e9f98     sqlite3.obj
 0002:00008fa0       __real@3fe0000000000000    100e9fa0     sqlite3.obj
 0002:00008fa8       __real@401c000000000000    100e9fa8     sqlite3.obj
 0002:00008fb0       __real@4024000000000000    100e9fb0     sqlite3.obj
 0002:00008fb8       __real@4034000000000000    100e9fb8     sqlite3.obj
 0002:00008fc0       __real@403e99a027525461    100e9fc0     sqlite3.obj
 0002:00008fc8       __real@4048000000000000    100e9fc8     sqlite3.obj
 0002:00008fd0       __real@404dffdf3b645a1d    100e9fd0     sqlite3.obj
 0002:00008fd8       __real@405e866666666666    100e9fd8     sqlite3.obj
 0002:00008fe0       __real@4076d40000000000    100e9fe0     sqlite3.obj
 0002:00008fe8       __real@408f400000000000    100e9fe8     sqlite3.obj
 0002:00008ff0       __real@4097d20000000000    100e9ff0     sqlite3.obj
 0002:00008ff8       __real@40e1d58800000000    100e9ff8     sqlite3.obj
 0002:00009000       __real@413c7dd040000000    100ea000     sqlite3.obj
 0002:00009008       __real@41547f8b20000000    100ea008     sqlite3.obj
 0002:00009010       __real@4194997000000000    100ea010     sqlite3.obj
 0002:00009018       __real@4197d78400000000    100ea018     sqlite3.obj
 0002:00009020       __real@41a0000000000000    100ea020     sqlite3.obj
 0002:00009028       __real@41ddcd6500000000    100ea028     sqlite3.obj
 0002:00009030       __real@41dfffffffc00000    100ea030     sqlite3.obj
 0002:00009038       __real@4202a05f20000000    100ea038     sqlite3.obj
 0002:00009040       __real@42e7f907ca644000    100ea040     sqlite3.obj
 0002:00009048       __real@42fa6401072fe000    100ea048     sqlite3.obj
 0002:00009050       __real@43e0000000000000    100ea050     sqlite3.obj
 0002:00009058       __real@4480f0cf064dd592    100ea058     sqlite3.obj
 0002:00009060       __real@546d42aea2879f2e    100ea060     sqlite3.obj
 0002:00009068       __real@54b249ad2594c37d    100ea068     sqlite3.obj
 0002:00009070       __real@7f800000            100ea070     sqlite3.obj
 0002:00009078       __real@7fe1ccf385ebc8a0    100ea078     sqlite3.obj
 0002:00009080       __real@8000000000000000    100ea080     sqlite3.obj
 0002:00009088       __real@bfe0000000000000    100ea088     sqlite3.obj
 0002:00009090       __real@bff0000000000000    100ea090     sqlite3.obj
 0002:00009098       __real@c3e0000000000000    100ea098     sqlite3.obj
 0002:000090a0       __xmm@80000000000000008000000000000000 100ea0a0     sqlite3.obj
 0002:000090b4       ??_7exception@std@@6B@     100ea0b4     MyDynLib.obj
 0002:000090bc       ??_C@_0BC@EOODALEL@Unknown?5exception?$AA@ 100ea0bc     MyDynLib.obj
 0002:000090d0       ??_C@_1NC@LGJMFBHG@?$AAc?$AA?3?$AA?2?$AAp?$AAr?$AAo?$AAg?$AAr?$AAa?$AAm?$AA?5?$AAf?$AAi?$AAl?$AAe?$AAs?$AA?5?$AA?$CI?$AAx?$AA8?$AA6?$AA?$CJ?$AA?2?$AAm?$AAi?$AAc?$AAr?$AAo?$AAs?$AAo?$AAf?$AAt@ 100ea0d0     MyDynLib.obj
 0002:000091a4       ??_C@_1DC@POOIKBAO@?$AAI?$AAT?$AAE?$AAR?$AAA?$AAT?$AAO?$AAR?$AA?5?$AAL?$AAI?$AAS?$AAT?$AA?5?$AAC?$AAO?$AAR?$AAR?$AAU?$AAP?$AAT?$AAE?$AAD?$AA?$CB?$AA?$AA@ 100ea1a4     MyDynLib.obj
 0002:000091d8       ??_C@_1EE@KLDMFDFL@?$AAs?$AAt?$AAd?$AA?3?$AA?3?$AA_?$AAI?$AAt?$AAe?$AAr?$AAa?$AAt?$AAo?$AAr?$AA_?$AAb?$AAa?$AAs?$AAe?$AA1?$AA2?$AA?3?$AA?3?$AA_?$AAO?$AAr?$AAp?$AAh?$AAa?$AAn?$AA_?$AAm@ 100ea1d8     MyDynLib.obj
 0002:0000921c       ??_C@_1DG@PLBPCAEM@?$AA?$CC?$AAI?$AAT?$AAE?$AAR?$AAA?$AAT?$AAO?$AAR?$AA?5?$AAL?$AAI?$AAS?$AAT?$AA?5?$AAC?$AAO?$AAR?$AAR?$AAU?$AAP?$AAT?$AAE?$AAD?$AA?$CB?$AA?$CC?$AA?$AA@ 100ea21c     MyDynLib.obj
 0002:00009254       ??_C@_0BE@LMNLACIC@_Ptr_container?5?$CB?$DN?50?$AA@ 100ea254     MyDynLib.obj
 0002:00009268       ??_C@_1DG@HGDKEBPG@?$AA?$CC?$AA_?$AAP?$AAt?$AAr?$AA_?$AAc?$AAo?$AAn?$AAt?$AAa?$AAi?$AAn?$AAe?$AAr?$AA?5?$AA?$CB?$AA?$DN?$AA?5?$AA0?$AA?$CC?$AA?5?$AA?$CG?$AA?$CG?$AA?5?$AA0?$AA?$AA@ 100ea268     MyDynLib.obj
 0002:000092a0       ??_C@_17CNPHIMPH@?$AA?$CF?$AAl?$AAs?$AA?$AA@ 100ea2a0     MyDynLib.obj
 0002:000092a8       ??_C@_1NC@ELHHIENF@?$AAc?$AA?3?$AA?2?$AAp?$AAr?$AAo?$AAg?$AAr?$AAa?$AAm?$AA?5?$AAf?$AAi?$AAl?$AAe?$AAs?$AA?5?$AA?$CI?$AAx?$AA8?$AA6?$AA?$CJ?$AA?2?$AAm?$AAi?$AAc?$AAr?$AAo?$AAs?$AAo?$AAf?$AAt@ 100ea2a8     MyDynLib.obj
 0002:0000937c       ??_C@_1BO@NKFMJPA@?$AAs?$AAt?$AAd?$AA?3?$AA?3?$AA_?$AAA?$AAl?$AAl?$AAo?$AAc?$AAa?$AAt?$AAe?$AA?$AA@ 100ea37c     MyDynLib.obj
 0002:0000939c       ??_C@_1CG@JNLFBNGN@?$AA?$CC?$AAi?$AAn?$AAv?$AAa?$AAl?$AAi?$AAd?$AA?5?$AAa?$AAr?$AAg?$AAu?$AAm?$AAe?$AAn?$AAt?$AA?$CC?$AA?$AA@ 100ea39c     MyDynLib.obj
 0002:000093c4       ??_C@_09GLJCAGLP@_Ptr?5?$CB?$DN?50?$AA@ 100ea3c4     MyDynLib.obj
 0002:000093d0       ??_C@_1CC@GKJLLHIM@?$AA?$CC?$AA_?$AAP?$AAt?$AAr?$AA?5?$AA?$CB?$AA?$DN?$AA?5?$AA0?$AA?$CC?$AA?5?$AA?$CG?$AA?$CG?$AA?5?$AA0?$AA?$AA@ 100ea3d0     MyDynLib.obj
 0002:000093f4       ??_C@_1CC@LOFJFFDB@?$AAs?$AAt?$AAd?$AA?3?$AA?3?$AA_?$AAD?$AAe?$AAa?$AAl?$AAl?$AAo?$AAc?$AAa?$AAt?$AAe?$AA?$AA@ 100ea3f4     MyDynLib.obj
 0002:00009418       ?npos@?$basic_string@DU?$char_traits@D@std@@V?$allocator@D@2@@std@@2IB 100ea418     MyDynLib.obj
 0002:00009420       ??_7IResource@@6B@         100ea420     MyDynLib.obj
 0002:00009434       ??_7IImageResource@@6B@    100ea434     MyDynLib.obj
 0002:00009454       ??_7IVideoResource@@6B@    100ea454     MyDynLib.obj
 0002:00009470       ??_7IResourceCollection@@6B@ 100ea470     MyDynLib.obj
 0002:00009484       ??_7bad_cast@std@@6B@      100ea484     MyDynLib.obj
 0002:0000948c       ??_C@_08EPJLHIJG@bad?5cast?$AA@ 100ea48c     MyDynLib.obj
 0002:00009498       ??_C@_08HOGDNJKK@?$CFs?5?$DN?5?$CFs?6?$AA@ 100ea498     MyDynLib.obj
 0002:000094a4       ??_C@_0BJ@NLPGFDPL@Can?8t?5open?5database?3?5?$CFs?6?$AA@ 100ea4a4     MyDynLib.obj
 0002:000094c0       ??_C@_0BO@HFMBMCGJ@Opened?5database?5successfully?6?$AA@ 100ea4c0     MyDynLib.obj
 0002:000094e0       ??_C@_0P@BCAIDGMJ@SQL?5error?3?5?$CFs?6?$AA@ 100ea4e0     MyDynLib.obj
 0002:000094f0       ??_C@_0BM@KEJIAIOP@Table?5created?5successfully?6?$AA@ 100ea4f0     MyDynLib.obj
 0002:0000950c       ??_C@_0BO@LOAFDLEN@Records?5created?5successfully?6?$AA@ 100ea50c     MyDynLib.obj
 0002:0000952c       ??_C@_0BJ@KBBOBPLL@Callback?5function?5called?$AA@ 100ea52c     MyDynLib.obj
 0002:00009548       ??_C@_0BN@JNNMDBPE@Operation?5done?5successfully?6?$AA@ 100ea548     MyDynLib.obj
 0002:0000956c       ??_7CResource@@6B@         100ea56c     MyDynLib.obj
 0002:0000957c       ??_C@_0BC@DOPFGBDE@Resource?5created?4?$AA@ 100ea57c     MyDynLib.obj
 0002:00009594       ??_7CImageResource@@6B@    100ea594     MyDynLib.obj
 0002:000095b4       ??_7CResourceCollection@@6B@ 100ea5b4     MyDynLib.obj
 0002:000095c4       ??_C@_0O@GDKBCEKJ@collection?4db?$AA@ 100ea5c4     MyDynLib.obj
 0002:000095d4       ??_C@_0BN@DAJGPCKB@Resource?5Collection?5created?4?$AA@ 100ea5d4     MyDynLib.obj
 0002:000095f8       ??_7?$basic_filebuf@DU?$char_traits@D@std@@@std@@6B@ 100ea5f8     MyDynLib.obj
 0002:00009638       ??_7?$basic_ifstream@DU?$char_traits@D@std@@@std@@6B@ 100ea638     MyDynLib.obj
 0002:0000963c       ??_8?$basic_ifstream@DU?$char_traits@D@std@@@std@@7B@ 100ea63c     MyDynLib.obj
 0002:00009644       ??_C@_02JDPG@rb?$AA@       100ea644     MyDynLib.obj
 0002:00009648       ??_C@_0BN@FMFGBADI@Error?5opening?5jpeg?5file?5?$CFs?6?$CB?$AA@ 100ea648     MyDynLib.obj
 0002:00009668       ??_C@_04GNPKBLNA@?4jpg?$AA@ 100ea668     MyDynLib.obj
 0002:00009670       ??_C@_0DC@BKNBHNOI@Image?5File?5id?3?$CFllu?0?5path?3?$CFs?5adde@ 100ea670     MyDynLib.obj
 0002:000096a4       ??_C@_0DE@ICFFPICP@Unknown?5File?5id?3?$CFllu?0?5path?3?$CFs?5ad@ 100ea6a4     MyDynLib.obj
 0002:000096d8       ??_C@_02LJALELK@?$CJ?$DL?$AA@ 100ea6d8     MyDynLib.obj
 0002:000096dc       ??_C@_03EHINCMEC@?8?0?5?$AA@ 100ea6dc     MyDynLib.obj
 0002:000096e0       ??_C@_03NGNHMEOA@?0?5?8?$AA@ 100ea6e0     MyDynLib.obj
 0002:000096e4       ??_C@_0BP@EEOAFCL@INSERT?5INTO?5RESOURCES?5VALUES?5?$CI?$AA@ 100ea6e4     MyDynLib.obj
 0002:00009704       ??_C@_0BD@ECGIHKMA@bad_alloc?5caught?3?5?$AA@ 100ea704     MyDynLib.obj
 0002:00009718       ??_C@_0CB@KICGCNJG@File?5id?3?$CFllu?0?5path?3?$CFs?5returned?4?6@ 100ea718     MyDynLib.obj
 0002:00009740       ??_C@_0FK@KIJNMNG@CREATE?5TABLE?5RESOURCES?$CIID?5INT?5PR@ 100ea740     MyDynLib.obj
 0002:0000979c       ??_C@_0BF@CHILNNPJ@Collection?5Deleted?4?6?$AA@ 100ea79c     MyDynLib.obj
 0002:000097b8       ??_C@_1MM@JPKBOFNK@?$AAc?$AA?3?$AA?2?$AAp?$AAr?$AAo?$AAg?$AAr?$AAa?$AAm?$AA?5?$AAf?$AAi?$AAl?$AAe?$AAs?$AA?5?$AA?$CI?$AAx?$AA8?$AA6?$AA?$CJ?$AA?2?$AAm?$AAi?$AAc?$AAr?$AAo?$AAs?$AAo?$AAf?$AAt@ 100ea7b8     MyDynLib.obj
 0002:00009888       ??_C@_1NA@LNEOGJKF@?$AAc?$AA?3?$AA?2?$AAp?$AAr?$AAo?$AAg?$AAr?$AAa?$AAm?$AA?5?$AAf?$AAi?$AAl?$AAe?$AAs?$AA?5?$AA?$CI?$AAx?$AA8?$AA6?$AA?$CJ?$AA?2?$AAm?$AAi?$AAc?$AAr?$AAo?$AAs?$AAo?$AAf?$AAt@ 100ea888     MyDynLib.obj
 0002:00009958       ??_C@_1MO@OPEBMAMC@?$AAc?$AA?3?$AA?2?$AAp?$AAr?$AAo?$AAg?$AAr?$AAa?$AAm?$AA?5?$AAf?$AAi?$AAl?$AAe?$AAs?$AA?5?$AA?$CI?$AAx?$AA8?$AA6?$AA?$CJ?$AA?2?$AAm?$AAi?$AAc?$AAr?$AAo?$AAs?$AAo?$AAf?$AAt@ 100ea958     MyDynLib.obj
 0002:00009a28       ??_C@_1EE@EJDKCLKB@?$AAv?$AAe?$AAc?$AAt?$AAo?$AAr?$AA?5?$AAi?$AAt?$AAe?$AAr?$AAa?$AAt?$AAo?$AAr?$AA?5?$AAn?$AAo?$AAt?$AA?5?$AAi?$AAn?$AAc?$AAr?$AAe?$AAm?$AAe?$AAn?$AAt?$AAa?$AAb?$AAl@ 100eaa28     MyDynLib.obj
 0002:00009a70       ??_C@_1NK@NAGJJBIN@?$AAs?$AAt?$AAd?$AA?3?$AA?3?$AA_?$AAV?$AAe?$AAc?$AAt?$AAo?$AAr?$AA_?$AAc?$AAo?$AAn?$AAs?$AAt?$AA_?$AAi?$AAt?$AAe?$AAr?$AAa?$AAt?$AAo?$AAr?$AA?$DM?$AAc?$AAl?$AAa?$AAs@ 100eaa70     MyDynLib.obj
 0002:00009b50       ??_C@_1EI@HCADPHFC@?$AA?$CC?$AAv?$AAe?$AAc?$AAt?$AAo?$AAr?$AA?5?$AAi?$AAt?$AAe?$AAr?$AAa?$AAt?$AAo?$AAr?$AA?5?$AAn?$AAo?$AAt?$AA?5?$AAi?$AAn?$AAc?$AAr?$AAe?$AAm?$AAe?$AAn?$AAt?$AAa?$AAb@ 100eab50     MyDynLib.obj
 0002:00009b98       ??_C@_1EG@FOHJJHAC@?$AAv?$AAe?$AAc?$AAt?$AAo?$AAr?$AA?5?$AAi?$AAt?$AAe?$AAr?$AAa?$AAt?$AAo?$AAr?$AA?5?$AAn?$AAo?$AAt?$AA?5?$AAd?$AAe?$AAr?$AAe?$AAf?$AAe?$AAr?$AAe?$AAn?$AAc?$AAa?$AAb@ 100eab98     MyDynLib.obj
 0002:00009be0       ??_C@_1NI@PPPKFEAA@?$AAs?$AAt?$AAd?$AA?3?$AA?3?$AA_?$AAV?$AAe?$AAc?$AAt?$AAo?$AAr?$AA_?$AAc?$AAo?$AAn?$AAs?$AAt?$AA_?$AAi?$AAt?$AAe?$AAr?$AAa?$AAt?$AAo?$AAr?$AA?$DM?$AAc?$AAl?$AAa?$AAs@ 100eabe0     MyDynLib.obj
 0002:00009cb8       ??_C@_1EK@FMDACDNC@?$AA?$CC?$AAv?$AAe?$AAc?$AAt?$AAo?$AAr?$AA?5?$AAi?$AAt?$AAe?$AAr?$AAa?$AAt?$AAo?$AAr?$AA?5?$AAn?$AAo?$AAt?$AA?5?$AAd?$AAe?$AAr?$AAe?$AAf?$AAe?$AAr?$AAe?$AAn?$AAc?$AAa@ 100eacb8     MyDynLib.obj
 0002:00009d04       ??_C@_0BD@OLBABOEK@vector?$DMT?$DO?5too?5long?$AA@ 100ead04     MyDynLib.obj
 0002:00009d18       ??_C@_1DO@CFEEPGGJ@?$AAm?$AAa?$AAp?$AA?1?$AAs?$AAe?$AAt?$AA?5?$AAi?$AAt?$AAe?$AAr?$AAa?$AAt?$AAo?$AAr?$AAs?$AA?5?$AAi?$AAn?$AAc?$AAo?$AAm?$AAp?$AAa?$AAt?$AAi?$AAb?$AAl?$AAe?$AA?$AA@ 100ead18     MyDynLib.obj
 0002:00009d58       ??_C@_1BDK@COPNKCK@?$AAs?$AAt?$AAd?$AA?3?$AA?3?$AA_?$AAT?$AAr?$AAe?$AAe?$AA_?$AAc?$AAo?$AAn?$AAs?$AAt?$AA_?$AAi?$AAt?$AAe?$AAr?$AAa?$AAt?$AAo?$AAr?$AA?$DM?$AAc?$AAl?$AAa?$AAs?$AAs?$AA?5@ 100ead58     MyDynLib.obj
 0002:00009e98       ??_C@_1EC@JLIDLCDH@?$AA?$CC?$AAm?$AAa?$AAp?$AA?1?$AAs?$AAe?$AAt?$AA?5?$AAi?$AAt?$AAe?$AAr?$AAa?$AAt?$AAo?$AAr?$AAs?$AA?5?$AAi?$AAn?$AAc?$AAo?$AAm?$AAp?$AAa?$AAt?$AAi?$AAb?$AAl?$AAe?$AA?$CC@ 100eae98     MyDynLib.obj
 0002:00009ee0       ??_C@_1EG@EHJFMBHJ@?$AAm?$AAa?$AAp?$AA?1?$AAs?$AAe?$AAt?$AA?5?$AAi?$AAt?$AAe?$AAr?$AAa?$AAt?$AAo?$AAr?$AA?5?$AAn?$AAo?$AAt?$AA?5?$AAi?$AAn?$AAc?$AAr?$AAe?$AAm?$AAe?$AAn?$AAt?$AAa?$AAb@ 100eaee0     MyDynLib.obj
 0002:00009f28       ??_C@_1BDK@KCBCDDOP@?$AAs?$AAt?$AAd?$AA?3?$AA?3?$AA_?$AAT?$AAr?$AAe?$AAe?$AA_?$AAc?$AAo?$AAn?$AAs?$AAt?$AA_?$AAi?$AAt?$AAe?$AAr?$AAa?$AAt?$AAo?$AAr?$AA?$DM?$AAc?$AAl?$AAa?$AAs?$AAs?$AA?5@ 100eaf28     MyDynLib.obj
 0002:0000a068       ??_C@_1EK@BCPDGOMC@?$AA?$CC?$AAm?$AAa?$AAp?$AA?1?$AAs?$AAe?$AAt?$AA?5?$AAi?$AAt?$AAe?$AAr?$AAa?$AAt?$AAo?$AAr?$AA?5?$AAn?$AAo?$AAt?$AA?5?$AAi?$AAn?$AAc?$AAr?$AAe?$AAm?$AAe?$AAn?$AAt?$AAa@ 100eb068     MyDynLib.obj
 0002:0000a0b4       ??_C@_1DM@HINDPMBP@?$AAv?$AAe?$AAc?$AAt?$AAo?$AAr?$AA?5?$AAi?$AAt?$AAe?$AAr?$AAa?$AAt?$AAo?$AAr?$AAs?$AA?5?$AAi?$AAn?$AAc?$AAo?$AAm?$AAp?$AAa?$AAt?$AAi?$AAb?$AAl?$AAe?$AA?$AA@ 100eb0b4     MyDynLib.obj
 0002:0000a0f0       ??_C@_1NC@EDCKMCKF@?$AAs?$AAt?$AAd?$AA?3?$AA?3?$AA_?$AAV?$AAe?$AAc?$AAt?$AAo?$AAr?$AA_?$AAc?$AAo?$AAn?$AAs?$AAt?$AA_?$AAi?$AAt?$AAe?$AAr?$AAa?$AAt?$AAo?$AAr?$AA?$DM?$AAc?$AAl?$AAa?$AAs@ 100eb0f0     MyDynLib.obj
 0002:0000a1c8       ??_C@_1EA@DJDGNIII@?$AA?$CC?$AAv?$AAe?$AAc?$AAt?$AAo?$AAr?$AA?5?$AAi?$AAt?$AAe?$AAr?$AAa?$AAt?$AAo?$AAr?$AAs?$AA?5?$AAi?$AAn?$AAc?$AAo?$AAm?$AAp?$AAa?$AAt?$AAi?$AAb?$AAl?$AAe?$AA?$CC?$AA?$AA@ 100eb1c8     MyDynLib.obj
 0002:0000a208       ??_C@_1EI@FHEHNNNM@?$AAm?$AAa?$AAp?$AA?1?$AAs?$AAe?$AAt?$AA?5?$AAi?$AAt?$AAe?$AAr?$AAa?$AAt?$AAo?$AAr?$AA?5?$AAn?$AAo?$AAt?$AA?5?$AAd?$AAe?$AAr?$AAe?$AAf?$AAe?$AAr?$AAe?$AAn?$AAc?$AAa@ 100eb208     MyDynLib.obj
 0002:0000a250       ??_C@_1BDI@OGPCCFMO@?$AAs?$AAt?$AAd?$AA?3?$AA?3?$AA_?$AAT?$AAr?$AAe?$AAe?$AA_?$AAc?$AAo?$AAn?$AAs?$AAt?$AA_?$AAi?$AAt?$AAe?$AAr?$AAa?$AAt?$AAo?$AAr?$AA?$DM?$AAc?$AAl?$AAa?$AAs?$AAs?$AA?5@ 100eb250     MyDynLib.obj
 0002:0000a388       ??_C@_1EM@KEKCOCNI@?$AA?$CC?$AAm?$AAa?$AAp?$AA?1?$AAs?$AAe?$AAt?$AA?5?$AAi?$AAt?$AAe?$AAr?$AAa?$AAt?$AAo?$AAr?$AA?5?$AAn?$AAo?$AAt?$AA?5?$AAd?$AAe?$AAr?$AAe?$AAf?$AAe?$AAr?$AAe?$AAn?$AAc@ 100eb388     MyDynLib.obj
 0002:0000a3d8       ??_C@_1GK@EPFFCEAH@?$AAc?$AAa?$AAn?$AAn?$AAo?$AAt?$AA?5?$AAd?$AAe?$AAr?$AAe?$AAf?$AAe?$AAr?$AAe?$AAn?$AAc?$AAe?$AA?5?$AAv?$AAa?$AAl?$AAu?$AAe?$AA?9?$AAi?$AAn?$AAi?$AAt?$AAi?$AAa?$AAl@ 100eb3d8     MyDynLib.obj
 0002:0000a448       ??_C@_1MG@GDGHDIKC@?$AAs?$AAt?$AAd?$AA?3?$AA?3?$AA_?$AAS?$AAt?$AAr?$AAi?$AAn?$AAg?$AA_?$AAc?$AAo?$AAn?$AAs?$AAt?$AA_?$AAi?$AAt?$AAe?$AAr?$AAa?$AAt?$AAo?$AAr?$AA?$DM?$AAc?$AAl?$AAa?$AAs@ 100eb448     MyDynLib.obj
 0002:0000a510       ??_C@_1GO@PNALIMBD@?$AA?$CC?$AAc?$AAa?$AAn?$AAn?$AAo?$AAt?$AA?5?$AAd?$AAe?$AAr?$AAe?$AAf?$AAe?$AAr?$AAe?$AAn?$AAc?$AAe?$AA?5?$AAv?$AAa?$AAl?$AAu?$AAe?$AA?9?$AAi?$AAn?$AAi?$AAt?$AAi?$AAa@ 100eb510     MyDynLib.obj
 0002:0000a580       ??_C@_1BAE@HEEJFKO@?$AAc?$AAa?$AAn?$AAn?$AAo?$AAt?$AA?5?$AAd?$AAe?$AAr?$AAe?$AAf?$AAe?$AAr?$AAe?$AAn?$AAc?$AAe?$AA?5?$AAs?$AAt?$AAr?$AAi?$AAn?$AAg?$AA?5?$AAi?$AAt?$AAe?$AAr?$AAa?$AAt@ 100eb580     MyDynLib.obj
 0002:0000a688       ??_C@_1BAO@BGLBIONH@?$AA?$CC?$AAc?$AAa?$AAn?$AAn?$AAo?$AAt?$AA?5?$AAd?$AAe?$AAr?$AAe?$AAf?$AAe?$AAr?$AAe?$AAn?$AAc?$AAe?$AA?5?$AAs?$AAt?$AAr?$AAi?$AAn?$AAg?$AA?5?$AAi?$AAt?$AAe?$AAr?$AAa@ 100eb688     MyDynLib.obj
 0002:0000a798       ??_C@_1KK@GJPIMLCF@?$AAc?$AAa?$AAn?$AAn?$AAo?$AAt?$AA?5?$AAd?$AAe?$AAr?$AAe?$AAf?$AAe?$AAr?$AAe?$AAn?$AAc?$AAe?$AA?5?$AAs?$AAt?$AAr?$AAi?$AAn?$AAg?$AA?5?$AAi?$AAt?$AAe?$AAr?$AAa?$AAt@ 100eb798     MyDynLib.obj
 0002:0000a848       ??_C@_1KO@CMPBFHAM@?$AA?$CC?$AAc?$AAa?$AAn?$AAn?$AAo?$AAt?$AA?5?$AAd?$AAe?$AAr?$AAe?$AAf?$AAe?$AAr?$AAe?$AAn?$AAc?$AAe?$AA?5?$AAs?$AAt?$AAr?$AAi?$AAn?$AAg?$AA?5?$AAi?$AAt?$AAe?$AAr?$AAa@ 100eb848     MyDynLib.obj
 0002:0000a8f8       ??_C@_0BI@CFPLBAOH@invalid?5string?5position?$AA@ 100eb8f8     MyDynLib.obj
 0002:0000a910       ??_C@_1CG@LEJCKCBB@?$AAi?$AAn?$AAv?$AAa?$AAl?$AAi?$AAd?$AA?5?$AAc?$AAo?$AAm?$AAp?$AAa?$AAr?$AAa?$AAt?$AAo?$AAr?$AA?$AA@ 100eb910     MyDynLib.obj
 0002:0000a938       ??_C@_1CI@JONCLBEJ@?$AAs?$AAt?$AAd?$AA?3?$AA?3?$AA_?$AAD?$AAe?$AAb?$AAu?$AAg?$AA_?$AAl?$AAt?$AA_?$AAp?$AAr?$AAe?$AAd?$AA?$AA@ 100eb938     MyDynLib.obj
 0002:0000a960       ??_C@_1CK@NDNHPKPI@?$AA?$CC?$AAi?$AAn?$AAv?$AAa?$AAl?$AAi?$AAd?$AA?5?$AAc?$AAo?$AAm?$AAp?$AAa?$AAr?$AAa?$AAt?$AAo?$AAr?$AA?$CC?$AA?$AA@ 100eb960     MyDynLib.obj
 0002:0000a98c       ??_C@_0BA@JFNIOLAK@string?5too?5long?$AA@ 100eb98c     MyDynLib.obj
 0002:0000a99c       ??_C@_1CO@DGLIKNHI@?$AAi?$AAn?$AAv?$AAa?$AAl?$AAi?$AAd?$AA?5?$AAi?$AAt?$AAe?$AAr?$AAa?$AAt?$AAo?$AAr?$AA?5?$AAr?$AAa?$AAn?$AAg?$AAe?$AA?$AA@ 100eb99c     MyDynLib.obj
 0002:0000a9cc       ??_C@_1CG@MDICLDJA@?$AAs?$AAt?$AAd?$AA?3?$AA?3?$AA_?$AAD?$AAe?$AAb?$AAu?$AAg?$AA_?$AAr?$AAa?$AAn?$AAg?$AAe?$AA2?$AA?$AA@ 100eb9cc     MyDynLib.obj
 0002:0000a9f4       ??_C@_1DC@CHPPODDE@?$AA?$CC?$AAi?$AAn?$AAv?$AAa?$AAl?$AAi?$AAd?$AA?5?$AAi?$AAt?$AAe?$AAr?$AAa?$AAt?$AAo?$AAr?$AA?5?$AAr?$AAa?$AAn?$AAg?$AAe?$AA?$CC?$AA?$AA@ 100eb9f4     MyDynLib.obj
 0002:0000aa28       ??_C@_1EG@OKCGOALM@?$AAm?$AAa?$AAp?$AA?1?$AAs?$AAe?$AAt?$AA?5?$AAi?$AAt?$AAe?$AAr?$AAa?$AAt?$AAo?$AAr?$AA?5?$AAn?$AAo?$AAt?$AA?5?$AAd?$AAe?$AAc?$AAr?$AAe?$AAm?$AAe?$AAn?$AAt?$AAa?$AAb@ 100eba28     MyDynLib.obj
 0002:0000aa70       ??_C@_1BDK@FBCAIPCO@?$AAs?$AAt?$AAd?$AA?3?$AA?3?$AA_?$AAT?$AAr?$AAe?$AAe?$AA_?$AAc?$AAo?$AAn?$AAs?$AAt?$AA_?$AAi?$AAt?$AAe?$AAr?$AAa?$AAt?$AAo?$AAr?$AA?$DM?$AAc?$AAl?$AAa?$AAs?$AAs?$AA?5@ 100eba70     MyDynLib.obj
 0002:0000abb0       ??_C@_1EK@OIBHPACE@?$AA?$CC?$AAm?$AAa?$AAp?$AA?1?$AAs?$AAe?$AAt?$AA?5?$AAi?$AAt?$AAe?$AAr?$AAa?$AAt?$AAo?$AAr?$AA?5?$AAn?$AAo?$AAt?$AA?5?$AAd?$AAe?$AAc?$AAr?$AAe?$AAm?$AAe?$AAn?$AAt?$AAa@ 100ebbb0     MyDynLib.obj
 0002:0000abfc       ??_C@_0BE@JONHPENG@map?1set?$DMT?$DO?5too?5long?$AA@ 100ebbfc     MyDynLib.obj
 0002:0000ad40       ??_C@_0NN@NGPKDKPD@The?5value?5of?5ESP?5was?5not?5properl@ 100ebd40     MSVCRTD:_error_.obj
 0002:0000ae20       ??_C@_0BBN@GPMLNJCF@A?5cast?5to?5a?5smaller?5data?5type?5ha@ 100ebe20     MSVCRTD:_error_.obj
 0002:0000af40       ??_C@_0BN@FFOINMNJ@Stack?5memory?5was?5corrupted?6?$AN?$AA@ 100ebf40     MSVCRTD:_error_.obj
 0002:0000af60       ??_C@_0DG@HKJMLLLP@A?5local?5variable?5was?5used?5before@ 100ebf60     MSVCRTD:_error_.obj
 0002:0000af98       ??_C@_0CM@NGINOKPC@Stack?5memory?5around?5_alloca?5was?5@ 100ebf98     MSVCRTD:_error_.obj
 0002:0000afc4       ??_C@_0BO@GNIAFIKK@Unknown?5Runtime?5Check?5Error?6?$AN?$AA@ 100ebfc4     MSVCRTD:_error_.obj
 0002:0000afe8       ??_C@_1GM@OLMCBDMB@?$AAR?$AAu?$AAn?$AAt?$AAi?$AAm?$AAe?$AA?5?$AAC?$AAh?$AAe?$AAc?$AAk?$AA?5?$AAE?$AAr?$AAr?$AAo?$AAr?$AA?4?$AA?6?$AA?$AN?$AA?5?$AAU?$AAn?$AAa?$AAb?$AAl?$AAe?$AA?5?$AAt?$AAo@ 100ebfe8     MSVCRTD:_error_.obj
 0002:0000b058       ??_C@_1EA@NFKNIFJP@?$AAR?$AAu?$AAn?$AA?9?$AAT?$AAi?$AAm?$AAe?$AA?5?$AAC?$AAh?$AAe?$AAc?$AAk?$AA?5?$AAF?$AAa?$AAi?$AAl?$AAu?$AAr?$AAe?$AA?5?$AA?$CD?$AA?$CF?$AAd?$AA?5?$AA?9?$AA?5?$AA?$CF?$AAs?$AA?$AA@ 100ec058     MSVCRTD:_error_.obj
 0002:0000b098       ??_C@_0BB@PFFGGCJP@Unknown?5Filename?$AA@ 100ec098     MSVCRTD:_error_.obj
 0002:0000b0ac       ??_C@_0BE@GNBOBNCK@Unknown?5Module?5Name?$AA@ 100ec0ac     MSVCRTD:_error_.obj
 0002:0000b0c0       ??_C@_0CA@IODNCDPG@Run?9Time?5Check?5Failure?5?$CD?$CFd?5?9?5?$CFs?$AA@ 100ec0c0     MSVCRTD:_error_.obj
 0002:0000b0e0       ??_C@_0CG@IAFNJNEE@Stack?5corrupted?5near?5unknown?5var@ 100ec0e0     MSVCRTD:_error_.obj
 0002:0000b108       ??_C@_05MKKEDADM@?$CF?42X?5?$AA@ 100ec108     MSVCRTD:_error_.obj
 0002:0000b110       ??_C@_0EJ@LJKNEOLN@Stack?5area?5around?5_alloca?5memory@ 100ec110     MSVCRTD:_error_.obj
 0002:0000b15c       ??_C@_02LLMPMKNF@?$DO?5?$AA@ 100ec15c     MSVCRTD:_error_.obj
 0002:0000b160       ??_C@_08OMAHNMHJ@?6Data?3?5?$DM?$AA@ 100ec160     MSVCRTD:_error_.obj
 0002:0000b16c       ??_C@_0CK@DKGBICFE@?6Allocation?5number?5within?5this?5f@ 100ec16c     MSVCRTD:_error_.obj
 0002:0000b198       ??_C@_07DFDJCKFN@?6Size?3?5?$AA@ 100ec198     MSVCRTD:_error_.obj
 0002:0000b1a0       ??_C@_0N@MHFFIMFG@?6Address?3?50x?$AA@ 100ec1a0     MSVCRTD:_error_.obj
 0002:0000b1b0       ??_C@_0EI@CLEPFNGI@Stack?5area?5around?5_alloca?5memory@ 100ec1b0     MSVCRTD:_error_.obj
 0002:0000b1f8       ??_C@_0BK@ODNDAGKB@?$CFs?$CFs?$CFp?$CFs?$CFzd?$CFs?$CFd?$CFs?$CFs?$CFs?$CFs?$CFs?$AA@ 100ec1f8     MSVCRTD:_error_.obj
 0002:0000b214       ??_C@_0DE@OHJBPMBP@A?5variable?5is?5being?5used?5without@ 100ec214     MSVCRTD:_error_.obj
 0002:0000b24c       ??_7type_info@@6B@         100ec24c     MSVCRTD:std_type_info_static.obj
 0002:0000b250       __pDefaultRawDllMain       100ec250     MSVCRTD:dll_dllmain.obj
 0002:0000b250       __pRawDllMain              100ec250     MSVCRTD:dll_dllmain.obj
 0002:0000b268       ??_C@_0BJ@HEGAHDFO@Stack?5pointer?5corruption?$AA@ 100ec268     MSVCRTD:_userapi_.obj
 0002:0000b284       ??_C@_0CK@FEGOIOPB@Cast?5to?5smaller?5type?5causing?5los@ 100ec284     MSVCRTD:_userapi_.obj
 0002:0000b2b0       ??_C@_0BI@CIGMDCBH@Stack?5memory?5corruption?$AA@ 100ec2b0     MSVCRTD:_userapi_.obj
 0002:0000b2c8       ??_C@_0CK@CNLNOEPB@Local?5variable?5used?5before?5initi@ 100ec2c8     MSVCRTD:_userapi_.obj
 0002:0000b2f4       ??_C@_0BP@OGBCLIBO@Stack?5around?5_alloca?5corrupted?$AA@ 100ec2f4     MSVCRTD:_userapi_.obj
 0002:0000b318       ??_7bad_alloc@std@@6B@     100ec318     MSVCRTD:throw_bad_alloc.obj
 0002:0000b320       ??_C@_0P@GHFPNOJB@bad?5allocation?$AA@ 100ec320     MSVCRTD:throw_bad_alloc.obj
 0002:0000b334       ??_7bad_array_new_length@std@@6B@ 100ec334     MSVCRTD:throw_bad_alloc.obj
 0002:0000b33c       ??_C@_0BF@KINCDENJ@bad?5array?5new?5length?$AA@ 100ec33c     MSVCRTD:throw_bad_alloc.obj
 0002:0000b3a0       ??_C@_1EI@MLPKHBGE@?$AAa?$AAp?$AAi?$AA?9?$AAm?$AAs?$AA?9?$AAw?$AAi?$AAn?$AA?9?$AAc?$AAo?$AAr?$AAe?$AA?9?$AAr?$AAe?$AAg?$AAi?$AAs?$AAt?$AAr?$AAy?$AA?9?$AAl?$AA1?$AA?9?$AA1?$AA?9?$AA0?$AA?4@ 100ec3a0     MSVCRTD:_pdblkup_.obj
 0002:0000b3e8       ??_C@_1BK@JHLNAEJL@?$AAa?$AAd?$AAv?$AAa?$AAp?$AAi?$AA3?$AA2?$AA?4?$AAd?$AAl?$AAl?$AA?$AA@ 100ec3e8     MSVCRTD:_pdblkup_.obj
 0002:0000b404       ??_C@_0O@COHOBMLB@RegOpenKeyExW?$AA@ 100ec404     MSVCRTD:_pdblkup_.obj
 0002:0000b414       ??_C@_0BB@GLNAEDBD@RegQueryValueExW?$AA@ 100ec414     MSVCRTD:_pdblkup_.obj
 0002:0000b428       ??_C@_0M@HLOHPNFA@RegCloseKey?$AA@ 100ec428     MSVCRTD:_pdblkup_.obj
 0002:0000b438       ??_C@_1HE@EBEAGLFB@?$AAS?$AAO?$AAF?$AAT?$AAW?$AAA?$AAR?$AAE?$AA?2?$AAW?$AAo?$AAw?$AA6?$AA4?$AA3?$AA2?$AAN?$AAo?$AAd?$AAe?$AA?2?$AAM?$AAi?$AAc?$AAr?$AAo?$AAs?$AAo?$AAf?$AAt?$AA?2?$AAV@ 100ec438     MSVCRTD:_pdblkup_.obj
 0002:0000b4ac       ??_C@_1BG@EABPBLLF@?$AAP?$AAr?$AAo?$AAd?$AAu?$AAc?$AAt?$AAD?$AAi?$AAr?$AA?$AA@ 100ec4ac     MSVCRTD:_pdblkup_.obj
 0002:0000b4e0       ??_C@_1BC@JINFINNJ@?$AAM?$AAS?$AAP?$AAD?$AAB?$AA1?$AA4?$AA0?$AA?$AA@ 100ec4e0     MSVCRTD:_pdblkup_.obj
 0002:0000b4f4       ??_C@_0BB@KCIACLNC@PDBOpenValidate5?$AA@ 100ec4f4     MSVCRTD:_pdblkup_.obj
 0002:0000b508       ??_C@_01KDCPPGHE@r?$AA@    100ec508     MSVCRTD:_pdblkup_.obj
 0002:0000b50c       ??_C@_0CM@OKINAFCK@f?3?2dd?2vctools?2crt?2crtw32?2stdcpp?2@ 100ec50c     msvcprtd:locale0_implib.obj
 0002:0000b540       _jpeg_std_message_table    100ec540     jpeg:jerror.obj
 0002:0000b760       _jpeg_natural_order4       100ec760     jpeg:jutils.obj
 0002:0000b7e0       _jpeg_natural_order5       100ec7e0     jpeg:jutils.obj
 0002:0000b890       _jpeg_natural_order3       100ec890     jpeg:jutils.obj
 0002:0000b900       _jpeg_natural_order6       100ec900     jpeg:jutils.obj
 0002:0000b9d0       _jpeg_natural_order        100ec9d0     jpeg:jutils.obj
 0002:0000bb10       _jpeg_natural_order7       100ecb10     jpeg:jutils.obj
 0002:0000bc20       _jpeg_natural_order2       100ecc20     jpeg:jutils.obj
 0002:0000c1c0       _jpeg_aritab               100ed1c0     jpeg:jaricom.obj
 0002:0000c388       __real@3f8a8bd4            100ed388     jpeg:jidctflt.obj
 0002:0000c38c       __real@3fb504f3            100ed38c     jpeg:jidctflt.obj
 0002:0000c390       __real@3fc0000000000000    100ed390     jpeg:jddctmgr.obj
 0002:0000c398       __real@3fd1a855de72ab5d    100ed398     jpeg:jddctmgr.obj
 0002:0000c3a0       __real@3fe1517a7bc720bb    100ed3a0     jpeg:jddctmgr.obj
 0002:0000c3a8       __real@3fe92469c0a7bf3b    100ed3a8     jpeg:jddctmgr.obj
 0002:0000c3b0       __real@3fec835e            100ed3b0     jpeg:jidctflt.obj
 0002:0000c3b8       __real@3ff0000000000000    100ed3b8     jpeg:jdapimin.obj
 0002:0000c3c0       __real@3ff2d062ef6c11aa    100ed3c0     jpeg:jddctmgr.obj
 0002:0000c3c8       __real@3ff4e7ae914d6fca    100ed3c8     jpeg:jddctmgr.obj
 0002:0000c3d0       __real@3ff63150b14861ef    100ed3d0     jpeg:jddctmgr.obj
 0002:0000c3d8       __real@40273d75            100ed3d8     jpeg:jidctflt.obj
 0002:0000c3dc       __real@44002000            100ed3dc     jpeg:jidctflt.obj
 0002:0000c3e0       __xmm@00000003000000020000000100000000 100ed3e0     jpeg:jdcolor.obj
 0002:0000c3f0       __xmm@00000800000008000000080000000800 100ed3f0     jpeg:jddctmgr.obj
 0002:0000c400       __xmm@00001d2f00001d2f00001d2f00001d2f 100ed400     jpeg:jdcolor.obj
 0002:0000c410       __xmm@00004c8b00004c8b00004c8b00004c8b 100ed410     jpeg:jdcolor.obj
 0002:0000c420       __xmm@00008000000080000000800000008000 100ed420     jpeg:jdcolor.obj
 0002:0000c430       __xmm@00009646000096460000964600009646 100ed430     jpeg:jdcolor.obj
 0002:0000c440       __xmm@00010001000100010001000100010001 100ed440     jpeg:jdmarker.obj
 0002:0000c4a8       __load_config_used         100ed4a8     MSVCRTD:loadcfg.obj
 0002:0000c540       ??_R4exception@std@@6B@    100ed540     MyDynLib.obj
 0002:0000c554       ??_R3exception@std@@8      100ed554     MyDynLib.obj
 0002:0000c564       ??_R2exception@std@@8      100ed564     MyDynLib.obj
 0002:0000c56c       ??_R1A@?0A@EA@exception@std@@8 100ed56c     MyDynLib.obj
 0002:0000c588       ??_R4?$basic_filebuf@DU?$char_traits@D@std@@@std@@6B@ 100ed588     MyDynLib.obj
 0002:0000c59c       ??_R3?$basic_filebuf@DU?$char_traits@D@std@@@std@@8 100ed59c     MyDynLib.obj
 0002:0000c5ac       ??_R2?$basic_filebuf@DU?$char_traits@D@std@@@std@@8 100ed5ac     MyDynLib.obj
 0002:0000c5b8       ??_R1A@?0A@EA@?$basic_filebuf@DU?$char_traits@D@std@@@std@@8 100ed5b8     MyDynLib.obj
 0002:0000c5d4       ??_R1A@?0A@EA@?$basic_streambuf@DU?$char_traits@D@std@@@std@@8 100ed5d4     MyDynLib.obj
 0002:0000c5f0       ??_R3?$basic_streambuf@DU?$char_traits@D@std@@@std@@8 100ed5f0     MyDynLib.obj
 0002:0000c600       ??_R2?$basic_streambuf@DU?$char_traits@D@std@@@std@@8 100ed600     MyDynLib.obj
 0002:0000c608       ??_R4?$basic_ifstream@DU?$char_traits@D@std@@@std@@6B@ 100ed608     MyDynLib.obj
 0002:0000c61c       ??_R3?$basic_ifstream@DU?$char_traits@D@std@@@std@@8 100ed61c     MyDynLib.obj
 0002:0000c62c       ??_R2?$basic_ifstream@DU?$char_traits@D@std@@@std@@8 100ed62c     MyDynLib.obj
 0002:0000c644       ??_R1A@?0A@EA@?$basic_ifstream@DU?$char_traits@D@std@@@std@@8 100ed644     MyDynLib.obj
 0002:0000c660       ??_R1A@?0A@EA@?$basic_istream@DU?$char_traits@D@std@@@std@@8 100ed660     MyDynLib.obj
 0002:0000c67c       ??_R3?$basic_istream@DU?$char_traits@D@std@@@std@@8 100ed67c     MyDynLib.obj
 0002:0000c68c       ??_R2?$basic_istream@DU?$char_traits@D@std@@@std@@8 100ed68c     MyDynLib.obj
 0002:0000c6a0       ??_R1A@A@3FA@?$basic_ios@DU?$char_traits@D@std@@@std@@8 100ed6a0     MyDynLib.obj
 0002:0000c6bc       ??_R3?$basic_ios@DU?$char_traits@D@std@@@std@@8 100ed6bc     MyDynLib.obj
 0002:0000c6cc       ??_R2?$basic_ios@DU?$char_traits@D@std@@@std@@8 100ed6cc     MyDynLib.obj
 0002:0000c6dc       ??_R1A@?0A@EA@?$basic_ios@DU?$char_traits@D@std@@@std@@8 100ed6dc     MyDynLib.obj
 0002:0000c6f8       ??_R1A@?0A@EA@ios_base@std@@8 100ed6f8     MyDynLib.obj
 0002:0000c714       ??_R3ios_base@std@@8       100ed714     MyDynLib.obj
 0002:0000c724       ??_R2ios_base@std@@8       100ed724     MyDynLib.obj
 0002:0000c730       ??_R17?0A@EA@?$_Iosb@H@std@@8 100ed730     MyDynLib.obj
 0002:0000c74c       ??_R3?$_Iosb@H@std@@8      100ed74c     MyDynLib.obj
 0002:0000c75c       ??_R2?$_Iosb@H@std@@8      100ed75c     MyDynLib.obj
 0002:0000c764       ??_R1A@?0A@EA@?$_Iosb@H@std@@8 100ed764     MyDynLib.obj
 0002:0000c780       ??_R1A@A@3EA@ios_base@std@@8 100ed780     MyDynLib.obj
 0002:0000c79c       ??_R17A@3EA@?$_Iosb@H@std@@8 100ed79c     MyDynLib.obj
 0002:0000c7b8       ??_R4IResource@@6B@        100ed7b8     MyDynLib.obj
 0002:0000c7cc       ??_R3IResource@@8          100ed7cc     MyDynLib.obj
 0002:0000c7dc       ??_R2IResource@@8          100ed7dc     MyDynLib.obj
 0002:0000c7e4       ??_R1A@?0A@EA@IResource@@8 100ed7e4     MyDynLib.obj
 0002:0000c800       ??_R4IImageResource@@6B@   100ed800     MyDynLib.obj
 0002:0000c814       ??_R3IImageResource@@8     100ed814     MyDynLib.obj
 0002:0000c824       ??_R2IImageResource@@8     100ed824     MyDynLib.obj
 0002:0000c830       ??_R1A@?0A@EA@IImageResource@@8 100ed830     MyDynLib.obj
 0002:0000c84c       ??_R4IVideoResource@@6B@   100ed84c     MyDynLib.obj
 0002:0000c860       ??_R3IVideoResource@@8     100ed860     MyDynLib.obj
 0002:0000c870       ??_R2IVideoResource@@8     100ed870     MyDynLib.obj
 0002:0000c87c       ??_R1A@?0A@EA@IVideoResource@@8 100ed87c     MyDynLib.obj
 0002:0000c898       ??_R4IResourceCollection@@6B@ 100ed898     MyDynLib.obj
 0002:0000c8ac       ??_R3IResourceCollection@@8 100ed8ac     MyDynLib.obj
 0002:0000c8bc       ??_R2IResourceCollection@@8 100ed8bc     MyDynLib.obj
 0002:0000c8c4       ??_R1A@?0A@EA@IResourceCollection@@8 100ed8c4     MyDynLib.obj
 0002:0000c8e0       ??_R4bad_cast@std@@6B@     100ed8e0     MyDynLib.obj
 0002:0000c8f4       ??_R3bad_cast@std@@8       100ed8f4     MyDynLib.obj
 0002:0000c904       ??_R2bad_cast@std@@8       100ed904     MyDynLib.obj
 0002:0000c910       ??_R1A@?0A@EA@bad_cast@std@@8 100ed910     MyDynLib.obj
 0002:0000c92c       ??_R4CResource@@6B@        100ed92c     MyDynLib.obj
 0002:0000c940       ??_R3CResource@@8          100ed940     MyDynLib.obj
 0002:0000c950       ??_R2CResource@@8          100ed950     MyDynLib.obj
 0002:0000c95c       ??_R1A@?0A@EA@CResource@@8 100ed95c     MyDynLib.obj
 0002:0000c978       ??_R4CImageResource@@6B@   100ed978     MyDynLib.obj
 0002:0000c98c       ??_R3CImageResource@@8     100ed98c     MyDynLib.obj
 0002:0000c99c       ??_R2CImageResource@@8     100ed99c     MyDynLib.obj
 0002:0000c9ac       ??_R1A@?0A@EA@CImageResource@@8 100ed9ac     MyDynLib.obj
 0002:0000c9c8       ??_R4CResourceCollection@@6B@ 100ed9c8     MyDynLib.obj
 0002:0000c9dc       ??_R3CResourceCollection@@8 100ed9dc     MyDynLib.obj
 0002:0000c9ec       ??_R2CResourceCollection@@8 100ed9ec     MyDynLib.obj
 0002:0000c9f8       ??_R1A@?0A@EA@CResourceCollection@@8 100ed9f8     MyDynLib.obj
 0002:0000ca14       ??_R4type_info@@6B@        100eda14     MSVCRTD:std_type_info_static.obj
 0002:0000ca28       ??_R3type_info@@8          100eda28     MSVCRTD:std_type_info_static.obj
 0002:0000ca38       ??_R2type_info@@8          100eda38     MSVCRTD:std_type_info_static.obj
 0002:0000ca40       ??_R1A@?0A@EA@type_info@@8 100eda40     MSVCRTD:std_type_info_static.obj
 0002:0000ca5c       ??_R4bad_alloc@std@@6B@    100eda5c     MSVCRTD:throw_bad_alloc.obj
 0002:0000ca70       ??_R3bad_alloc@std@@8      100eda70     MSVCRTD:throw_bad_alloc.obj
 0002:0000ca80       ??_R2bad_alloc@std@@8      100eda80     MSVCRTD:throw_bad_alloc.obj
 0002:0000ca8c       ??_R1A@?0A@EA@bad_alloc@std@@8 100eda8c     MSVCRTD:throw_bad_alloc.obj
 0002:0000caa8       ??_R4bad_array_new_length@std@@6B@ 100edaa8     MSVCRTD:throw_bad_alloc.obj
 0002:0000cabc       ??_R3bad_array_new_length@std@@8 100edabc     MSVCRTD:throw_bad_alloc.obj
 0002:0000cacc       ??_R2bad_array_new_length@std@@8 100edacc     MSVCRTD:throw_bad_alloc.obj
 0002:0000cadc       ??_R1A@?0A@EA@bad_array_new_length@std@@8 100edadc     MSVCRTD:throw_bad_alloc.obj
 0002:0000cb00       ___safe_se_handler_table   100edb00     <linker-defined>
 0002:0000cf54       ___rtc_iaa                 100edf54     MSVCRTD:_initsect_.obj
 0002:0000cf64       ___rtc_izz                 100edf64     MSVCRTD:_initsect_.obj
 0002:0000cf68       ___rtc_taa                 100edf68     MSVCRTD:_initsect_.obj
 0002:0000cf78       ___rtc_tzz                 100edf78     MSVCRTD:_initsect_.obj
 0002:0000dd84       __CT??_R0?AVexception@std@@@8??0exception@std@@QAE@ABV01@@Z12 100eed84     MyDynLib.obj
 0002:0000dda0       __TI2?AVbad_cast@std@@     100eeda0     MyDynLib.obj
 0002:0000ddb0       __CTA2?AVbad_cast@std@@    100eedb0     MyDynLib.obj
 0002:0000ddbc       __CT??_R0?AVbad_cast@std@@@8??0bad_cast@std@@QAE@ABV01@@Z12 100eedbc     MyDynLib.obj
 0002:0000de74       __TI2?AVbad_alloc@std@@    100eee74     MSVCRTD:throw_bad_alloc.obj
 0002:0000de84       __CTA2?AVbad_alloc@std@@   100eee84     MSVCRTD:throw_bad_alloc.obj
 0002:0000de90       __CT??_R0?AVbad_alloc@std@@@8??0bad_alloc@std@@QAE@ABV01@@Z12 100eee90     MSVCRTD:throw_bad_alloc.obj
 0002:0000deac       __TI3?AVbad_array_new_length@std@@ 100eeeac     MSVCRTD:throw_bad_alloc.obj
 0002:0000debc       __CTA3?AVbad_array_new_length@std@@ 100eeebc     MSVCRTD:throw_bad_alloc.obj
 0002:0000decc       __CT??_R0?AVbad_array_new_length@std@@@8??0bad_array_new_length@std@@QAE@ABV01@@Z12 100eeecc     MSVCRTD:throw_bad_alloc.obj
 0002:0000e458       __IMPORT_DESCRIPTOR_KERNEL32 100ef458     kernel32:KERNEL32.dll
 0002:0000e46c       __IMPORT_DESCRIPTOR_MSVCP140D 100ef46c     msvcprtd:MSVCP140D.dll
 0002:0000e480       __IMPORT_DESCRIPTOR_VCRUNTIME140D 100ef480     vcruntimed:VCRUNTIME140D.dll
 0002:0000e494       __IMPORT_DESCRIPTOR_ucrtbased 100ef494     ucrtd:ucrtbased.dll
 0002:0000e4a8       __NULL_IMPORT_DESCRIPTOR   100ef4a8     kernel32:KERNEL32.dll
 0003:00000ea8       ?__LINE__Var@?0??sqlite3_status64@@9@9 100f1ea8     sqlite3.obj
 0003:00000eac       ?__LINE__Var@?0??winSeekFile@@9@9 100f1eac     sqlite3.obj
 0003:00000eb0       ?__LINE__Var@?0??winClose@@9@9 100f1eb0     sqlite3.obj
 0003:00000eb4       ?__LINE__Var@?0??winRead@@9@9 100f1eb4     sqlite3.obj
 0003:00000eb8       ?__LINE__Var@?0??winWrite@@9@9 100f1eb8     sqlite3.obj
 0003:00000ebc       ?__LINE__Var@?0??winTruncate@@9@9 100f1ebc     sqlite3.obj
 0003:00000ec0       ?__LINE__Var@?0??winSync@@9@9 100f1ec0     sqlite3.obj
 0003:00000ec4       ?__LINE__Var@?0??winFileSize@@9@9 100f1ec4     sqlite3.obj
 0003:00000ec8       ?__LINE__Var@?0??winUnlockReadLock@@9@9 100f1ec8     sqlite3.obj
 0003:00000ecc       ?__LINE__Var@?0??winUnlock@@9@9 100f1ecc     sqlite3.obj
 0003:00000ed0       ?__LINE__Var@?0??winOpenSharedMemory@@9@9 100f1ed0     sqlite3.obj
 0003:00000ed4       ?__LINE__Var@?0??winShmMap@@9@9 100f1ed4     sqlite3.obj
 0003:00000ed8       ?__LINE__Var@?0??winUnmapfile@@9@9 100f1ed8     sqlite3.obj
 0003:00000edc       ?__LINE__Var@?0??winMapfile@@9@9 100f1edc     sqlite3.obj
 0003:00000ee0       ?__LINE__Var@?0??winGetTempname@@9@9 100f1ee0     sqlite3.obj
 0003:00000ee4       ?__LINE__Var@?0??winOpen@@9@9 100f1ee4     sqlite3.obj
 0003:00000ee8       ?__LINE__Var@?0??winDelete@@9@9 100f1ee8     sqlite3.obj
 0003:00000eec       ?__LINE__Var@?0??winAccess@@9@9 100f1eec     sqlite3.obj
 0003:00000ef0       ?__LINE__Var@?0??winFullPathname@@9@9 100f1ef0     sqlite3.obj
 0003:00000ef4       ?__LINE__Var@?0??sqlite3PagerOpen@@9@9 100f1ef4     sqlite3.obj
 0003:00000ef8       ?__LINE__Var@?0??sqlite3PagerSharedLock@@9@9 100f1ef8     sqlite3.obj
 0003:00000efc       ?__LINE__Var@?0??getPageNormal@@9@9 100f1efc     sqlite3.obj
 0003:00000f00       ?__LINE__Var@?0??getPageMMap@@9@9 100f1f00     sqlite3.obj
 0003:00000f04       ?__LINE__Var@?0??walIndexAppend@@9@9 100f1f04     sqlite3.obj
 0003:00000f08       ?__LINE__Var@?0??walIndexRecover@@9@9 100f1f08     sqlite3.obj
 0003:00000f0c       ?__LINE__Var@?0??walIndexReadHdr@@9@9 100f1f0c     sqlite3.obj
 0003:00000f10       ?__LINE__Var@?0??sqlite3WalFindFrame@@9@9 100f1f10     sqlite3.obj
 0003:00000f14       ?__LINE__Var@?0??sqlite3WalCheckpoint@@9@9 100f1f14     sqlite3.obj
 0003:00000f18       ?__LINE__Var@?0??btreeMoveto@@9@9 100f1f18     sqlite3.obj
 0003:00000f1c       ?__LINE__Var@?0??ptrmapPut@@9@9 100f1f1c     sqlite3.obj
 0003:00000f20       ?__LINE__Var@?0??ptrmapGet@@9@9 100f1f20     sqlite3.obj
 0003:00000f24       ?__LINE__Var@?0??defragmentPage@@9@9 100f1f24     sqlite3.obj
 0003:00000f28       ?__LINE__Var@?0??pageFindSlot@@9@9 100f1f28     sqlite3.obj
 0003:00000f2c       ?__LINE__Var@?0??allocateSpace@@9@9 100f1f2c     sqlite3.obj
 0003:00000f30       ?__LINE__Var@?0??freeSpace@@9@9 100f1f30     sqlite3.obj
 0003:00000f34       ?__LINE__Var@?0??decodeFlags@@9@9 100f1f34     sqlite3.obj
 0003:00000f38       ?__LINE__Var@?0??btreeInitPage@@9@9 100f1f38     sqlite3.obj
 0003:00000f3c       ?__LINE__Var@?0??getAndInitPage@@9@9 100f1f3c     sqlite3.obj
 0003:00000f40       ?__LINE__Var@?0??btreeGetUnusedPage@@9@9 100f1f40     sqlite3.obj
 0003:00000f44       ?__LINE__Var@?0??lockBtree@@9@9 100f1f44     sqlite3.obj
 0003:00000f48       ?__LINE__Var@?0??modifyPagePointer@@9@9 100f1f48     sqlite3.obj
 0003:00000f4c       ?__LINE__Var@?0??incrVacuumStep@@9@9 100f1f4c     sqlite3.obj
 0003:00000f50       ?__LINE__Var@?0??sqlite3BtreeIncrVacuum@@9@9 100f1f50     sqlite3.obj
 0003:00000f54       ?__LINE__Var@?0??autoVacuumCommit@@9@9 100f1f54     sqlite3.obj
 0003:00000f58       ?__LINE__Var@?0??sqlite3BtreeCursor@@9@9 100f1f58     sqlite3.obj
 0003:00000f5c       ?__LINE__Var@?0??accessPayload@@9@9 100f1f5c     sqlite3.obj
 0003:00000f60       ?__LINE__Var@?0??moveToChild@@9@9 100f1f60     sqlite3.obj
 0003:00000f64       ?__LINE__Var@?0??moveToRoot@@9@9 100f1f64     sqlite3.obj
 0003:00000f68       ?__LINE__Var@?0??sqlite3BtreeMovetoUnpacked@@9@9 100f1f68     sqlite3.obj
 0003:00000f6c       ?__LINE__Var@?0??allocateBtreePage@@9@9 100f1f6c     sqlite3.obj
 0003:00000f70       ?__LINE__Var@?0??freePage2@@9@9 100f1f70     sqlite3.obj
 0003:00000f74       ?__LINE__Var@?0??clearCell@@9@9 100f1f74     sqlite3.obj
 0003:00000f78       ?__LINE__Var@?0??dropCell@@9@9 100f1f78     sqlite3.obj
 0003:00000f7c       ?__LINE__Var@?0??rebuildPage@@9@9 100f1f7c     sqlite3.obj
 0003:00000f80       ?__LINE__Var@?0??balance_quick@@9@9 100f1f80     sqlite3.obj
 0003:00000f84       ?__LINE__Var@?0??balance_nonroot@@9@9 100f1f84     sqlite3.obj
 0003:00000f88       ?__LINE__Var@?0??sqlite3BtreeInsert@@9@9 100f1f88     sqlite3.obj
 0003:00000f8c       ?__LINE__Var@?0??sqlite3BtreeDelete@@9@9 100f1f8c     sqlite3.obj
 0003:00000f90       ?__LINE__Var@?0??btreeCreateTable@@9@9 100f1f90     sqlite3.obj
 0003:00000f94       ?__LINE__Var@?0??clearDatabasePage@@9@9 100f1f94     sqlite3.obj
 0003:00000f98       ?__LINE__Var@?0??handleDeferredMoveto@@9@9 100f1f98     sqlite3.obj
 0003:00000f9c       ?__LINE__Var@?0??sqlite3VdbeRecordCompareWithSkip@@9@9 100f1f9c     sqlite3.obj
 0003:00000fa0       ?__LINE__Var@?0??vdbeRecordCompareString@@9@9 100f1fa0     sqlite3.obj
 0003:00000fa4       ?__LINE__Var@?0??sqlite3VdbeIdxRowid@@9@9 100f1fa4     sqlite3.obj
 0003:00000fa8       ?__LINE__Var@?0??sqlite3VdbeIdxKeyCompare@@9@9 100f1fa8     sqlite3.obj
 0003:00000fac       ?__LINE__Var@?0??sqlite3_finalize@@9@9 100f1fac     sqlite3.obj
 0003:00000fb0       ?__LINE__Var@?0??sqlite3_step@@9@9 100f1fb0     sqlite3.obj
 0003:00000fb4       ?__LINE__Var@?0??vdbeUnbind@@9@9 100f1fb4     sqlite3.obj
 0003:00000fb8       ?__LINE__Var@?0??sqlite3VdbeExec@@9@9 100f1fb8     sqlite3.obj
 0003:00000fbc       ?__LINE__Var@?0??blobReadWrite@@9@9 100f1fbc     sqlite3.obj
 0003:00000fc0       ?__LINE__Var@?0??sqlite3_blob_reopen@@9@9 100f1fc0     sqlite3.obj
 0003:00000fc4       ?__LINE__Var@?0??sqlite3_exec@@9@9 100f1fc4     sqlite3.obj
 0003:00000fc8       ?__LINE__Var@?0??corruptSchema@@9@9 100f1fc8     sqlite3.obj
 0003:00000fcc       ?__LINE__Var@?0??sqlite3LockAndPrepare@@9@9 100f1fcc     sqlite3.obj
 0003:00000fd0       ?__LINE__Var@?0??sqlite3Prepare16@@9@9 100f1fd0     sqlite3.obj
 0003:00000fd4       ?__LINE__Var@?0??createModule@@9@9 100f1fd4     sqlite3.obj
 0003:00000fd8       ?__LINE__Var@?0??sqlite3_declare_vtab@@9@9 100f1fd8     sqlite3.obj
 0003:00000fdc       ?__LINE__Var@?0??sqlite3_vtab_config@@9@9 100f1fdc     sqlite3.obj
 0003:00000fe0       ?__LINE__Var@?0??sqlite3_config@@9@9 100f1fe0     sqlite3.obj
 0003:00000fe4       ?__LINE__Var@?0??sqlite3Close@@9@9 100f1fe4     sqlite3.obj
 0003:00000fe8       ?__LINE__Var@?0??sqlite3CreateFunc@@9@9 100f1fe8     sqlite3.obj
 0003:00000fec       ?__LINE__Var@?0??sqlite3_errmsg@@9@9 100f1fec     sqlite3.obj
 0003:00000ff0       ?__LINE__Var@?0??sqlite3_errcode@@9@9 100f1ff0     sqlite3.obj
 0003:00000ff4       ?__LINE__Var@?0??sqlite3_extended_errcode@@9@9 100f1ff4     sqlite3.obj
 0003:00000ff8       ?__LINE__Var@?0??createCollation@@9@9 100f1ff8     sqlite3.obj
 0003:00000ffc       ?__LINE__Var@?0??openDatabase@@9@9 100f1ffc     sqlite3.obj
 0003:00001000       ?__LINE__Var@?0??_Allocate@std@@YAPAXII_N@Z@4JA 100f2000     MyDynLib.obj
 0003:00001004       ?__LINE__Var@?0??_Deallocate@std@@YAXPAXII@Z@4JA 100f2004     MyDynLib.obj
 0003:00001010       ___security_cookie         100f2010     MSVCRTD:gs_cookie.obj
 0003:00001014       ___security_cookie_complement 100f2014     MSVCRTD:gs_cookie.obj
 0003:00001018       __fltused                  100f2018     MSVCRTD:fltused.obj
 0003:0000101c       ?_RTC_ErrorLevels@@3PAHA   100f201c     MSVCRTD:_error_.obj
 0003:00001030       ___scrt_native_dllmain_reason 100f2030     MSVCRTD:utility.obj
 0003:00001034       ___isa_enabled             100f2034     MSVCRTD:_cpu_disp_.obj
 0003:00001038       ___scrt_ucrt_dll_is_in_use 100f2038     MSVCRTD:ucrt_stubs.obj
 0003:0000236c       ??_R0?AVexception@std@@@8  100f336c     MyDynLib.obj
 0003:00002388       ??_R0?AVbad_alloc@std@@@8  100f3388     MyDynLib.obj
 0003:000023a4       ??_R0?AVbad_cast@std@@@8   100f33a4     MyDynLib.obj
 0003:000023c0       ??_R0?AV?$basic_filebuf@DU?$char_traits@D@std@@@std@@@8 100f33c0     MyDynLib.obj
 0003:000023fc       ??_R0?AV?$basic_streambuf@DU?$char_traits@D@std@@@std@@@8 100f33fc     MyDynLib.obj
 0003:00002438       ??_R0?AV?$basic_ifstream@DU?$char_traits@D@std@@@std@@@8 100f3438     MyDynLib.obj
 0003:00002474       ??_R0?AV?$basic_istream@DU?$char_traits@D@std@@@std@@@8 100f3474     MyDynLib.obj
 0003:000024b0       ??_R0?AV?$basic_ios@DU?$char_traits@D@std@@@std@@@8 100f34b0     MyDynLib.obj
 0003:000024e8       ??_R0?AVios_base@std@@@8   100f34e8     MyDynLib.obj
 0003:00002504       ??_R0?AV?$_Iosb@H@std@@@8  100f3504     MyDynLib.obj
 0003:00002520       ??_R0?AVIResource@@@8      100f3520     MyDynLib.obj
 0003:00002538       ??_R0?AVIImageResource@@@8 100f3538     MyDynLib.obj
 0003:00002558       ??_R0?AVIVideoResource@@@8 100f3558     MyDynLib.obj
 0003:00002578       ??_R0?AVIResourceCollection@@@8 100f3578     MyDynLib.obj
 0003:0000259c       ??_R0?AVCResource@@@8      100f359c     MyDynLib.obj
 0003:000025b4       ??_R0?AVCImageResource@@@8 100f35b4     MyDynLib.obj
 0003:000025d4       ??_R0?AVCResourceCollection@@@8 100f35d4     MyDynLib.obj
 0003:000025f8       ??_R0?AVtype_info@@@8      100f35f8     MSVCRTD:std_type_info_static.obj
 0003:00002610       ??_R0?AVbad_array_new_length@std@@@8 100f3610     MSVCRTD:throw_bad_alloc.obj
 0003:0000264c       _sqlite3_temp_directory    100f364c     sqlite3.obj
 0003:00002650       _sqlite3_data_directory    100f3650     sqlite3.obj
 0003:00002b48       ?_OptionsStorage@?1??__local_stdio_printf_options@@9@4_KA 100f3b48     MyDynLib.obj
 0003:00002b50       ?_Stinit@?1??_Init@?$basic_filebuf@DU?$char_traits@D@std@@@std@@IAEXPAU_iobuf@@W4_Initfl@23@@Z@4U_Mbstatet@@A 100f3b50     MyDynLib.obj
 0003:00002b58       ?_Psave@?$_Facetptr@V?$codecvt@DDU_Mbstatet@@@std@@@std@@2PBVfacet@locale@2@B 100f3b58     MyDynLib.obj
 0003:00002b5c       ___@@_PchSym_@00@UfhvihUzwnrmrhgizgliUwvhpglkUglwlUhemillgUwzerwUnbwbmoryUnbwbmoryUwvyftUhgwzucOlyq@4B2008FD98C1DD4 100f3b5c     stdafx.obj
 0003:00002e98       ?__type_info_root_node@@3U__type_info_node@@A 100f3e98     MSVCRTD:tncleanup.obj
 0003:00002ea0       ?_OptionsStorage@?1??__local_stdio_scanf_options@@9@4_KA 100f3ea0     MSVCRTD:default_local_stdio_options.obj
 0003:00002ec4       ___scrt_current_native_startup_state 100f3ec4     MSVCRTD:utility.obj
 0003:00002ec8       ___scrt_native_startup_lock 100f3ec8     MSVCRTD:utility.obj
 0003:00002ed0       ___scrt_debugger_hook_flag 100f3ed0     MSVCRTD:utility_desktop.obj
 0003:00002ed4       ___isa_available           100f3ed4     MSVCRTD:_cpu_disp_.obj
 0003:00002ed8       ___favor                   100f3ed8     MSVCRTD:_cpu_disp_.obj
 0003:00002ee4       ___isa_available_default   100f3ee4     jpeg:jerror.obj
 0003:00002ee8       ___dyn_tls_init_callback   100f3ee8     <common>
 0003:00002ef0       ?_OptionsStorage@?1??__local_stdio_printf_options@@9@9 100f3ef0     <common>
 0003:00002ef8       ?_OptionsStorage@?1??__local_stdio_scanf_options@@9@9 100f3ef8     <common>

 entry point at        0001:000dccb0

 Static symbols

 0002:fff1f000       __guard_fids___except_handler4 10000000     MSVCRTD:_chandler4gs_.obj
 0000:fff06000       .debug$S                   10000000     ucrtd:ucrtbased.dll
 0000:fff06000       .debug$S                   10000000     ucrtd:ucrtbased.dll
 0000:fff06000       .debug$S                   10000000     ucrtd:ucrtbased.dll
 0000:fff06000       .debug$S                   10000000     ucrtd:ucrtbased.dll
 0000:fff06000       .debug$S                   10000000     ucrtd:ucrtbased.dll
 0000:fff06000       .debug$S                   10000000     ucrtd:ucrtbased.dll
 0000:fff06000       .debug$S                   10000000     ucrtd:ucrtbased.dll
 0000:fff06000       .debug$S                   10000000     ucrtd:ucrtbased.dll
 0000:fff06000       .debug$S                   10000000     ucrtd:ucrtbased.dll
 0000:fff06000       .debug$S                   10000000     ucrtd:ucrtbased.dll
 0000:fff06000       .debug$S                   10000000     ucrtd:ucrtbased.dll
 0000:fff06000       .debug$S                   10000000     ucrtd:ucrtbased.dll
 0000:fff06000       .debug$S                   10000000     ucrtd:ucrtbased.dll
 0000:fff06000       .debug$S                   10000000     ucrtd:ucrtbased.dll
 0000:fff06000       .debug$S                   10000000     ucrtd:ucrtbased.dll
 0000:fff06000       .debug$S                   10000000     ucrtd:ucrtbased.dll
 0000:fff06000       .debug$S                   10000000     ucrtd:ucrtbased.dll
 0000:fff06000       .debug$S                   10000000     ucrtd:ucrtbased.dll
 0000:fff06000       .debug$S                   10000000     ucrtd:ucrtbased.dll
 0000:fff06000       .debug$S                   10000000     ucrtd:ucrtbased.dll
 0000:fff06000       .debug$S                   10000000     ucrtd:ucrtbased.dll
 0000:fff06000       .debug$S                   10000000     ucrtd:ucrtbased.dll
 0000:fff06000       .debug$S                   10000000     ucrtd:ucrtbased.dll
 0000:fff06000       .debug$S                   10000000     ucrtd:ucrtbased.dll
 0000:fff06000       .debug$S                   10000000     ucrtd:ucrtbased.dll
 0000:fff06000       .debug$S                   10000000     ucrtd:ucrtbased.dll
 0000:fff06000       .debug$S                   10000000     ucrtd:ucrtbased.dll
 0000:fff06000       .debug$S                   10000000     ucrtd:ucrtbased.dll
 0000:fff06000       .debug$S                   10000000     ucrtd:ucrtbased.dll
 0000:fff06000       .debug$S                   10000000     ucrtd:ucrtbased.dll
 0000:fff06000       .debug$S                   10000000     ucrtd:ucrtbased.dll
 0000:fff06000       .debug$S                   10000000     ucrtd:ucrtbased.dll
 0000:fff06000       .debug$S                   10000000     ucrtd:ucrtbased.dll
 0000:fff06000       .debug$S                   10000000     ucrtd:ucrtbased.dll
 0000:fff06000       .debug$S                   10000000     ucrtd:ucrtbased.dll
 0000:fff06000       .debug$S                   10000000     ucrtd:ucrtbased.dll
 0000:fff06000       .debug$S                   10000000     ucrtd:ucrtbased.dll
 0000:fff06000       .debug$S                   10000000     ucrtd:ucrtbased.dll
 0000:fff06000       .debug$S                   10000000     ucrtd:ucrtbased.dll
 0000:fff06000       .debug$S                   10000000     ucrtd:ucrtbased.dll
 0000:fff06000       .debug$S                   10000000     ucrtd:ucrtbased.dll
 0000:fff06000       .debug$S                   10000000     ucrtd:ucrtbased.dll
 0000:fff06000       .debug$S                   10000000     ucrtd:ucrtbased.dll
 0000:fff06000       .debug$S                   10000000     ucrtd:ucrtbased.dll
 0000:fff06000       .debug$S                   10000000     ucrtd:ucrtbased.dll
 0000:fff06000       .debug$S                   10000000     ucrtd:ucrtbased.dll
 0000:fff06000       .debug$S                   10000000     ucrtd:ucrtbased.dll
 0000:fff06000       .debug$S                   10000000     ucrtd:ucrtbased.dll
 0000:fff06000       .debug$S                   10000000     ucrtd:ucrtbased.dll
 0000:fff06000       .debug$S                   10000000     ucrtd:ucrtbased.dll
 0000:fff06000       .debug$S                   10000000     ucrtd:ucrtbased.dll
 0000:fff06000       .debug$S                   10000000     ucrtd:ucrtbased.dll
 0000:fff06000       .debug$S                   10000000     ucrtd:ucrtbased.dll
 0000:fff06000       .debug$S                   10000000     ucrtd:ucrtbased.dll
 0000:fff06000       .debug$S                   10000000     ucrtd:ucrtbased.dll
 0000:fff06000       .debug$S                   10000000     ucrtd:ucrtbased.dll
 0000:fff06000       .debug$S                   10000000     ucrtd:ucrtbased.dll
 0000:fff06000       .debug$S                   10000000     ucrtd:ucrtbased.dll
 0000:fff06000       .debug$S                   10000000     ucrtd:ucrtbased.dll
 0002:fff1f000       __guard_fids___CRT_RTC_INITW 10000000     MSVCRTD:_init_.obj
 0000:fff06000       .debug$S                   10000000     vcruntimed:VCRUNTIME140D.dll
 0000:fff06000       .debug$S                   10000000     vcruntimed:VCRUNTIME140D.dll
 0000:fff06000       .debug$S                   10000000     vcruntimed:VCRUNTIME140D.dll
 0000:fff06000       .debug$S                   10000000     vcruntimed:VCRUNTIME140D.dll
 0000:fff06000       .debug$S                   10000000     vcruntimed:VCRUNTIME140D.dll
 0000:fff06000       .debug$S                   10000000     vcruntimed:VCRUNTIME140D.dll
 0000:fff06000       .debug$S                   10000000     vcruntimed:VCRUNTIME140D.dll
 0000:fff06000       .debug$S                   10000000     vcruntimed:VCRUNTIME140D.dll
 0000:fff06000       .debug$S                   10000000     vcruntimed:VCRUNTIME140D.dll
 0000:fff06000       .debug$S                   10000000     vcruntimed:VCRUNTIME140D.dll
 0000:fff06000       .debug$S                   10000000     vcruntimed:VCRUNTIME140D.dll
 0000:fff06000       .debug$S                   10000000     vcruntimed:VCRUNTIME140D.dll
 0000:fff06000       .debug$S                   10000000     vcruntimed:VCRUNTIME140D.dll
 0000:fff06000       .debug$S                   10000000     vcruntimed:VCRUNTIME140D.dll
 0000:fff06000       .debug$S                   10000000     vcruntimed:VCRUNTIME140D.dll
 0000:fff06000       .debug$S                   10000000     msvcprtd:MSVCP140D.dll
 0000:fff06000       .debug$S                   10000000     msvcprtd:MSVCP140D.dll
 0000:fff06000       .debug$S                   10000000     msvcprtd:MSVCP140D.dll
 0000:fff06000       .debug$S                   10000000     msvcprtd:MSVCP140D.dll
 0000:fff06000       .debug$S                   10000000     msvcprtd:MSVCP140D.dll
 0000:fff06000       .debug$S                   10000000     msvcprtd:MSVCP140D.dll
 0000:fff06000       .debug$S                   10000000     msvcprtd:MSVCP140D.dll
 0000:fff06000       .debug$S                   10000000     msvcprtd:MSVCP140D.dll
 0000:fff06000       .debug$S                   10000000     msvcprtd:MSVCP140D.dll
 0000:fff06000       .debug$S                   10000000     msvcprtd:MSVCP140D.dll
 0000:fff06000       .debug$S                   10000000     msvcprtd:MSVCP140D.dll
 0000:fff06000       .debug$S                   10000000     msvcprtd:MSVCP140D.dll
 0000:fff06000       .debug$S                   10000000     msvcprtd:MSVCP140D.dll
 0000:fff06000       .debug$S                   10000000     msvcprtd:MSVCP140D.dll
 0000:fff06000       .debug$S                   10000000     msvcprtd:MSVCP140D.dll
 0000:fff06000       .debug$S                   10000000     msvcprtd:MSVCP140D.dll
 0000:fff06000       .debug$S                   10000000     msvcprtd:MSVCP140D.dll
 0000:fff06000       .debug$S                   10000000     msvcprtd:MSVCP140D.dll
 0000:fff06000       .debug$S                   10000000     msvcprtd:MSVCP140D.dll
 0000:fff06000       .debug$S                   10000000     msvcprtd:MSVCP140D.dll
 0000:fff06000       .debug$S                   10000000     msvcprtd:MSVCP140D.dll
 0000:fff06000       .debug$S                   10000000     msvcprtd:MSVCP140D.dll
 0000:fff06000       .debug$S                   10000000     msvcprtd:MSVCP140D.dll
 0000:fff06000       .debug$S                   10000000     msvcprtd:MSVCP140D.dll
 0000:fff06000       .debug$S                   10000000     msvcprtd:MSVCP140D.dll
 0000:fff06000       .debug$S                   10000000     msvcprtd:MSVCP140D.dll
 0000:fff06000       .debug$S                   10000000     msvcprtd:MSVCP140D.dll
 0000:fff06000       .debug$S                   10000000     msvcprtd:MSVCP140D.dll
 0000:fff06000       .debug$S                   10000000     msvcprtd:MSVCP140D.dll
 0000:fff06000       .debug$S                   10000000     msvcprtd:MSVCP140D.dll
 0000:fff06000       .debug$S                   10000000     msvcprtd:MSVCP140D.dll
 0000:fff06000       .debug$S                   10000000     msvcprtd:MSVCP140D.dll
 0000:fff06000       .debug$S                   10000000     msvcprtd:MSVCP140D.dll
 0000:fff06000       .debug$S                   10000000     msvcprtd:MSVCP140D.dll
 0000:fff06000       .debug$S                   10000000     msvcprtd:MSVCP140D.dll
 0000:fff06000       .debug$S                   10000000     msvcprtd:MSVCP140D.dll
 0000:fff06000       .debug$S                   10000000     msvcprtd:MSVCP140D.dll
 0000:fff06000       .debug$S                   10000000     msvcprtd:MSVCP140D.dll
 0000:fff06000       .debug$S                   10000000     msvcprtd:MSVCP140D.dll
 0000:fff06000       .debug$S                   10000000     msvcprtd:MSVCP140D.dll
 0000:fff06000       .debug$S                   10000000     msvcprtd:MSVCP140D.dll
 0000:fff06000       .debug$S                   10000000     msvcprtd:MSVCP140D.dll
 0000:fff06000       .debug$S                   10000000     msvcprtd:MSVCP140D.dll
 0000:fff06000       .debug$S                   10000000     msvcprtd:MSVCP140D.dll
 0000:fff06000       .debug$S                   10000000     msvcprtd:MSVCP140D.dll
 0000:fff06000       .debug$S                   10000000     msvcprtd:MSVCP140D.dll
 0000:fff06000       .debug$S                   10000000     msvcprtd:MSVCP140D.dll
 0000:fff06000       .debug$S                   10000000     msvcprtd:MSVCP140D.dll
 0000:fff06000       .debug$S                   10000000     msvcprtd:MSVCP140D.dll
 0000:fff06000       .debug$S                   10000000     msvcprtd:MSVCP140D.dll
 0000:fff06000       .debug$S                   10000000     msvcprtd:MSVCP140D.dll
 0000:fff06000       .debug$S                   10000000     msvcprtd:MSVCP140D.dll
 0002:fff1f000       __guard_fids___CRT_RTC_INIT 10000000     MSVCRTD:_init_.obj
 0000:fff06000       .debug$S                   10000000     msvcprtd:MSVCP140D.dll
 0000:fff06000       .debug$S                   10000000     msvcprtd:MSVCP140D.dll
 0000:fff06000       .debug$S                   10000000     kernel32:KERNEL32.dll
 0000:fff06000       .debug$S                   10000000     kernel32:KERNEL32.dll
 0000:fff06000       .debug$S                   10000000     msvcprtd:MSVCP140D.dll
 0000:fff06000       .debug$S                   10000000     msvcprtd:MSVCP140D.dll
 0000:fff06000       .debug$S                   10000000     kernel32:KERNEL32.dll
 0000:fff06000       .debug$S                   10000000     kernel32:KERNEL32.dll
 0000:fff06000       .debug$S                   10000000     kernel32:KERNEL32.dll
 0000:fff06000       .debug$S                   10000000     kernel32:KERNEL32.dll
 0000:fff06000       .debug$S                   10000000     kernel32:KERNEL32.dll
 0000:fff06000       .debug$S                   10000000     kernel32:KERNEL32.dll
 0000:fff06000       .debug$S                   10000000     kernel32:KERNEL32.dll
 0000:fff06000       .debug$S                   10000000     kernel32:KERNEL32.dll
 0000:fff06000       .debug$S                   10000000     kernel32:KERNEL32.dll
 0000:fff06000       .debug$S                   10000000     kernel32:KERNEL32.dll
 0000:fff06000       .debug$S                   10000000     kernel32:KERNEL32.dll
 0000:fff06000       .debug$S                   10000000     kernel32:KERNEL32.dll
 0000:fff06000       .debug$S                   10000000     kernel32:KERNEL32.dll
 0000:fff06000       .debug$S                   10000000     MyDynLib.exp
 0000:fff06000       .debug$S                   10000000     kernel32:KERNEL32.dll
 0000:fff06000       .debug$S                   10000000     kernel32:KERNEL32.dll
 0000:fff06000       .debug$S                   10000000     kernel32:KERNEL32.dll
 0000:fff06000       .debug$S                   10000000     kernel32:KERNEL32.dll
 0000:fff06000       .debug$S                   10000000     kernel32:KERNEL32.dll
 0000:fff06000       .debug$S                   10000000     msvcprtd:MSVCP140D.dll
 0000:fff06000       .debug$S                   10000000     kernel32:KERNEL32.dll
 0000:fff06000       .debug$S                   10000000     kernel32:KERNEL32.dll
 0000:fff06000       .debug$S                   10000000     kernel32:KERNEL32.dll
 0000:fff06000       .debug$S                   10000000     kernel32:KERNEL32.dll
 0000:fff06000       .debug$S                   10000000     kernel32:KERNEL32.dll
 0000:fff06000       .debug$S                   10000000     kernel32:KERNEL32.dll
 0000:fff06000       .debug$S                   10000000     kernel32:KERNEL32.dll
 0000:fff06000       .debug$S                   10000000     kernel32:KERNEL32.dll
 0000:fff06000       .debug$S                   10000000     kernel32:KERNEL32.dll
 0000:fff06000       .debug$S                   10000000     kernel32:KERNEL32.dll
 0000:fff06000       .debug$S                   10000000     kernel32:KERNEL32.dll
 0000:fff06000       .debug$S                   10000000     kernel32:KERNEL32.dll
 0000:fff06000       .debug$S                   10000000     kernel32:KERNEL32.dll
 0000:fff06000       .debug$S                   10000000     kernel32:KERNEL32.dll
 0000:fff06000       .debug$S                   10000000     kernel32:KERNEL32.dll
 0000:fff06000       .debug$S                   10000000     kernel32:KERNEL32.dll
 0000:fff06000       .debug$S                   10000000     kernel32:KERNEL32.dll
 0000:fff06000       .debug$S                   10000000     kernel32:KERNEL32.dll
 0000:fff06000       .debug$S                   10000000     kernel32:KERNEL32.dll
 0000:fff06000       .debug$S                   10000000     kernel32:KERNEL32.dll
 0000:fff06000       .debug$S                   10000000     kernel32:KERNEL32.dll
 0000:fff06000       .debug$S                   10000000     kernel32:KERNEL32.dll
 0000:fff06000       .debug$S                   10000000     kernel32:KERNEL32.dll
 0000:fff06000       .debug$S                   10000000     kernel32:KERNEL32.dll
 0000:fff06000       .debug$S                   10000000     kernel32:KERNEL32.dll
 0000:fff06000       .debug$S                   10000000     kernel32:KERNEL32.dll
 0000:fff06000       .debug$S                   10000000     kernel32:KERNEL32.dll
 0000:fff06000       .debug$S                   10000000     kernel32:KERNEL32.dll
 0000:fff06000       .debug$S                   10000000     kernel32:KERNEL32.dll
 0000:fff06000       .debug$S                   10000000     kernel32:KERNEL32.dll
 0000:fff06000       .debug$S                   10000000     kernel32:KERNEL32.dll
 0000:fff06000       .debug$S                   10000000     kernel32:KERNEL32.dll
 0000:fff06000       .debug$S                   10000000     kernel32:KERNEL32.dll
 0000:fff06000       .debug$S                   10000000     kernel32:KERNEL32.dll
 0000:fff06000       .debug$S                   10000000     kernel32:KERNEL32.dll
 0000:fff06000       .debug$S                   10000000     kernel32:KERNEL32.dll
 0000:fff06000       .debug$S                   10000000     kernel32:KERNEL32.dll
 0000:fff06000       .debug$S                   10000000     kernel32:KERNEL32.dll
 0000:fff06000       .debug$S                   10000000     kernel32:KERNEL32.dll
 0000:fff06000       .debug$S                   10000000     kernel32:KERNEL32.dll
 0000:fff06000       .debug$S                   10000000     kernel32:KERNEL32.dll
 0000:fff06000       .debug$S                   10000000     kernel32:KERNEL32.dll
 0000:fff06000       .debug$S                   10000000     kernel32:KERNEL32.dll
 0000:fff06000       .debug$S                   10000000     kernel32:KERNEL32.dll
 0000:fff06000       .debug$S                   10000000     kernel32:KERNEL32.dll
 0000:fff06000       .debug$S                   10000000     kernel32:KERNEL32.dll
 0000:fff06000       .debug$S                   10000000     kernel32:KERNEL32.dll
 0000:fff06000       .debug$S                   10000000     kernel32:KERNEL32.dll
 0000:fff06000       .debug$S                   10000000     kernel32:KERNEL32.dll
 0000:fff06000       .debug$S                   10000000     kernel32:KERNEL32.dll
 0000:fff06000       .debug$S                   10000000     kernel32:KERNEL32.dll
 0000:fff06000       .debug$S                   10000000     kernel32:KERNEL32.dll
 0000:fff06000       .debug$S                   10000000     kernel32:KERNEL32.dll
 0000:fff06000       .debug$S                   10000000     kernel32:KERNEL32.dll
 0000:fff06000       .debug$S                   10000000     kernel32:KERNEL32.dll
 0000:fff06000       .debug$S                   10000000     kernel32:KERNEL32.dll
 0000:fff06000       .debug$S                   10000000     kernel32:KERNEL32.dll
 0000:fff06000       .debug$S                   10000000     kernel32:KERNEL32.dll
 0002:fff1f000       __guard_fids__             10000000     MSVCRTD:guard_support.obj
 0002:fff1f000       __guard_fids___guard_icall_checks_enforced 10000000     MSVCRTD:guard_support.obj
 0002:fff1f000       __guard_fids__             10000000     MSVCRTD:throw_bad_alloc.obj
 0002:fff1f000       __guard_fids__             10000000     MSVCRTD:throw_bad_alloc.obj
 0002:fff1f000       __guard_fids__             10000000     MSVCRTD:throw_bad_alloc.obj
 0002:fff1f000       __guard_fids__             10000000     MSVCRTD:throw_bad_alloc.obj
 0002:fff1f000       __guard_fids__             10000000     MSVCRTD:throw_bad_alloc.obj
 0002:fff1f000       __guard_fids__             10000000     MSVCRTD:std_type_info_static.obj
 0002:fff1f000       __guard_fids_??__E_Fac_tidy_reg@std@@YAXXZ 10000000     msvcprtd:locale0_implib.obj
 0002:fff1f000       __guard_fids__             10000000     msvcprtd:locale0_implib.obj
 0002:fff1f000       __guard_fids____scrt_set_unhandled_exception_filter 10000000     MSVCRTD:utility_desktop.obj
 0002:fff1f000       __guard_fids_?dllmain_dispatch@@YAHQAUHINSTANCE__@@KQAX@Z 10000000     MSVCRTD:dll_dllmain.obj
 0002:fff1f000       __guard_fids__             10000000     MSVCRTD:throw_bad_alloc.obj
 0002:fff1f000       __guard_fids__             10000000     MSVCRTD:throw_bad_alloc.obj
 0002:fff1f000       __guard_fids__             10000000     MSVCRTD:throw_bad_alloc.obj
 0001:00000000       ??__E_Fac_tidy_reg@std@@YAXXZ 10001000 f   msvcprtd:locale0_implib.obj
 0001:00000130       _error_exit                10001130 f   jpeg:jerror.obj
 0001:00000150       _output_message            10001150 f   jpeg:jerror.obj
 0001:000001b0       _emit_message              100011b0 f   jpeg:jerror.obj
 0001:000001f0       _format_message            100011f0 f   jpeg:jerror.obj
 0001:00000290       _reset_error_mgr           10001290 f   jpeg:jerror.obj
 0001:000006b0       _default_decompress_parms  100016b0 f   jpeg:jdapimin.obj
 0001:000009e8       $LN36                      100019e8     jpeg:jdapimin.obj
 0001:000009fc       $LN32                      100019fc     jpeg:jdapimin.obj
 0001:00000aac       $LN15                      10001aac     jpeg:jdapimin.obj
 0001:00000ac0       $LN11                      10001ac0     jpeg:jdapimin.obj
 0001:00000c50       _init_source               10001c50 f   jpeg:jdatasrc.obj
 0001:00000c60       _init_mem_source           10001c60 f   jpeg:jdatasrc.obj
 0001:00000c70       _fill_input_buffer         10001c70 f   jpeg:jdatasrc.obj
 0001:00000cf0       _fill_mem_input_buffer     10001cf0 f   jpeg:jdatasrc.obj
 0001:00000d30       _skip_input_data           10001d30 f   jpeg:jdatasrc.obj
 0001:00000d70       _term_source               10001d70 f   jpeg:jdatasrc.obj
 0001:00000f70       _output_pass_setup         10001f70 f   jpeg:jdapistd.obj
 0001:000013a0       _out_of_memory             100023a0 f   jpeg:jmemmgr.obj
 0001:000013c0       _alloc_small               100023c0 f   jpeg:jmemmgr.obj
 0001:00001500       _alloc_large               10002500 f   jpeg:jmemmgr.obj
 0001:000015d0       _alloc_sarray              100025d0 f   jpeg:jmemmgr.obj
 0001:00001680       _alloc_barray              10002680 f   jpeg:jmemmgr.obj
 0001:00001730       _request_virt_sarray       10002730 f   jpeg:jmemmgr.obj
 0001:000017a0       _request_virt_barray       100027a0 f   jpeg:jmemmgr.obj
 0001:00001810       _realize_virt_arrays       10002810 f   jpeg:jmemmgr.obj
 0001:00001990       _do_sarray_io              10002990 f   jpeg:jmemmgr.obj
 0001:00001a20       _do_barray_io              10002a20 f   jpeg:jmemmgr.obj
 0001:00001ab0       _access_virt_sarray        10002ab0 f   jpeg:jmemmgr.obj
 0001:00001c00       _access_virt_barray        10002c00 f   jpeg:jmemmgr.obj
 0001:00001d50       _free_pool                 10002d50 f   jpeg:jmemmgr.obj
 0001:00001e60       _self_destruct             10002e60 f   jpeg:jmemmgr.obj
 0001:000020c0       _get_soi                   100030c0 f   jpeg:jdmarker.obj
 0001:00002160       _get_sof                   10003160 f   jpeg:jdmarker.obj
 0001:000024c0       _get_sos                   100034c0 f   jpeg:jdmarker.obj
 0001:00002810       _get_dac                   10003810 f   jpeg:jdmarker.obj
 0001:00002990       _get_dht                   10003990 f   jpeg:jdmarker.obj
 0001:00002ca0       _get_dqt                   10003ca0 f   jpeg:jdmarker.obj
 0001:00003008       $LN97                      10004008     jpeg:jdmarker.obj
 0001:00003024       $LN92                      10004024     jpeg:jdmarker.obj
 0001:00003060       _get_dri                   10004060 f   jpeg:jdmarker.obj
 0001:00003160       _get_lse                   10004160 f   jpeg:jdmarker.obj
 0001:000035e0       _examine_app0              100045e0 f   jpeg:jdmarker.obj
 0001:00003830       _examine_app14             10004830 f   jpeg:jdmarker.obj
 0001:00003900       _get_interesting_appn      10004900 f   jpeg:jdmarker.obj
 0001:00003a70       _save_marker               10004a70 f   jpeg:jdmarker.obj
 0001:00003ce0       _skip_variable             10004ce0 f   jpeg:jdmarker.obj
 0001:00003d90       _next_marker               10004d90 f   jpeg:jdmarker.obj
 0001:00003e90       _first_marker              10004e90 f   jpeg:jdmarker.obj
 0001:00003f40       _read_markers              10004f40 f   jpeg:jdmarker.obj
 0001:00004314       $LN127                     10005314     jpeg:jdmarker.obj
 0001:00004360       $LN117                     10005360     jpeg:jdmarker.obj
 0001:00004460       _read_restart_marker       10005460 f   jpeg:jdmarker.obj
 0001:00004600       _reset_marker_reader       10005600 f   jpeg:jdmarker.obj
 0001:00004c40       _initial_setup             10005c40 f   jpeg:jdinput.obj
 0001:00005048       $LN69                      10006048     jpeg:jdinput.obj
 0001:00005088       $LN64                      10006088     jpeg:jdinput.obj
 0001:00005170       _per_scan_setup            10006170 f   jpeg:jdinput.obj
 0001:00005320       _latch_quant_tables        10006320 f   jpeg:jdinput.obj
 0001:000053c0       _start_input_pass          100063c0 f   jpeg:jdinput.obj
 0001:00005630       _finish_input_pass         10006630 f   jpeg:jdinput.obj
 0001:00005660       _consume_markers           10006660 f   jpeg:jdinput.obj
 0001:00005750       _reset_input_controller    10006750 f   jpeg:jdinput.obj
 0001:000057e0       _use_merged_upsample       100067e0 f   jpeg:jdmaster.obj
 0001:00005aa4       $LN51                      10006aa4     jpeg:jdmaster.obj
 0001:00005ac0       _prepare_range_limit_table 10006ac0 f   jpeg:jdmaster.obj
 0001:00005b30       _master_selection          10006b30 f   jpeg:jdmaster.obj
 0001:00006390       _prepare_for_output_pass   10007390 f   jpeg:jdmaster.obj
 0001:000064f0       _finish_output_pass        100074f0 f   jpeg:jdmaster.obj
 0001:000066e0       _select_ncolors            100076e0 f   jpeg:jquant1.obj
 0001:000067e0       _output_value              100077e0 f   jpeg:jquant1.obj
 0001:00006800       _largest_input_value       10007800 f   jpeg:jquant1.obj
 0001:00006820       _create_colormap           10007820 f   jpeg:jquant1.obj
 0001:00006a70       _create_colorindex         10007a70 f   jpeg:jquant1.obj
 0001:00006bc0       _make_odither_array        10007bc0 f   jpeg:jquant1.obj
 0001:00006c30       _create_odither_tables     10007c30 f   jpeg:jquant1.obj
 0001:00006d10       _color_quantize            10007d10 f   jpeg:jquant1.obj
 0001:00006dc0       _color_quantize3           10007dc0 f   jpeg:jquant1.obj
 0001:00006e80       _quantize_ord_dither       10007e80 f   jpeg:jquant1.obj
 0001:00006f90       _quantize3_ord_dither      10007f90 f   jpeg:jquant1.obj
 0001:000070c0       _quantize_fs_dither        100080c0 f   jpeg:jquant1.obj
 0001:00007280       _alloc_fs_workspace        10008280 f   jpeg:jquant1.obj
 0001:000072c0       _start_pass_1_quant        100082c0 f   jpeg:jquant1.obj
 0001:00007470       _finish_pass_1_quant       10008470 f   jpeg:jquant1.obj
 0001:00007480       _new_color_map_1_quant     10008480 f   jpeg:jquant1.obj
 0001:00007540       _build_ycc_rgb_table       10008540 f   jpeg:jdmerge.obj
 0001:00007610       _build_bg_ycc_rgb_table    10008610 f   jpeg:jdmerge.obj
 0001:000076e0       _start_pass_merged_upsample 100086e0 f   jpeg:jdmerge.obj
 0001:00007700       _merged_2v_upsample        10008700 f   jpeg:jdmerge.obj
 0001:000077b0       _merged_1v_upsample        100087b0 f   jpeg:jdmerge.obj
 0001:000077f0       _h2v1_merged_upsample      100087f0 f   jpeg:jdmerge.obj
 0001:00007960       _h2v2_merged_upsample      10008960 f   jpeg:jdmerge.obj
 0001:00007d60       _start_pass_upsample       10008d60 f   jpeg:jdsample.obj
 0001:00007d80       _sep_upsample              10008d80 f   jpeg:jdsample.obj
 0001:00007e50       _fullsize_upsample         10008e50 f   jpeg:jdsample.obj
 0001:00007e60       _noop_upsample             10008e60 f   jpeg:jdsample.obj
 0001:00007e70       _int_upsample              10008e70 f   jpeg:jdsample.obj
 0001:00007f90       _h2v1_upsample             10008f90 f   jpeg:jdsample.obj
 0001:00007ff0       _h2v2_upsample             10008ff0 f   jpeg:jdsample.obj
 0001:00008200       _jpeg_make_d_derived_tbl   10009200 f   jpeg:jdhuff.obj
 0001:00008500       _jpeg_fill_bit_buffer      10009500 f   jpeg:jdhuff.obj
 0001:00008620       _jpeg_huff_decode          10009620 f   jpeg:jdhuff.obj
 0001:000086e0       _finish_pass_huff          100096e0 f   jpeg:jdhuff.obj
 0001:00008710       _process_restart           10009710 f   jpeg:jdhuff.obj
 0001:000087a0       _decode_mcu_DC_first       100097a0 f   jpeg:jdhuff.obj
 0001:000089d0       _decode_mcu_AC_first       100099d0 f   jpeg:jdhuff.obj
 0001:00008c30       _decode_mcu_DC_refine      10009c30 f   jpeg:jdhuff.obj
 0001:00008d20       _decode_mcu_AC_refine      10009d20 f   jpeg:jdhuff.obj
 0001:00009100       _decode_mcu_sub            1000a100 f   jpeg:jdhuff.obj
 0001:00009560       _decode_mcu                1000a560 f   jpeg:jdhuff.obj
 0001:000099b0       _start_pass_huff_decoder   1000a9b0 f   jpeg:jdhuff.obj
 0001:00009ee4       $LN113                     1000aee4     jpeg:jdhuff.obj
 0001:00009f04       $LN108                     1000af04     jpeg:jdhuff.obj
 0001:0000a020       _prescan_quantize          1000b020 f   jpeg:jquant2.obj
 0001:0000a110       _find_biggest_color_pop    1000b110 f   jpeg:jquant2.obj
 0001:0000a180       _find_biggest_volume       1000b180 f   jpeg:jquant2.obj
 0001:0000a1e0       _update_box                1000b1e0 f   jpeg:jquant2.obj
 0001:0000a6e0       _median_cut                1000b6e0 f   jpeg:jquant2.obj
 0001:0000a8c0       _compute_color             1000b8c0 f   jpeg:jquant2.obj
 0001:0000aa80       _select_colors             1000ba80 f   jpeg:jquant2.obj
 0001:0000abd0       _find_nearby_colors        1000bbd0 f   jpeg:jquant2.obj
 0001:0000af00       _find_best_colors          1000bf00 f   jpeg:jquant2.obj
 0001:0000b120       _fill_inverse_cmap         1000c120 f   jpeg:jquant2.obj
 0001:0000b290       _pass2_no_dither           1000c290 f   jpeg:jquant2.obj
 0001:0000b3b0       _pass2_fs_dither           1000c3b0 f   jpeg:jquant2.obj
 0001:0000b7d0       _init_error_limit          1000c7d0 f   jpeg:jquant2.obj
 0001:0000b8e0       _finish_pass1              1000c8e0 f   jpeg:jquant2.obj
 0001:0000b920       _finish_pass2              1000c920 f   jpeg:jquant2.obj
 0001:0000b930       _start_pass_2_quant        1000c930 f   jpeg:jquant2.obj
 0001:0000baf0       _new_color_map_2_quant     1000caf0 f   jpeg:jquant2.obj
 0001:0000bd00       _get_byte                  1000cd00 f   jpeg:jdarith.obj
 0001:0000bd40       _arith_decode              1000cd40 f   jpeg:jdarith.obj
 0001:0000bed0       _process_restart           1000ced0 f   jpeg:jdarith.obj
 0001:0000bfe0       _decode_mcu_DC_first       1000cfe0 f   jpeg:jdarith.obj
 0001:0000c1d0       _decode_mcu_AC_first       1000d1d0 f   jpeg:jdarith.obj
 0001:0000c3f0       _decode_mcu_DC_refine      1000d3f0 f   jpeg:jdarith.obj
 0001:0000c470       _decode_mcu_AC_refine      1000d470 f   jpeg:jdarith.obj
 0001:0000c610       _decode_mcu                1000d610 f   jpeg:jdarith.obj
 0001:0000c9b0       _start_pass                1000d9b0 f   jpeg:jdarith.obj
 0001:0000cd30       _finish_pass               1000dd30 f   jpeg:jdarith.obj
 0001:0000cde0       _start_iMCU_row            1000dde0 f   jpeg:jdcoefct.obj
 0001:0000ce50       _start_input_pass          1000de50 f   jpeg:jdcoefct.obj
 0001:0000ce70       _start_output_pass         1000de70 f   jpeg:jdcoefct.obj
 0001:0000d030       _decompress_onepass        1000e030 f   jpeg:jdcoefct.obj
 0001:0000d2d0       _dummy_consume_data        1000e2d0 f   jpeg:jdcoefct.obj
 0001:0000d2e0       _consume_data              1000e2e0 f   jpeg:jdcoefct.obj
 0001:0000d530       _decompress_data           1000e530 f   jpeg:jdcoefct.obj
 0001:0000d6d0       _smoothing_ok              1000e6d0 f   jpeg:jdcoefct.obj
 0001:0000d840       _decompress_smooth_data    1000e840 f   jpeg:jdcoefct.obj
 0001:0000e080       _build_ycc_rgb_table       1000f080 f   jpeg:jdcolor.obj
 0001:0000e150       _build_bg_ycc_rgb_table    1000f150 f   jpeg:jdcolor.obj
 0001:0000e220       _ycc_rgb_convert           1000f220 f   jpeg:jdcolor.obj
 0001:0000e360       _build_rgb_y_table         1000f360 f   jpeg:jdcolor.obj
 0001:0000e480       _rgb_gray_convert          1000f480 f   jpeg:jdcolor.obj
 0001:0000e560       _rgb1_rgb_convert          1000f560 f   jpeg:jdcolor.obj
 0001:0000e620       _rgb1_gray_convert         1000f620 f   jpeg:jdcolor.obj
 0001:0000e710       _rgb_convert               1000f710 f   jpeg:jdcolor.obj
 0001:0000e7b0       _null_convert              1000f7b0 f   jpeg:jdcolor.obj
 0001:0000e840       _grayscale_convert         1000f840 f   jpeg:jdcolor.obj
 0001:0000e890       _gray_rgb_convert          1000f890 f   jpeg:jdcolor.obj
 0001:0000e900       _ycck_cmyk_convert         1000f900 f   jpeg:jdcolor.obj
 0001:0000ea80       _start_pass_dcolor         1000fa80 f   jpeg:jdcolor.obj
 0001:0000ee90       $LN100                     1000fe90     jpeg:jdcolor.obj
 0001:0000eeac       $LN101                     1000feac     jpeg:jdcolor.obj
 0001:0000eec4       $LN102                     1000fec4     jpeg:jdcolor.obj
 0001:0000eed0       $LN94                      1000fed0     jpeg:jdcolor.obj
 0001:0000eed8       $LN103                     1000fed8     jpeg:jdcolor.obj
 0001:0000ef00       _alloc_funny_pointers      1000ff00 f   jpeg:jdmainct.obj
 0001:0000efc0       _make_funny_pointers       1000ffc0 f   jpeg:jdmainct.obj
 0001:0000f100       _set_wraparound_pointers   10010100 f   jpeg:jdmainct.obj
 0001:0000f1e0       _set_bottom_pointers       100101e0 f   jpeg:jdmainct.obj
 0001:0000f280       _start_pass_main           10010280 f   jpeg:jdmainct.obj
 0001:0000f450       _process_data_simple_main  10010450 f   jpeg:jdmainct.obj
 0001:0000f4c0       _process_data_context_main 100104c0 f   jpeg:jdmainct.obj
 0001:0000f760       _process_data_crank_post   10010760 f   jpeg:jdmainct.obj
 0001:0000f900       _start_pass                10010900 f   jpeg:jddctmgr.obj
 0001:00010010       _start_pass_dpost          10011010 f   jpeg:jdpostct.obj
 0001:00010110       _post_process_1pass        10011110 f   jpeg:jdpostct.obj
 0001:00010190       _post_process_prepass      10011190 f   jpeg:jdpostct.obj
 0001:00010230       _post_process_2pass        10011230 f   jpeg:jdpostct.obj
 0001:0001c570       _winGetSystemCall          1001d570 f   sqlite3.obj
 0001:0001c5f0       _winNextSystemCall         1001d5f0 f   sqlite3.obj
 0001:0001c828       $LN10                      1001d828     sqlite3.obj
 0001:0001c830       $LN9                       1001d830     sqlite3.obj
 0001:0001c83c       $LN8                       1001d83c     sqlite3.obj
 0001:0001c8d4       $LN6                       1001d8d4     sqlite3.obj
 0001:0001c8dc       $LN5                       1001d8dc     sqlite3.obj
 0001:0001c8e8       $LN4                       1001d8e8     sqlite3.obj
 0001:0001cd74       $LN37                      1001dd74     sqlite3.obj
 0001:0001cd7c       $LN36                      1001dd7c     sqlite3.obj
 0001:0001cd94       $LN35                      1001dd94     sqlite3.obj
 0001:0001cd9a       $LN34                      1001dd9a     sqlite3.obj
 0001:0001cdb0       _minmaxFunc                1001ddb0 f   sqlite3.obj
 0001:0001cec0       _typeofFunc                1001dec0 f   sqlite3.obj
 0001:0001cf30       _lengthFunc                1001df30 f   sqlite3.obj
 0001:0001d090       $LN16                      1001e090     sqlite3.obj
 0001:0001d0a0       _juliandayFunc             1001e0a0 f   sqlite3.obj
 0001:0001d148       $LN6                       1001e148     sqlite3.obj
 0001:0001d150       $LN5                       1001e150     sqlite3.obj
 0001:0001d15c       $LN4                       1001e15c     sqlite3.obj
 0001:0001d160       _absFunc                   1001e160 f   sqlite3.obj
 0001:0001d2b0       _datetimeFunc              1001e2b0 f   sqlite3.obj
 0001:0001d378       $LN7                       1001e378     sqlite3.obj
 0001:0001d380       $LN6                       1001e380     sqlite3.obj
 0001:0001d398       $LN5                       1001e398     sqlite3.obj
 0001:0001d39d       $LN4                       1001e39d     sqlite3.obj
 0001:0001d3a0       _timeFunc                  1001e3a0 f   sqlite3.obj
 0001:0001d45c       $LN7                       1001e45c     sqlite3.obj
 0001:0001d464       $LN6                       1001e464     sqlite3.obj
 0001:0001d47c       $LN5                       1001e47c     sqlite3.obj
 0001:0001d481       $LN4                       1001e481     sqlite3.obj
 0001:0001d490       _renameTableFunc           1001e490 f   sqlite3.obj
 0001:0001d5cc       $LN15                      1001e5cc     sqlite3.obj
 0001:0001d5d4       $LN14                      1001e5d4     sqlite3.obj
 0001:0001d5ec       $LN13                      1001e5ec     sqlite3.obj
 0001:0001d5f2       $LN12                      1001e5f2     sqlite3.obj
 0001:0001d600       _instrFunc                 1001e600 f   sqlite3.obj
 0001:0001d7e0       _dateFunc                  1001e7e0 f   sqlite3.obj
 0001:0001d898       $LN7                       1001e898     sqlite3.obj
 0001:0001d8a0       $LN6                       1001e8a0     sqlite3.obj
 0001:0001d8b8       $LN5                       1001e8b8     sqlite3.obj
 0001:0001d8bd       $LN4                       1001e8bd     sqlite3.obj
 0001:0001d8c0       _winClose                  1001e8c0 f   sqlite3.obj
 0001:0001d9c0       _strftimeFunc              1001e9c0 f   sqlite3.obj
 0001:0001e088       $LN56                      1001f088     sqlite3.obj
 0001:0001e090       $LN55                      1001f090     sqlite3.obj
 0001:0001e0b4       $LN54                      1001f0b4     sqlite3.obj
 0001:0001e0b6       $LN53                      1001f0b6     sqlite3.obj
 0001:0001e0bb       $LN52                      1001f0bb     sqlite3.obj
 0001:0001e0c0       $LN57                      1001f0c0     sqlite3.obj
 0001:0001e0dc       $LN48                      1001f0dc     sqlite3.obj
 0001:0001e130       $LN58                      1001f130     sqlite3.obj
 0001:0001e160       $LN51                      1001f160     sqlite3.obj
 0001:0001e190       _printfFunc                1001f190 f   sqlite3.obj
 0001:0001e2a0       $LN7                       1001f2a0     sqlite3.obj
 0001:0001e2a8       $LN6                       1001f2a8     sqlite3.obj
 0001:0001e2c0       $LN5                       1001f2c0     sqlite3.obj
 0001:0001e2c4       $LN4                       1001f2c4     sqlite3.obj
 0001:0001e2d0       _renameParentFunc          1001f2d0 f   sqlite3.obj
 0001:0001e530       $LN21                      1001f530     sqlite3.obj
 0001:0001e538       $LN20                      1001f538     sqlite3.obj
 0001:0001e544       $LN19                      1001f544     sqlite3.obj
 0001:0001e740       _substrFunc                1001f740 f   sqlite3.obj
 0001:0001ec20       _winRead                   1001fc20 f   sqlite3.obj
 0001:0001ee98       $LN17                      1001fe98     sqlite3.obj
 0001:0001eea0       $LN16                      1001fea0     sqlite3.obj
 0001:0001eed0       $LN15                      1001fed0     sqlite3.obj
 0001:0001eeda       $LN14                      1001feda     sqlite3.obj
 0001:0001eee1       $LN13                      1001fee1     sqlite3.obj
 0001:0001eee7       $LN12                      1001fee7     sqlite3.obj
 0001:0001f010       _renameTriggerFunc         10020010 f   sqlite3.obj
 0001:0001f180       $LN18                      10020180     sqlite3.obj
 0001:0001f188       $LN17                      10020188     sqlite3.obj
 0001:0001f1a0       $LN16                      100201a0     sqlite3.obj
 0001:0001f1a6       $LN15                      100201a6     sqlite3.obj
 0001:0001f644       $LN58                      10020644     sqlite3.obj
 0001:0001f660       $LN56                      10020660     sqlite3.obj
 0001:0001f6b8       $LN59                      100206b8     sqlite3.obj
 0001:0001f6c8       $LN57                      100206c8     sqlite3.obj
 0001:0001f8b0       _winWrite                  100208b0 f   sqlite3.obj
 0001:0001facc       $LN20                      10020acc     sqlite3.obj
 0001:0001fad4       $LN19                      10020ad4     sqlite3.obj
 0001:0001fb04       $LN18                      10020b04     sqlite3.obj
 0001:0001fb0e       $LN17                      10020b0e     sqlite3.obj
 0001:0001fb15       $LN16                      10020b15     sqlite3.obj
 0001:0001fb20       $LN15                      10020b20     sqlite3.obj
 0001:0001fd78       $LN17                      10020d78     sqlite3.obj
 0001:0001fd80       $LN16                      10020d80     sqlite3.obj
 0001:0001fd8c       $LN15                      10020d8c     sqlite3.obj
 0001:0001fe30       _ctimeFunc                 10020e30 f   sqlite3.obj
 0001:0001ff94       $LN7                       10020f94     sqlite3.obj
 0001:0001ff9c       $LN6                       10020f9c     sqlite3.obj
 0001:0001ffb4       $LN5                       10020fb4     sqlite3.obj
 0001:0001ffb8       $LN4                       10020fb8     sqlite3.obj
 0001:0001ffc0       _roundFunc                 10020fc0 f   sqlite3.obj
 0001:000201cc       $LN15                      100211cc     sqlite3.obj
 0001:000201d4       $LN14                      100211d4     sqlite3.obj
 0001:000201e0       $LN13                      100211e0     sqlite3.obj
 0001:00020250       _cdateFunc                 10021250 f   sqlite3.obj
 0001:0002033c       $LN6                       1002133c     sqlite3.obj
 0001:00020344       $LN5                       10021344     sqlite3.obj
 0001:00020350       $LN4                       10021350     sqlite3.obj
 0001:000204e0       _ctimestampFunc            100214e0 f   sqlite3.obj
 0001:000206c4       $LN6                       100216c4     sqlite3.obj
 0001:000206cc       $LN5                       100216cc     sqlite3.obj
 0001:000206e4       $LN4                       100216e4     sqlite3.obj
 0001:000206e7       $LN3                       100216e7     sqlite3.obj
 0001:00020764       $LN6                       10021764     sqlite3.obj
 0001:0002076c       $LN5                       1002176c     sqlite3.obj
 0001:00020784       $LN4                       10021784     sqlite3.obj
 0001:00020787       $LN3                       10021787     sqlite3.obj
 0001:000209bc       $LN18                      100219bc     sqlite3.obj
 0001:000209c4       $LN17                      100219c4     sqlite3.obj
 0001:000209d0       $LN16                      100219d0     sqlite3.obj
 0001:000209e0       _winTruncate               100219e0 f   sqlite3.obj
 0001:00020bf0       _upperFunc                 10021bf0 f   sqlite3.obj
 0001:00020e00       _winSync                   10021e00 f   sqlite3.obj
 0001:00020f30       _lowerFunc                 10021f30 f   sqlite3.obj
 0001:000212b0       _winFileSize               100222b0 f   sqlite3.obj
 0001:000213b8       $LN6                       100223b8     sqlite3.obj
 0001:000213c0       $LN5                       100223c0     sqlite3.obj
 0001:000213cc       $LN4                       100223cc     sqlite3.obj
 0001:000213e0       _randomFunc                100223e0 f   sqlite3.obj
 0001:00021480       $LN7                       10022480     sqlite3.obj
 0001:00021488       $LN6                       10022488     sqlite3.obj
 0001:00021494       $LN5                       10022494     sqlite3.obj
 0001:00021650       _randomBlob                10022650 f   sqlite3.obj
 0001:00021788       $LN6                       10022788     sqlite3.obj
 0001:00021790       $LN5                       10022790     sqlite3.obj
 0001:0002179c       $LN4                       1002279c     sqlite3.obj
 0001:00021ab0       _last_insert_rowid         10022ab0 f   sqlite3.obj
 0001:00021b90       _changes                   10022b90 f   sqlite3.obj
 0001:00021c50       _winLock                   10022c50 f   sqlite3.obj
 0001:00021f70       _total_changes             10022f70 f   sqlite3.obj
 0001:00022160       _winCheckReservedLock      10023160 f   sqlite3.obj
 0001:00022460       _winUnlock                 10023460 f   sqlite3.obj
 0001:000226f0       _winNolockLock             100236f0 f   sqlite3.obj
 0001:00022870       _winNolockCheckReservedLock 10023870 f   sqlite3.obj
 0001:000228f0       _winNolockUnlock           100238f0 f   sqlite3.obj
 0001:00022a00       _likeFunc                  10023a00 f   sqlite3.obj
 0001:00022bb0       $LN13                      10023bb0     sqlite3.obj
 0001:00022bb8       $LN12                      10023bb8     sqlite3.obj
 0001:00022bc4       $LN11                      10023bc4     sqlite3.obj
 0001:00022d18       $LN12                      10023d18     sqlite3.obj
 0001:00022d30       _pcache1Init               10023d30 f   sqlite3.obj
 0001:00022ed0       _pcache1Shutdown           10023ed0 f   sqlite3.obj
 0001:00023080       _winFileControl            10024080 f   sqlite3.obj
 0001:000233f8       $LN38                      100243f8     sqlite3.obj
 0001:00023400       $LN37                      10024400     sqlite3.obj
 0001:00023418       $LN36                      10024418     sqlite3.obj
 0001:0002341f       $LN35                      1002441f     sqlite3.obj
 0001:00023428       $LN39                      10024428     sqlite3.obj
 0001:00023458       $LN28                      10024458     sqlite3.obj
 0001:000234d0       _pcache1Destroy            100244d0 f   sqlite3.obj
 0001:00023650       _nullifFunc                10024650 f   sqlite3.obj
 0001:000236e0       _pcache1Create             100246e0 f   sqlite3.obj
 0001:00023a40       _versionFunc               10024a40 f   sqlite3.obj
 0001:00023a90       _statInit                  10024a90 f   sqlite3.obj
 0001:00023bb0       _sourceidFunc              10024bb0 f   sqlite3.obj
 0001:00023c00       _pcache1Cachesize          10024c00 f   sqlite3.obj
 0001:00023f20       _errlogFunc                10024f20 f   sqlite3.obj
 0001:00023fe0       _pcache1Shrink             10024fe0 f   sqlite3.obj
 0001:000240c0       _winSectorSize             100250c0 f   sqlite3.obj
 0001:00024150       _compileoptionusedFunc     10025150 f   sqlite3.obj
 0001:00024220       _winDeviceCharacteristics  10025220 f   sqlite3.obj
 0001:00024280       _pcache1Pagecount          10025280 f   sqlite3.obj
 0001:00024330       _statPush                  10025330 f   sqlite3.obj
 0001:00024530       _compileoptiongetFunc      10025530 f   sqlite3.obj
 0001:000246f0       _pragmaVtabConnect         100256f0 f   sqlite3.obj
 0001:00024914       $LN16                      10025914     sqlite3.obj
 0001:0002491c       $LN15                      1002591c     sqlite3.obj
 0001:00024934       $LN14                      10025934     sqlite3.obj
 0001:00024939       $LN13                      10025939     sqlite3.obj
 0001:00024940       _quoteFunc                 10025940 f   sqlite3.obj
 0001:00024da8       $LN28                      10025da8     sqlite3.obj
 0001:00024db0       $LN27                      10025db0     sqlite3.obj
 0001:00024dc8       $LN26                      10025dc8     sqlite3.obj
 0001:00024dcd       $LN25                      10025dcd     sqlite3.obj
 0001:00024dd0       $LN29                      10025dd0     sqlite3.obj
 0001:00024e40       _memjrnlRead               10025e40 f   sqlite3.obj
 0001:000251f0       _statGet                   100261f0 f   sqlite3.obj
 0001:000253a0       _winOpen                   100263a0 f   sqlite3.obj
 0001:000258bc       $LN45                      100268bc     sqlite3.obj
 0001:000258c4       $LN44                      100268c4     sqlite3.obj
 0001:00025900       $LN43                      10026900     sqlite3.obj
 0001:00025905       $LN42                      10026905     sqlite3.obj
 0001:0002590a       $LN41                      1002690a     sqlite3.obj
 0001:00025913       $LN40                      10026913     sqlite3.obj
 0001:00025917       $LN39                      10026917     sqlite3.obj
 0001:00025930       _pragmaVtabDisconnect      10026930 f   sqlite3.obj
 0001:00025980       _winDelete                 10026980 f   sqlite3.obj
 0001:00025bfc       $LN31                      10026bfc     sqlite3.obj
 0001:00025c04       $LN30                      10026c04     sqlite3.obj
 0001:00025c1c       $LN29                      10026c1c     sqlite3.obj
 0001:00025c26       $LN28                      10026c26     sqlite3.obj
 0001:00025c30       _pcache1Fetch              10026c30 f   sqlite3.obj
 0001:00025c80       _sqlite3MemMalloc          10026c80 f   sqlite3.obj
 0001:00025cf0       _pragmaVtabBestIndex       10026cf0 f   sqlite3.obj
 0001:00025eb4       $LN14                      10026eb4     sqlite3.obj
 0001:00025ebc       $LN13                      10026ebc     sqlite3.obj
 0001:00025ec8       $LN12                      10026ec8     sqlite3.obj
 0001:00025ed0       _sqlite3MemFree            10026ed0 f   sqlite3.obj
 0001:00025ff0       _unicodeFunc               10026ff0 f   sqlite3.obj
 0001:00026094       $LN6                       10027094     sqlite3.obj
 0001:0002609c       $LN5                       1002709c     sqlite3.obj
 0001:000260a8       $LN4                       100270a8     sqlite3.obj
 0001:000260b0       _pcache1Unpin              100270b0 f   sqlite3.obj
 0001:00026160       _sqlite3MemSize            10027160 f   sqlite3.obj
 0001:000261b0       _charFunc                  100271b0 f   sqlite3.obj
 0001:00026410       _sqlite3MemRealloc         10027410 f   sqlite3.obj
 0001:000264a0       _memjrnlWrite              100274a0 f   sqlite3.obj
 0001:00026690       _pragmaVtabOpen            10027690 f   sqlite3.obj
 0001:00026700       _sqlite3MemRoundup         10027700 f   sqlite3.obj
 0001:00026880       _sqlite3MemInit            10027880 f   sqlite3.obj
 0001:00026910       _pcache1Rekey              10027910 f   sqlite3.obj
 0001:00026a80       _sqlite3MemShutdown        10027a80 f   sqlite3.obj
 0001:00026ae0       _pragmaVtabClose           10027ae0 f   sqlite3.obj
 0001:00026c10       _pragmaVtabNext            10027c10 f   sqlite3.obj
 0001:00026cf0       _memjrnlTruncate           10027cf0 f   sqlite3.obj
 0001:00026dc0       _pcache1Truncate           10027dc0 f   sqlite3.obj
 0001:00026e60       _hexFunc                   10027e60 f   sqlite3.obj
 0001:00027060       _memjrnlClose              10028060 f   sqlite3.obj
 0001:000270f0       _winShmUnmap               100280f0 f   sqlite3.obj
 0001:000272a0       _pragmaVtabFilter          100282a0 f   sqlite3.obj
 0001:000274e8       $LN16                      100284e8     sqlite3.obj
 0001:000274f0       $LN15                      100284f0     sqlite3.obj
 0001:000274fc       $LN14                      100284fc     sqlite3.obj
 0001:00027540       _memjrnlSync               10028540 f   sqlite3.obj
 0001:00027780       _zeroblobFunc              10028780 f   sqlite3.obj
 0001:00027860       _memjrnlFileSize           10028860 f   sqlite3.obj
 0001:00027940       _winShmLock                10028940 f   sqlite3.obj
 0001:00027c50       _replaceFunc               10028c50 f   sqlite3.obj
 0001:000280e0       _pragmaVtabEof             100290e0 f   sqlite3.obj
 0001:00028200       _noopMutexInit             10029200 f   sqlite3.obj
 0001:00028230       _pragmaVtabColumn          10029230 f   sqlite3.obj
 0001:00028320       _noopMutexEnd              10029320 f   sqlite3.obj
 0001:00028410       _noopMutexAlloc            10029410 f   sqlite3.obj
 0001:00028510       _pragmaVtabRowid           10029510 f   sqlite3.obj
 0001:000285d0       _noopMutexFree             100295d0 f   sqlite3.obj
 0001:00028650       _winShmBarrier             10029650 f   sqlite3.obj
 0001:00028730       _noopMutexEnter            10029730 f   sqlite3.obj
 0001:00028760       _trimFunc                  10029760 f   sqlite3.obj
 0001:00028b60       _noopMutexTry              10029b60 f   sqlite3.obj
 0001:00028b90       _winShmMap                 10029b90 f   sqlite3.obj
 0001:00028f58       $LN21                      10029f58     sqlite3.obj
 0001:00028f60       $LN20                      10029f60     sqlite3.obj
 0001:00028f6c       $LN19                      10029f6c     sqlite3.obj
 0001:00029000       _noopMutexLeave            1002a000 f   sqlite3.obj
 0001:00029360       _loadExt                   1002a360 f   sqlite3.obj
 0001:00029474       $LN9                       1002a474     sqlite3.obj
 0001:0002947c       $LN8                       1002a47c     sqlite3.obj
 0001:00029488       $LN7                       1002a488     sqlite3.obj
 0001:00029660       _sumStep                   1002a660 f   sqlite3.obj
 0001:000298c0       _sumFinalize               1002a8c0 f   sqlite3.obj
 0001:00029ac0       _avgFinalize               1002aac0 f   sqlite3.obj
 0001:00029c50       _totalFinalize             1002ac50 f   sqlite3.obj
 0001:00029de0       _attachFunc                1002ade0 f   sqlite3.obj
 0001:0002a3a8       $LN38                      1002b3a8     sqlite3.obj
 0001:0002a3b0       $LN37                      1002b3b0     sqlite3.obj
 0001:0002a3ec       $LN36                      1002b3ec     sqlite3.obj
 0001:0002a3f1       $LN35                      1002b3f1     sqlite3.obj
 0001:0002a3f9       $LN34                      1002b3f9     sqlite3.obj
 0001:0002a3ff       $LN33                      1002b3ff     sqlite3.obj
 0001:0002a404       $LN32                      1002b404     sqlite3.obj
 0001:0002a410       _countStep                 1002b410 f   sqlite3.obj
 0001:0002a4d0       _winFetch                  1002b4d0 f   sqlite3.obj
 0001:0002a810       _countFinalize             1002b810 f   sqlite3.obj
 0001:0002a8f0       _winUnfetch                1002b8f0 f   sqlite3.obj
 0001:0002a950       _minmaxStep                1002b950 f   sqlite3.obj
 0001:0002ae38       $LN36                      1002be38     sqlite3.obj
 0001:0002ae40       $LN35                      1002be40     sqlite3.obj
 0001:0002ae4c       $LN34                      1002be4c     sqlite3.obj
 0001:0002aef0       _minMaxFinalize            1002bef0 f   sqlite3.obj
 0001:0002b1e0       _groupConcatStep           1002c1e0 f   sqlite3.obj
 0001:0002b360       _detachFunc                1002c360 f   sqlite3.obj
 0001:0002b524       $LN15                      1002c524     sqlite3.obj
 0001:0002b52c       $LN14                      1002c52c     sqlite3.obj
 0001:0002b538       $LN13                      1002c538     sqlite3.obj
 0001:0002b540       _groupConcatFinalize       1002c540 f   sqlite3.obj
 0001:0002b5e0       _winAccess                 1002c5e0 f   sqlite3.obj
 0001:0002b804       $LN27                      1002c804     sqlite3.obj
 0001:0002b80c       $LN26                      1002c80c     sqlite3.obj
 0001:0002b830       $LN25                      1002c830     sqlite3.obj
 0001:0002b83a       $LN24                      1002c83a     sqlite3.obj
 0001:0002b83e       $LN23                      1002c83e     sqlite3.obj
 0001:0002bbd4       $LN16                      1002cbd4     sqlite3.obj
 0001:0002bbdc       $LN15                      1002cbdc     sqlite3.obj
 0001:0002bbf4       $LN14                      1002cbf4     sqlite3.obj
 0001:0002bbfb       $LN13                      1002cbfb     sqlite3.obj
 0001:0002c404       $LN51                      1002d404     sqlite3.obj
 0001:0002c40c       $LN50                      1002d40c     sqlite3.obj
 0001:0002c424       $LN49                      1002d424     sqlite3.obj
 0001:0002c42b       $LN48                      1002d42b     sqlite3.obj
 0001:0002c560       $LN11                      1002d560     sqlite3.obj
 0001:0002c568       $LN10                      1002d568     sqlite3.obj
 0001:0002c574       $LN9                       1002d574     sqlite3.obj
 0001:0002cac0       _winMutexInit              1002dac0 f   sqlite3.obj
 0001:0002cb60       _winMutexEnd               1002db60 f   sqlite3.obj
 0001:0002d19c       $LN32                      1002e19c     sqlite3.obj
 0001:0002d1f0       _winMutexAlloc             1002e1f0 f   sqlite3.obj
 0001:0002d32c       $LN7                       1002e32c     sqlite3.obj
 0001:0002d334       $LN6                       1002e334     sqlite3.obj
 0001:0002d34c       $LN5                       1002e34c     sqlite3.obj
 0001:0002d352       $LN4                       1002e352     sqlite3.obj
 0001:0002d360       _winMutexFree              1002e360 f   sqlite3.obj
 0001:0002d4b0       _winMutexEnter             1002e4b0 f   sqlite3.obj
 0001:0002da6c       $LN48                      1002ea6c     sqlite3.obj
 0001:0002da74       $LN47                      1002ea74     sqlite3.obj
 0001:0002da98       $LN46                      1002ea98     sqlite3.obj
 0001:0002da9d       $LN45                      1002ea9d     sqlite3.obj
 0001:0002daa3       $LN44                      1002eaa3     sqlite3.obj
 0001:0002daac       $LN49                      1002eaac     sqlite3.obj
 0001:0002dae0       _winMutexTry               1002eae0 f   sqlite3.obj
 0001:0002dc58       $LN8                       1002ec58     sqlite3.obj
 0001:0002dc60       $LN7                       1002ec60     sqlite3.obj
 0001:0002dc6c       $LN6                       1002ec6c     sqlite3.obj
 0001:0002dc70       _winMutexLeave             1002ec70 f   sqlite3.obj
 0001:0002dcc0       _winFullPathname           1002ecc0 f   sqlite3.obj
 0001:0002e270       _winDlOpen                 1002f270 f   sqlite3.obj
 0001:0002eaf8       $LN59                      1002faf8     sqlite3.obj
 0001:0002eb00       $LN58                      1002fb00     sqlite3.obj
 0001:0002eb30       $LN57                      1002fb30     sqlite3.obj
 0001:0002eb37       $LN56                      1002fb37     sqlite3.obj
 0001:0002eb3b       $LN55                      1002fb3b     sqlite3.obj
 0001:0002eb44       $LN54                      1002fb44     sqlite3.obj
 0001:0002ed30       _winDlError                1002fd30 f   sqlite3.obj
 0001:0002ef80       _winDlSym                  1002ff80 f   sqlite3.obj
 0001:0002f090       _winDlClose                10030090 f   sqlite3.obj
 0001:0002f4a0       _winRandomness             100304a0 f   sqlite3.obj
 0001:0002f600       $LN11                      10030600     sqlite3.obj
 0001:0002f608       $LN10                      10030608     sqlite3.obj
 0001:0002f644       $LN9                       10030644     sqlite3.obj
 0001:0002f646       $LN8                       10030646     sqlite3.obj
 0001:0002f64a       $LN7                       1003064a     sqlite3.obj
 0001:0002f64e       $LN6                       1003064e     sqlite3.obj
 0001:0002f650       $LN5                       10030650     sqlite3.obj
 0001:0002f7d0       _winSleep                  100307d0 f   sqlite3.obj
 0001:0002f840       _winCurrentTimeInt64       10030840 f   sqlite3.obj
 0001:0002f8fc       $LN5                       100308fc     sqlite3.obj
 0001:0002f904       $LN4                       10030904     sqlite3.obj
 0001:0002f910       $LN3                       10030910     sqlite3.obj
 0001:0002f920       _winCurrentTime            10030920 f   sqlite3.obj
 0001:0002f9b0       $LN6                       100309b0     sqlite3.obj
 0001:0002f9b8       $LN5                       100309b8     sqlite3.obj
 0001:0002f9c4       $LN4                       100309c4     sqlite3.obj
 0001:0002f9d0       _winGetLastError           100309d0 f   sqlite3.obj
 0001:0002fa40       _winSetSystemCall          10030a40 f   sqlite3.obj
 0001:0002fb50       _accessPayload             10030b50 f   sqlite3.obj
 0001:0002ff34       $LN30                      10030f34     sqlite3.obj
 0001:0002ff3c       $LN29                      10030f3c     sqlite3.obj
 0001:0002ff54       $LN28                      10030f54     sqlite3.obj
 0001:0002ff5c       $LN27                      10030f5c     sqlite3.obj
 0001:0002ff70       _accessPayloadChecked      10030f70 f   sqlite3.obj
 0001:00030000       _actionName                10031000 f   sqlite3.obj
 0001:00030084       $LN10                      10031084     sqlite3.obj
 0001:000300a0       _addAggInfoColumn          100310a0 f   sqlite3.obj
 0001:00030120       $LN5                       10031120     sqlite3.obj
 0001:00030128       $LN4                       10031128     sqlite3.obj
 0001:00030134       $LN3                       10031134     sqlite3.obj
 0001:00030140       _addAggInfoFunc            10031140 f   sqlite3.obj
 0001:000301c0       $LN5                       100311c0     sqlite3.obj
 0001:000301c8       $LN4                       100311c8     sqlite3.obj
 0001:000301d4       $LN3                       100311d4     sqlite3.obj
 0001:000301e0       _addArgumentToVtab         100311e0 f   sqlite3.obj
 0001:00030280       _addModuleArgument         10031280 f   sqlite3.obj
 0001:00030340       _addToSavepointBitvecs     10031340 f   sqlite3.obj
 0001:000303d0       _addToVTrans               100313d0 f   sqlite3.obj
 0001:00030440       _addWhereTerm              10031440 f   sqlite3.obj
 0001:00030510       _allSpaces                 10031510 f   sqlite3.obj
 0001:00030580       _allocSpace                10031580 f   sqlite3.obj
 0001:00030600       _allocateBtreePage         10031600 f   sqlite3.obj
 0001:00031060       $LN84                      10032060     sqlite3.obj
 0001:00031068       $LN83                      10032068     sqlite3.obj
 0001:00031098       $LN82                      10032098     sqlite3.obj
 0001:0003109c       $LN81                      1003209c     sqlite3.obj
 0001:000310a6       $LN80                      100320a6     sqlite3.obj
 0001:000310ac       $LN79                      100320ac     sqlite3.obj
 0001:000310c0       _allocateCursor            100320c0 f   sqlite3.obj
 0001:00031230       _allocateIndexInfo         10032230 f   sqlite3.obj
 0001:00031630       _allocateSpace             10032630 f   sqlite3.obj
 0001:00031880       $LN17                      10032880     sqlite3.obj
 0001:00031888       $LN16                      10032888     sqlite3.obj
 0001:00031894       $LN15                      10032894     sqlite3.obj
 0001:000318a0       _allocateTempSpace         100328a0 f   sqlite3.obj
 0001:00031920       _allowedOp                 10032920 f   sqlite3.obj
 0001:00031980       _analysisLoader            10032980 f   sqlite3.obj
 0001:00031ba4       $LN15                      10032ba4     sqlite3.obj
 0001:00031bac       $LN14                      10032bac     sqlite3.obj
 0001:00031bb8       $LN13                      10032bb8     sqlite3.obj
 0001:00031bc0       _analyzeAggregate          10032bc0 f   sqlite3.obj
 0001:00032020       _analyzeAggregatesInSelect 10033020 f   sqlite3.obj
 0001:00032060       _analyzeAggregatesInSelectEnd 10033060 f   sqlite3.obj
 0001:000320a0       _analyzeDatabase           100330a0 f   sqlite3.obj
 0001:000321a0       _analyzeOneTable           100331a0 f   sqlite3.obj
 0001:000329b0       _analyzeTable              100339b0 f   sqlite3.obj
 0001:00032ab0       _apiOomError               10033ab0 f   sqlite3.obj
 0001:00032b10       _applyAffinity             10033b10 f   sqlite3.obj
 0001:00032be0       _applyNumericAffinity      10033be0 f   sqlite3.obj
 0001:00032cd8       $LN10                      10033cd8     sqlite3.obj
 0001:00032ce0       $LN9                       10033ce0     sqlite3.obj
 0001:00032cf8       $LN8                       10033cf8     sqlite3.obj
 0001:00032cff       $LN7                       10033cff     sqlite3.obj
 0001:00032d10       _attachBackupObject        10033d10 f   sqlite3.obj
 0001:00032d80       _autoIncBegin              10033d80 f   sqlite3.obj
 0001:00032ed0       _autoIncStep               10033ed0 f   sqlite3.obj
 0001:00032f30       _autoIncrementEnd          10033f30 f   sqlite3.obj
 0001:000330b0       _autoVacuumCommit          100340b0 f   sqlite3.obj
 0001:000332b0       _backupOnePage             100342b0 f   sqlite3.obj
 0001:0003353c       $LN15                      1003453c     sqlite3.obj
 0001:00033544       $LN14                      10034544     sqlite3.obj
 0001:00033550       $LN13                      10034550     sqlite3.obj
 0001:00033560       _backupTruncateFile        10034560 f   sqlite3.obj
 0001:000335fc       $LN7                       100345fc     sqlite3.obj
 0001:00033604       $LN6                       10034604     sqlite3.obj
 0001:00033610       $LN5                       10034610     sqlite3.obj
 0001:00033620       _backupUpdate              10034620 f   sqlite3.obj
 0001:000336d0       _balance                   100346d0 f   sqlite3.obj
 0001:00033970       $LN22                      10034970     sqlite3.obj
 0001:00033978       $LN21                      10034978     sqlite3.obj
 0001:00033984       $LN20                      10034984     sqlite3.obj
 0001:000339a0       _balance_deeper            100349a0 f   sqlite3.obj
 0001:00033b3c       $LN10                      10034b3c     sqlite3.obj
 0001:00033b44       $LN9                       10034b44     sqlite3.obj
 0001:00033b68       $LN8                       10034b68     sqlite3.obj
 0001:00033b72       $LN7                       10034b72     sqlite3.obj
 0001:00033b79       $LN6                       10034b79     sqlite3.obj
 0001:00033b80       _balance_nonroot           10034b80 f   sqlite3.obj
 0001:000355a0       $LN186                     100365a0     sqlite3.obj
 0001:000355a8       $LN185                     100365a8     sqlite3.obj
 0001:0003565c       $LN184                     1003665c     sqlite3.obj
 0001:00035661       $LN183                     10036661     sqlite3.obj
 0001:00035666       $LN182                     10036666     sqlite3.obj
 0001:00035668       $LN181                     10036668     sqlite3.obj
 0001:00035671       $LN180                     10036671     sqlite3.obj
 0001:0003567a       $LN179                     1003667a     sqlite3.obj
 0001:00035680       $LN178                     10036680     sqlite3.obj
 0001:00035687       $LN177                     10036687     sqlite3.obj
 0001:0003568c       $LN176                     1003668c     sqlite3.obj
 0001:00035692       $LN175                     10036692     sqlite3.obj
 0001:00035699       $LN174                     10036699     sqlite3.obj
 0001:000356a0       $LN173                     100366a0     sqlite3.obj
 0001:000356a6       $LN172                     100366a6     sqlite3.obj
 0001:000356ac       $LN171                     100366ac     sqlite3.obj
 0001:000356b2       $LN170                     100366b2     sqlite3.obj
 0001:000356c0       _balance_quick             100366c0 f   sqlite3.obj
 0001:0003595c       $LN19                      1003695c     sqlite3.obj
 0001:00035964       $LN18                      10036964     sqlite3.obj
 0001:000359a0       $LN17                      100369a0     sqlite3.obj
 0001:000359a7       $LN16                      100369a7     sqlite3.obj
 0001:000359ad       $LN15                      100369ad     sqlite3.obj
 0001:000359b5       $LN14                      100369b5     sqlite3.obj
 0001:000359b8       $LN13                      100369b8     sqlite3.obj
 0001:000359c0       _binCollFunc               100369c0 f   sqlite3.obj
 0001:00035a80       _binaryCompareP5           10036a80 f   sqlite3.obj
 0001:00035af0       _binaryToUnaryIfNull       10036af0 f   sqlite3.obj
 0001:00035b70       _bindText                  10036b70 f   sqlite3.obj
 0001:00035c90       _blobReadWrite             10036c90 f   sqlite3.obj
 0001:00035e20       _blobSeekToRow             10036e20 f   sqlite3.obj
 0001:00036090       _btreeClearHasContent      10037090 f   sqlite3.obj
 0001:000360e0       _btreeCreateTable          100370e0 f   sqlite3.obj
 0001:000363fc       $LN32                      100373fc     sqlite3.obj
 0001:00036404       $LN31                      10037404     sqlite3.obj
 0001:00036458       $LN30                      10037458     sqlite3.obj
 0001:00036461       $LN29                      10037461     sqlite3.obj
 0001:00036467       $LN28                      10037467     sqlite3.obj
 0001:00036471       $LN27                      10037471     sqlite3.obj
 0001:0003647a       $LN26                      1003747a     sqlite3.obj
 0001:0003647d       $LN25                      1003747d     sqlite3.obj
 0001:00036486       $LN24                      10037486     sqlite3.obj
 0001:00036490       _btreeCursor               10037490 f   sqlite3.obj
 0001:000365f0       _btreeDropTable            100375f0 f   sqlite3.obj
 0001:0003683c       $LN21                      1003783c     sqlite3.obj
 0001:00036844       $LN20                      10037844     sqlite3.obj
 0001:00036874       $LN19                      10037874     sqlite3.obj
 0001:0003687a       $LN18                      1003787a     sqlite3.obj
 0001:00036886       $LN17                      10037886     sqlite3.obj
 0001:0003688c       $LN16                      1003788c     sqlite3.obj
 0001:00036890       _btreeEndTransaction       10037890 f   sqlite3.obj
 0001:00036950       _btreeEnterAll             10037950 f   sqlite3.obj
 0001:000369f0       _btreeGetHasContent        100379f0 f   sqlite3.obj
 0001:00036a80       _btreeGetPage              10037a80 f   sqlite3.obj
 0001:00036b1c       $LN6                       10037b1c     sqlite3.obj
 0001:00036b24       $LN5                       10037b24     sqlite3.obj
 0001:00036b30       $LN4                       10037b30     sqlite3.obj
 0001:00036b40       _btreeGetUnusedPage        10037b40 f   sqlite3.obj
 0001:00036bf0       _btreeHeapInsert           10037bf0 f   sqlite3.obj
 0001:00036cb0       _btreeHeapPull             10037cb0 f   sqlite3.obj
 0001:00036de0       _btreeInitPage             10037de0 f   sqlite3.obj
 0001:00037220       _btreeInvokeBusyHandler    10038220 f   sqlite3.obj
 0001:00037270       _btreeLeaveAll             10038270 f   sqlite3.obj
 0001:000372f0       _btreeLockCarefully        100382f0 f   sqlite3.obj
 0001:000373c0       _btreeMoveto               100383c0 f   sqlite3.obj
 0001:000374b0       _btreeNext                 100384b0 f   sqlite3.obj
 0001:00037690       _btreePageFromDbPage       10038690 f   sqlite3.obj
 0001:00037740       _btreePageLookup           10038740 f   sqlite3.obj
 0001:000377b0       _btreePagecount            100387b0 f   sqlite3.obj
 0001:000377e0       _btreeParseCell            100387e0 f   sqlite3.obj
 0001:00037860       _btreeParseCellAdjustSizeForOverflow 10038860 f   sqlite3.obj
 0001:00037900       _btreeParseCellPtr         10038900 f   sqlite3.obj
 0001:00037af0       _btreeParseCellPtrIndex    10038af0 f   sqlite3.obj
 0001:00037c10       _btreeParseCellPtrNoPayload 10038c10 f   sqlite3.obj
 0001:00037c90       _btreePrevious             10038c90 f   sqlite3.obj
 0001:00037e50       _btreeReleaseAllCursorPages 10038e50 f   sqlite3.obj
 0001:00037ee0       _btreeRestoreCursorPosition 10038ee0 f   sqlite3.obj
 0001:00037fc4       $LN8                       10038fc4     sqlite3.obj
 0001:00037fcc       $LN7                       10038fcc     sqlite3.obj
 0001:00037fd8       $LN6                       10038fd8     sqlite3.obj
 0001:00037ff0       _btreeSetHasContent        10038ff0 f   sqlite3.obj
 0001:00038090       _cacheEntryClear           10039090 f   sqlite3.obj
 0001:00038160       _cachedCellSize            10039160 f   sqlite3.obj
 0001:000381d0       _callCollNeeded            100391d0 f   sqlite3.obj
 0001:000382f0       _callFinaliser             100392f0 f   sqlite3.obj
 0001:000383f0       _callStatGet               100393f0 f   sqlite3.obj
 0001:00038460       _cannotBeFunction          10039460 f   sqlite3.obj
 0001:000384d0       _cellSizePtr               100394d0 f   sqlite3.obj
 0001:00038630       _cellSizePtrNoPayload      10039630 f   sqlite3.obj
 0001:000386a0       _changeTempStorage         100396a0 f   sqlite3.obj
 0001:00038720       _checkAppendMsg            10039720 f   sqlite3.obj
 0001:00038810       _checkColumnOverlap        10039810 f   sqlite3.obj
 0001:000388a0       _checkConstraintExprNode   100398a0 f   sqlite3.obj
 0001:00038920       _checkConstraintUnchanged  10039920 f   sqlite3.obj
 0001:000389dc       $LN8                       100399dc     sqlite3.obj
 0001:000389e4       $LN7                       100399e4     sqlite3.obj
 0001:000389f0       $LN6                       100399f0     sqlite3.obj
 0001:00038a00       _checkList                 10039a00 f   sqlite3.obj
 0001:00038cb8       $LN25                      10039cb8     sqlite3.obj
 0001:00038cc0       $LN24                      10039cc0     sqlite3.obj
 0001:00038ccc       $LN23                      10039ccc     sqlite3.obj
 0001:00038ce0       _checkPtrmap               10039ce0 f   sqlite3.obj
 0001:00038dc8       $LN11                      10039dc8     sqlite3.obj
 0001:00038dd0       $LN10                      10039dd0     sqlite3.obj
 0001:00038de8       $LN9                       10039de8     sqlite3.obj
 0001:00038df6       $LN8                       10039df6     sqlite3.obj
 0001:00038e10       _checkReadTransaction      10039e10 f   sqlite3.obj
 0001:00038e70       _checkRef                  10039e70 f   sqlite3.obj
 0001:00038f20       _checkTreePage             10039f20 f   sqlite3.obj
 0001:0003989c       $LN49                      1003a89c     sqlite3.obj
 0001:000398a4       $LN48                      1003a8a4     sqlite3.obj
 0001:000398c8       $LN47                      1003a8c8     sqlite3.obj
 0001:000398cd       $LN46                      1003a8cd     sqlite3.obj
 0001:000398cf       $LN45                      1003a8cf     sqlite3.obj
 0001:000398e0       _clearAllSharedCacheTableLocks 1003a8e0 f   sqlite3.obj
 0001:000399c0       _clearCell                 1003a9c0 f   sqlite3.obj
 0001:00039be8       $LN19                      1003abe8     sqlite3.obj
 0001:00039bf0       $LN18                      1003abf0     sqlite3.obj
 0001:00039c08       $LN17                      1003ac08     sqlite3.obj
 0001:00039c0e       $LN16                      1003ac0e     sqlite3.obj
 0001:00039c20       _clearDatabasePage         1003ac20 f   sqlite3.obj
 0001:00039e60       $LN23                      1003ae60     sqlite3.obj
 0001:00039e68       $LN22                      1003ae68     sqlite3.obj
 0001:00039e8c       $LN21                      1003ae8c     sqlite3.obj
 0001:00039e91       $LN20                      1003ae91     sqlite3.obj
 0001:00039e94       $LN19                      1003ae94     sqlite3.obj
 0001:00039ea0       _clearSelect               1003aea0 f   sqlite3.obj
 0001:00039fc0       _clearYMD_HMS_TZ           1003afc0 f   sqlite3.obj
 0001:0003a000       _closeAllCursors           1003b000 f   sqlite3.obj
 0001:0003a110       _closeCursorsInFrame       1003b110 f   sqlite3.obj
 0001:0003a1a0       _codeAllEqualityTerms      1003b1a0 f   sqlite3.obj
 0001:0003a4d0       _codeApplyAffinity         1003b4d0 f   sqlite3.obj
 0001:0003a5b0       _codeAttach                1003b5b0 f   sqlite3.obj
 0001:0003a7e0       $LN15                      1003b7e0     sqlite3.obj
 0001:0003a7e8       $LN14                      1003b7e8     sqlite3.obj
 0001:0003a7f4       $LN13                      1003b7f4     sqlite3.obj
 0001:0003a800       _codeCompare               1003b800 f   sqlite3.obj
 0001:0003a8b0       _codeDeferredSeek          1003b8b0 f   sqlite3.obj
 0001:0003aa00       _codeDistinct              1003ba00 f   sqlite3.obj
 0001:0003aac0       _codeEqualityTerm          1003bac0 f   sqlite3.obj
 0001:0003b1a0       _codeExprOrVector          1003c1a0 f   sqlite3.obj
 0001:0003b2a0       _codeInteger               1003c2a0 f   sqlite3.obj
 0001:0003b458       $LN19                      1003c458     sqlite3.obj
 0001:0003b460       $LN18                      1003c460     sqlite3.obj
 0001:0003b46c       $LN17                      1003c46c     sqlite3.obj
 0001:0003b480       _codeOffset                1003c480 f   sqlite3.obj
 0001:0003b4d0       _codeReal                  1003c4d0 f   sqlite3.obj
 0001:0003b584       $LN7                       1003c584     sqlite3.obj
 0001:0003b58c       $LN6                       1003c58c     sqlite3.obj
 0001:0003b598       $LN5                       1003c598     sqlite3.obj
 0001:0003b5a0       _codeRowTrigger            1003c5a0 f   sqlite3.obj
 0001:0003b924       $LN15                      1003c924     sqlite3.obj
 0001:0003b92c       $LN14                      1003c92c     sqlite3.obj
 0001:0003b938       $LN13                      1003c938     sqlite3.obj
 0001:0003b940       _codeTableLocks            1003c940 f   sqlite3.obj
 0001:0003b9f0       _codeTriggerProgram        1003c9f0 f   sqlite3.obj
 0001:0003bc24       $LN17                      1003cc24     sqlite3.obj
 0001:0003bc2c       $LN16                      1003cc2c     sqlite3.obj
 0001:0003bc38       $LN15                      1003cc38     sqlite3.obj
 0001:0003bc40       _codeVectorCompare         1003cc40 f   sqlite3.obj
 0001:0003bef8       $LN22                      1003cef8     sqlite3.obj
 0001:0003bf00       $LN21                      1003cf00     sqlite3.obj
 0001:0003bf30       $LN20                      1003cf30     sqlite3.obj
 0001:0003bf33       $LN19                      1003cf33     sqlite3.obj
 0001:0003bf36       $LN18                      1003cf36     sqlite3.obj
 0001:0003bf3f       $LN17                      1003cf3f     sqlite3.obj
 0001:0003bf50       _collationMatch            1003cf50 f   sqlite3.obj
 0001:0003bfe0       _columnIndex               1003cfe0 f   sqlite3.obj
 0001:0003c060       _columnMallocFailure       1003d060 f   sqlite3.obj
 0001:0003c0d0       _columnMem                 1003d0d0 f   sqlite3.obj
 0001:0003c170       _columnName                1003d170 f   sqlite3.obj
 0001:0003c240       _columnNullValue           1003d240 f   sqlite3.obj
 0001:0003c270       _columnTypeImpl            1003d270 f   sqlite3.obj
 0001:0003c480       $LN23                      1003d480     sqlite3.obj
 0001:0003c488       $LN22                      1003d488     sqlite3.obj
 0001:0003c4a0       $LN21                      1003d4a0     sqlite3.obj
 0001:0003c4a4       $LN20                      1003d4a4     sqlite3.obj
 0001:0003c4b0       _columnsInIndex            1003d4b0 f   sqlite3.obj
 0001:0003c550       _compare2pow63             1003d550 f   sqlite3.obj
 0001:0003c5e0       _comparisonAffinity        1003d5e0 f   sqlite3.obj
 0001:0003c690       _computeCellSize           1003d690 f   sqlite3.obj
 0001:0003c710       _computeHMS                1003d710 f   sqlite3.obj
 0001:0003c820       _computeJD                 1003d820 f   sqlite3.obj
 0001:0003ca10       _computeLimitRegisters     1003da10 f   sqlite3.obj
 0001:0003cc3c       $LN13                      1003dc3c     sqlite3.obj
 0001:0003cc44       $LN12                      1003dc44     sqlite3.obj
 0001:0003cc50       $LN11                      1003dc50     sqlite3.obj
 0001:0003cc60       _computeNumericType        1003dc60 f   sqlite3.obj
 0001:0003ccf0       _computeYMD                1003dcf0 f   sqlite3.obj
 0001:0003ced0       _computeYMD_HMS            1003ded0 f   sqlite3.obj
 0001:0003cf20       _connectionIsBusy          1003df20 f   sqlite3.obj
 0001:0003cfc0       _constructAutomaticIndex   1003dfc0 f   sqlite3.obj
 0001:0003d994       $LN46                      1003e994     sqlite3.obj
 0001:0003d99c       $LN45                      1003e99c     sqlite3.obj
 0001:0003d9a8       $LN44                      1003e9a8     sqlite3.obj
 0001:0003d9c0       _contextMalloc             1003e9c0 f   sqlite3.obj
 0001:0003da80       _convertCompoundSelectToSubquery 1003ea80 f   sqlite3.obj
 0001:0003dccc       $LN19                      1003eccc     sqlite3.obj
 0001:0003dcd4       $LN18                      1003ecd4     sqlite3.obj
 0001:0003dce0       $LN17                      1003ece0     sqlite3.obj
 0001:0003dcf0       _convertToWithoutRowidTable 1003ecf0 f   sqlite3.obj
 0001:0003e1ac       $LN44                      1003f1ac     sqlite3.obj
 0001:0003e1b4       $LN43                      1003f1b4     sqlite3.obj
 0001:0003e1c0       $LN42                      1003f1c0     sqlite3.obj
 0001:0003e1d0       _copyNodeContent           1003f1d0 f   sqlite3.obj
 0001:0003e320       _copyPayload               1003f320 f   sqlite3.obj
 0001:0003e3a0       _corruptSchema             1003f3a0 f   sqlite3.obj
 0001:0003e4a0       _countLookasideSlots       1003f4a0 f   sqlite3.obj
 0001:0003e4f0       _createAggContext          1003f4f0 f   sqlite3.obj
 0001:0003e5a0       _createCollation           1003f5a0 f   sqlite3.obj
 0001:0003e770       _createMask                1003f770 f   sqlite3.obj
 0001:0003e7c0       _createModule              1003f7c0 f   sqlite3.obj
 0001:0003e8a0       _createTableStmt           1003f8a0 f   sqlite3.obj
 0001:0003eb00       $LN14                      1003fb00     sqlite3.obj
 0001:0003eb08       $LN13                      1003fb08     sqlite3.obj
 0001:0003eb14       $LN12                      1003fb14     sqlite3.obj
 0001:0003eb20       _databaseIsUnmoved         1003fb20 f   sqlite3.obj
 0001:0003ebd8       $LN10                      1003fbd8     sqlite3.obj
 0001:0003ebe0       $LN9                       1003fbe0     sqlite3.obj
 0001:0003ebec       $LN8                       1003fbec     sqlite3.obj
 0001:0003ec00       _datetimeError             1003fc00 f   sqlite3.obj
 0001:0003ec50       _dbMallocRawFinish         1003fc50 f   sqlite3.obj
 0001:0003ecb0       _dbReallocFinish           1003fcb0 f   sqlite3.obj
 0001:0003ed90       _decodeFlags               1003fd90 f   sqlite3.obj
 0001:0003eed0       _decodeIntArray            1003fed0 f   sqlite3.obj
 0001:0003f0b0       _defragmentPage            100400b0 f   sqlite3.obj
 0001:0003f6d0       _deleteTable               100406d0 f   sqlite3.obj
 0001:0003f800       _destroyRootPage           10040800 f   sqlite3.obj
 0001:0003f8c0       _destroyTable              100408c0 f   sqlite3.obj
 0001:0003f9b0       _disableLookaside          100409b0 f   sqlite3.obj
 0001:0003fa00       _disableTerm               10040a00 f   sqlite3.obj
 0001:0003fb20       _disconnectAllVtab         10040b20 f   sqlite3.obj
 0001:0003fc40       _displayP4                 10040c40 f   sqlite3.obj
 0001:00040064       $LN40                      10041064     sqlite3.obj
 0001:0004006c       $LN39                      1004106c     sqlite3.obj
 0001:00040078       $LN38                      10041078     sqlite3.obj
 0001:0004007c       $LN41                      1004107c     sqlite3.obj
 0001:000400c0       _doWalCallbacks            100410c0 f   sqlite3.obj
 0001:000401d0       _doubleToInt64             100411d0 f   sqlite3.obj
 0001:00040260       _downgradeAllSharedCacheTableLocks 10041260 f   sqlite3.obj
 0001:000402e0       _dropCell                  100412e0 f   sqlite3.obj
 0001:000404e0       _dupedExprNodeSize         100414e0 f   sqlite3.obj
 0001:00040570       _dupedExprSize             10041570 f   sqlite3.obj
 0001:00040600       _dupedExprStructSize       10041600 f   sqlite3.obj
 0001:00040670       _editPage                  10041670 f   sqlite3.obj
 0001:00040a40       $LN18                      10041a40     sqlite3.obj
 0001:00040a48       $LN17                      10041a48     sqlite3.obj
 0001:00040a54       $LN16                      10041a54     sqlite3.obj
 0001:00040a60       _enlargeAndAppend          10041a60 f   sqlite3.obj
 0001:00040ae0       _estLog                    10041ae0 f   sqlite3.obj
 0001:00040b50       _estimateIndexWidth        10041b50 f   sqlite3.obj
 0001:00040c20       _estimateTableWidth        10041c20 f   sqlite3.obj
 0001:00040cd0       _et_getdigit               10041cd0 f   sqlite3.obj
 0001:00040d50       _execSql                   10041d50 f   sqlite3.obj
 0001:00040e5c       $LN12                      10041e5c     sqlite3.obj
 0001:00040e64       $LN11                      10041e64     sqlite3.obj
 0001:00040e70       $LN10                      10041e70     sqlite3.obj
 0001:00040e80       _execSqlF                  10041e80 f   sqlite3.obj
 0001:00040f10       _explainAppendTerm         10041f10 f   sqlite3.obj
 0001:00041070       _explainComposite          10042070 f   sqlite3.obj
 0001:00041130       _explainIndexColumnName    10042130 f   sqlite3.obj
 0001:000411a0       _explainIndexRange         100421a0 f   sqlite3.obj
 0001:00041320       _explainSimpleCount        10042320 f   sqlite3.obj
 0001:00041430       _explainTempTable          10042430 f   sqlite3.obj
 0001:000414c0       _exprAlwaysFalse           100424c0 f   sqlite3.obj
 0001:00041568       $LN9                       10042568     sqlite3.obj
 0001:00041570       $LN8                       10042570     sqlite3.obj
 0001:0004157c       $LN7                       1004257c     sqlite3.obj
 0001:00041580       _exprAlwaysTrue            10042580 f   sqlite3.obj
 0001:00041628       $LN9                       10042628     sqlite3.obj
 0001:00041630       $LN8                       10042630     sqlite3.obj
 0001:0004163c       $LN7                       1004263c     sqlite3.obj
 0001:00041640       _exprAnalyze               10042640 f   sqlite3.obj
 0001:00042604       $LN71                      10043604     sqlite3.obj
 0001:0004260c       $LN70                      1004360c     sqlite3.obj
 0001:00042660       $LN69                      10043660     sqlite3.obj
 0001:00042666       $LN68                      10043666     sqlite3.obj
 0001:0004266d       $LN67                      1004366d     sqlite3.obj
 0001:00042676       $LN66                      10043676     sqlite3.obj
 0001:0004267b       $LN65                      1004367b     sqlite3.obj
 0001:00042682       $LN64                      10043682     sqlite3.obj
 0001:0004268d       $LN63                      1004368d     sqlite3.obj
 0001:000426a0       _exprAnalyzeOrTerm         100436a0 f   sqlite3.obj
 0001:00042f70       _exprCodeBetween           10043f70 f   sqlite3.obj
 0001:00043100       $LN11                      10044100     sqlite3.obj
 0001:00043108       $LN10                      10044108     sqlite3.obj
 0001:00043144       $LN9                       10044144     sqlite3.obj
 0001:0004314d       $LN8                       1004414d     sqlite3.obj
 0001:00043153       $LN7                       10044153     sqlite3.obj
 0001:0004315d       $LN6                       1004415d     sqlite3.obj
 0001:00043166       $LN5                       10044166     sqlite3.obj
 0001:00043170       _exprCodeSubselect         10044170 f   sqlite3.obj
 0001:000431d0       _exprCodeVector            100441d0 f   sqlite3.obj
 0001:000432c0       _exprCommute               100442c0 f   sqlite3.obj
 0001:000433c0       _exprCompareVariable       100443c0 f   sqlite3.obj
 0001:000434f4       $LN10                      100444f4     sqlite3.obj
 0001:000434fc       $LN9                       100444fc     sqlite3.obj
 0001:00043508       $LN8                       10044508     sqlite3.obj
 0001:00043510       _exprDup                   10044510 f   sqlite3.obj
 0001:00043868       $LN28                      10044868     sqlite3.obj
 0001:00043870       $LN27                      10044870     sqlite3.obj
 0001:0004387c       $LN26                      1004487c     sqlite3.obj
 0001:00043890       _exprINAffinity            10044890 f   sqlite3.obj
 0001:000439b0       _exprIdxCover              100449b0 f   sqlite3.obj
 0001:00043a40       _exprIsConst               10044a40 f   sqlite3.obj
 0001:00043ac8       $LN5                       10044ac8     sqlite3.obj
 0001:00043ad0       $LN4                       10044ad0     sqlite3.obj
 0001:00043adc       $LN3                       10044adc     sqlite3.obj
 0001:00043ae0       _exprIsDeterministic       10044ae0 f   sqlite3.obj
 0001:00043b70       $LN5                       10044b70     sqlite3.obj
 0001:00043b78       $LN4                       10044b78     sqlite3.obj
 0001:00043b84       $LN3                       10044b84     sqlite3.obj
 0001:00043b90       _exprListDeleteNN          10044b90 f   sqlite3.obj
 0001:00043c40       _exprMightBeIndexed        10044c40 f   sqlite3.obj
 0001:00043d40       _exprMightBeIndexed2       10044d40 f   sqlite3.obj
 0001:00043e70       _exprNodeIsConstant        10044e70 f   sqlite3.obj
 0001:00043f84       $LN19                      10044f84     sqlite3.obj
 0001:00043f98       $LN18                      10044f98     sqlite3.obj
 0001:00044000       _exprNodeIsConstantOrGroupBy 10045000 f   sqlite3.obj
 0001:000440e0       _exprNodeIsDeterministic   100450e0 f   sqlite3.obj
 0001:00044150       _exprNot                   10045150 f   sqlite3.obj
 0001:000441b0       _exprProbability           100451b0 f   sqlite3.obj
 0001:00044274       $LN7                       10045274     sqlite3.obj
 0001:0004427c       $LN6                       1004527c     sqlite3.obj
 0001:00044288       $LN5                       10045288     sqlite3.obj
 0001:00044290       _exprSelectUsage           10045290 f   sqlite3.obj
 0001:00044400       _exprSetHeight             10045400 f   sqlite3.obj
 0001:000444f0       $LN8                       100454f0     sqlite3.obj
 0001:000444f8       $LN7                       100454f8     sqlite3.obj
 0001:00044504       $LN6                       10045504     sqlite3.obj
 0001:00044510       _exprSrcCount              10045510 f   sqlite3.obj
 0001:000445f0       _exprStructSize            100455f0 f   sqlite3.obj
 0001:00044650       _exprTableColumn           10045650 f   sqlite3.obj
 0001:000446c0       _exprTableRegister         100456c0 f   sqlite3.obj
 0001:000447b0       _exprToRegister            100457b0 f   sqlite3.obj
 0001:00044810       _exprVectorRegister        10045810 f   sqlite3.obj
 0001:000448d0       _fetchPayload              100458d0 f   sqlite3.obj
 0001:00044960       _fillInCell                10045960 f   sqlite3.obj
 0001:00044e18       $LN35                      10045e18     sqlite3.obj
 0001:00044e20       $LN34                      10045e20     sqlite3.obj
 0001:00044e44       $LN33                      10045e44     sqlite3.obj
 0001:00044e4a       $LN32                      10045e4a     sqlite3.obj
 0001:00044e53       $LN31                      10045e53     sqlite3.obj
 0001:00044e60       _finalDbSize               10045e60 f   sqlite3.obj
 0001:00044f40       _finalizeAggFunctions      10045f40 f   sqlite3.obj
 0001:00045010       _findBtree                 10046010 f   sqlite3.obj
 0001:0004514c       $LN9                       1004614c     sqlite3.obj
 0001:00045154       $LN8                       10046154     sqlite3.obj
 0001:00045160       $LN7                       10046160     sqlite3.obj
 0001:00045170       _findCollSeqEntry          10046170 f   sqlite3.obj
 0001:00045300       _findElementWithHash       10046300 f   sqlite3.obj
 0001:000453e0       _findIndexCol              100463e0 f   sqlite3.obj
 0001:000454d0       _findNextHostParameter     100464d0 f   sqlite3.obj
 0001:00045588       $LN8                       10046588     sqlite3.obj
 0001:00045590       $LN7                       10046590     sqlite3.obj
 0001:0004559c       $LN6                       1004659c     sqlite3.obj
 0001:000455b0       _findRightmost             100465b0 f   sqlite3.obj
 0001:000455f0       _fkActionTrigger           100465f0 f   sqlite3.obj
 0001:00045d74       $LN45                      10046d74     sqlite3.obj
 0001:00045d7c       $LN44                      10046d7c     sqlite3.obj
 0001:00045dd0       $LN43                      10046dd0     sqlite3.obj
 0001:00045dd6       $LN42                      10046dd6     sqlite3.obj
 0001:00045ddd       $LN41                      10046ddd     sqlite3.obj
 0001:00045de6       $LN40                      10046de6     sqlite3.obj
 0001:00045deb       $LN39                      10046deb     sqlite3.obj
 0001:00045df0       $LN38                      10046df0     sqlite3.obj
 0001:00045df6       $LN37                      10046df6     sqlite3.obj
 0001:00045e00       _fkChildIsModified         10046e00 f   sqlite3.obj
 0001:00045e80       _fkLookupParent            10046e80 f   sqlite3.obj
 0001:00046300       _fkParentIsModified        10047300 f   sqlite3.obj
 0001:000463f0       _fkScanChildren            100473f0 f   sqlite3.obj
 0001:00046808       $LN22                      10047808     sqlite3.obj
 0001:00046810       $LN21                      10047810     sqlite3.obj
 0001:0004681c       $LN20                      1004781c     sqlite3.obj
 0001:00046830       _fkTriggerDelete           10047830 f   sqlite3.obj
 0001:000468d0       _flattenSubquery           100478d0 f   sqlite3.obj
 0001:00047128       $LN65                      10048128     sqlite3.obj
 0001:00047130       $LN64                      10048130     sqlite3.obj
 0001:0004713c       $LN63                      1004813c     sqlite3.obj
 0001:00047140       _freeEphemeralFunction     10048140 f   sqlite3.obj
 0001:00047190       _freeIndex                 10048190 f   sqlite3.obj
 0001:00047240       _freeP4                    10048240 f   sqlite3.obj
 0001:0004733c       $LN15                      1004833c     sqlite3.obj
 0001:00047370       _freeP4FuncCtx             10048370 f   sqlite3.obj
 0001:000473d0       _freeP4Mem                 100483d0 f   sqlite3.obj
 0001:00047430       _freePage                  10048430 f   sqlite3.obj
 0001:00047490       _freePage2                 10048490 f   sqlite3.obj
 0001:00047810       $LN26                      10048810     sqlite3.obj
 0001:00047818       $LN25                      10048818     sqlite3.obj
 0001:0004783c       $LN24                      1004883c     sqlite3.obj
 0001:0004783f       $LN23                      1004883f     sqlite3.obj
 0001:00047845       $LN22                      10048845     sqlite3.obj
 0001:00047850       _freeSpace                 10048850 f   sqlite3.obj
 0001:00047d00       _freeTempSpace             10048d00 f   sqlite3.obj
 0001:00047d70       _functionDestroy           10048d70 f   sqlite3.obj
 0001:00047e00       _functionSearch            10048e00 f   sqlite3.obj
 0001:00047e70       _generateColumnNames       10048e70 f   sqlite3.obj
 0001:00048150       _generateColumnTypes       10049150 f   sqlite3.obj
 0001:0004821c       $LN8                       1004921c     sqlite3.obj
 0001:00048224       $LN7                       10049224     sqlite3.obj
 0001:00048230       $LN6                       10049230     sqlite3.obj
 0001:00048240       _generateOutputSubroutine  10049240 f   sqlite3.obj
 0001:000485f8       $LN14                      100495f8     sqlite3.obj
 0001:00048610       _generateSortTail          10049610 f   sqlite3.obj
 0001:00048b2c       $LN30                      10049b2c     sqlite3.obj
 0001:00048b40       _generateWithRecursiveQuery 10049b40 f   sqlite3.obj
 0001:0004905c       $LN25                      1004a05c     sqlite3.obj
 0001:00049064       $LN24                      1004a064     sqlite3.obj
 0001:00049070       $LN23                      1004a070     sqlite3.obj
 0001:00049080       _getAndInitPage            1004a080 f   sqlite3.obj
 0001:00049200       $LN12                      1004a200     sqlite3.obj
 0001:00049208       $LN11                      1004a208     sqlite3.obj
 0001:00049214       $LN10                      1004a214     sqlite3.obj
 0001:00049220       _getAutoVacuum             1004a220 f   sqlite3.obj
 0001:000492e0       _getCellInfo               1004a2e0 f   sqlite3.obj
 0001:00049350       _getDigits                 1004a350 f   sqlite3.obj
 0001:000494b0       _getDoubleArg              1004a4b0 f   sqlite3.obj
 0001:00049530       _getIntArg                 1004a530 f   sqlite3.obj
 0001:000495b0       _getLockingMode            1004a5b0 f   sqlite3.obj
 0001:00049620       _getOverflowPage           1004a620 f   sqlite3.obj
 0001:000497c8       $LN21                      1004a7c8     sqlite3.obj
 0001:000497d0       $LN20                      1004a7d0     sqlite3.obj
 0001:000497f4       $LN19                      1004a7f4     sqlite3.obj
 0001:000497fa       $LN18                      1004a7fa     sqlite3.obj
 0001:000497ff       $LN17                      1004a7ff     sqlite3.obj
 0001:00049810       _getPageError              1004a810 f   sqlite3.obj
 0001:00049850       _getPageMMap               1004a850 f   sqlite3.obj
 0001:00049a84       $LN21                      1004aa84     sqlite3.obj
 0001:00049a8c       $LN20                      1004aa8c     sqlite3.obj
 0001:00049ab0       $LN19                      1004aab0     sqlite3.obj
 0001:00049ab6       $LN18                      1004aab6     sqlite3.obj
 0001:00049abd       $LN17                      1004aabd     sqlite3.obj
 0001:00049ad0       _getPageNormal             1004aad0 f   sqlite3.obj
 0001:00049d84       $LN23                      1004ad84     sqlite3.obj
 0001:00049d8c       $LN22                      1004ad8c     sqlite3.obj
 0001:00049d98       $LN21                      1004ad98     sqlite3.obj
 0001:00049da0       _getPageReferenced         1004ada0 f   sqlite3.obj
 0001:00049df0       _getRowTrigger             1004adf0 f   sqlite3.obj
 0001:00049eb0       _getSafetyLevel            1004aeb0 f   sqlite3.obj
 0001:00049f90       _getTempStore              1004af90 f   sqlite3.obj
 0001:0004a040       _getTextArg                1004b040 f   sqlite3.obj
 0001:0004a0c0       _growOp3                   1004b0c0 f   sqlite3.obj
 0001:0004a130       _growOpArray               1004b130 f   sqlite3.obj
 0001:0004a240       _growVTrans                1004b240 f   sqlite3.obj
 0001:0004a300       _handleDeferredMoveto      1004b300 f   sqlite3.obj
 0001:0004a3b4       $LN7                       1004b3b4     sqlite3.obj
 0001:0004a3bc       $LN6                       1004b3bc     sqlite3.obj
 0001:0004a3c8       $LN5                       1004b3c8     sqlite3.obj
 0001:0004a3d0       _handleMovedCursor         1004b3d0 f   sqlite3.obj
 0001:0004a458       $LN6                       1004b458     sqlite3.obj
 0001:0004a460       $LN5                       1004b460     sqlite3.obj
 0001:0004a46c       $LN4                       1004b46c     sqlite3.obj
 0001:0004a480       _hasColumn                 1004b480 f   sqlite3.obj
 0001:0004a540       _hasHotJournal             1004b540 f   sqlite3.obj
 0001:0004a78c       $LN27                      1004b78c     sqlite3.obj
 0001:0004a794       $LN26                      1004b794     sqlite3.obj
 0001:0004a7d0       $LN25                      1004b7d0     sqlite3.obj
 0001:0004a7d6       $LN24                      1004b7d6     sqlite3.obj
 0001:0004a7d8       $LN23                      1004b7d8     sqlite3.obj
 0001:0004a7de       $LN22                      1004b7de     sqlite3.obj
 0001:0004a7e5       $LN21                      1004b7e5     sqlite3.obj
 0001:0004a7f0       _havingToWhere             1004b7f0 f   sqlite3.obj
 0001:0004a888       $LN6                       1004b888     sqlite3.obj
 0001:0004a890       $LN5                       1004b890     sqlite3.obj
 0001:0004a8a8       $LN4                       1004b8a8     sqlite3.obj
 0001:0004a8b0       $LN3                       1004b8b0     sqlite3.obj
 0001:0004a8c0       _havingToWhereExprCb       1004b8c0 f   sqlite3.obj
 0001:0004a9cc       $LN8                       1004b9cc     sqlite3.obj
 0001:0004a9d4       $LN7                       1004b9d4     sqlite3.obj
 0001:0004a9e0       $LN6                       1004b9e0     sqlite3.obj
 0001:0004a9f0       _heightOfExpr              1004b9f0 f   sqlite3.obj
 0001:0004aa40       _heightOfExprList          1004ba40 f   sqlite3.obj
 0001:0004aab0       _heightOfSelect            1004bab0 f   sqlite3.obj
 0001:0004ab90       _identLength               1004bb90 f   sqlite3.obj
 0001:0004ac00       _identPut                  1004bc00 f   sqlite3.obj
 0001:0004ad90       _incrAggDepth              1004bd90 f   sqlite3.obj
 0001:0004ade0       _incrAggFunctionDepth      1004bde0 f   sqlite3.obj
 0001:0004ae6c       $LN6                       1004be6c     sqlite3.obj
 0001:0004ae74       $LN5                       1004be74     sqlite3.obj
 0001:0004ae80       $LN4                       1004be80     sqlite3.obj
 0001:0004ae90       _incrVacuumStep            1004be90 f   sqlite3.obj
 0001:0004b0fc       $LN32                      1004c0fc     sqlite3.obj
 0001:0004b104       $LN31                      1004c104     sqlite3.obj
 0001:0004b158       $LN30                      1004c158     sqlite3.obj
 0001:0004b160       $LN29                      1004c160     sqlite3.obj
 0001:0004b168       $LN28                      1004c168     sqlite3.obj
 0001:0004b170       $LN27                      1004c170     sqlite3.obj
 0001:0004b178       $LN26                      1004c178     sqlite3.obj
 0001:0004b180       $LN25                      1004c180     sqlite3.obj
 0001:0004b189       $LN24                      1004c189     sqlite3.obj
 0001:0004b190       _indexColumnNotNull        1004c190 f   sqlite3.obj
 0001:0004b200       _indexMightHelpWithOrderBy 1004c200 f   sqlite3.obj
 0001:0004b380       _initMemArray              1004c380 f   sqlite3.obj
 0001:0004b410       _insertCell                1004c410 f   sqlite3.obj
 0001:0004b678       $LN15                      1004c678     sqlite3.obj
 0001:0004b680       $LN14                      1004c680     sqlite3.obj
 0001:0004b68c       $LN13                      1004c68c     sqlite3.obj
 0001:0004b690       _insertElement             1004c690 f   sqlite3.obj
 0001:0004b780       _integrityCheckResultRow   1004c780 f   sqlite3.obj
 0001:0004b800       _invalidateAllOverflowCache 1004c800 f   sqlite3.obj
 0001:0004b860       _invalidateIncrblobCursors 1004c860 f   sqlite3.obj
 0001:0004b910       _invalidateTempStorage     1004c910 f   sqlite3.obj
 0001:0004b9e0       _invokeProfileCallback     1004c9e0 f   sqlite3.obj
 0001:0004bb00       $LN8                       1004cb00     sqlite3.obj
 0001:0004bb08       $LN7                       1004cb08     sqlite3.obj
 0001:0004bb20       $LN6                       1004cb20     sqlite3.obj
 0001:0004bb28       $LN5                       1004cb28     sqlite3.obj
 0001:0004bb30       _invokeValueDestructor     1004cb30 f   sqlite3.obj
 0001:0004bba0       _isAllZero                 1004cba0 f   sqlite3.obj
 0001:0004bc00       _isAuxiliaryVtabOperator   1004cc00 f   sqlite3.obj
 0001:0004be00       _isCandidateForInOpt       1004ce00 f   sqlite3.obj
 0001:0004bf30       _isDate                    1004cf30 f   sqlite3.obj
 0001:0004c0d0       _isDistinctRedundant       1004d0d0 f   sqlite3.obj
 0001:0004c260       _isFatalError              1004d260 f   sqlite3.obj
 0001:0004c2c0       _isLikeOrGlob              1004d2c0 f   sqlite3.obj
 0001:0004c764       $LN31                      1004d764     sqlite3.obj
 0001:0004c76c       $LN30                      1004d76c     sqlite3.obj
 0001:0004c778       $LN29                      1004d778     sqlite3.obj
 0001:0004c780       _isLookaside               1004d780 f   sqlite3.obj
 0001:0004c7e0       _isSelfJoinView            1004d7e0 f   sqlite3.obj
 0001:0004c8d0       _isSetNullAction           1004d8d0 f   sqlite3.obj
 0001:0004c9a0       _isSimpleCount             1004d9a0 f   sqlite3.obj
 0001:0004ca90       _isSystemTable             1004da90 f   sqlite3.obj
 0001:0004cb00       _journalHdrOffset          1004db00 f   sqlite3.obj
 0001:0004cba0       _jrnlBufferSize            1004dba0 f   sqlite3.obj
 0001:0004cbd0       _keyInfoFromExprList       1004dbd0 f   sqlite3.obj
 0001:0004cca0       _keywordCode               1004dca0 f   sqlite3.obj
 0001:0004cdb0       _loadAnalysis              1004ddb0 f   sqlite3.obj
 0001:0004ce10       _localtimeOffset           1004de10 f   sqlite3.obj
 0001:0004cfe4       $LN12                      1004dfe4     sqlite3.obj
 0001:0004cfec       $LN11                      1004dfec     sqlite3.obj
 0001:0004d01c       $LN10                      1004e01c     sqlite3.obj
 0001:0004d023       $LN9                       1004e023     sqlite3.obj
 0001:0004d025       $LN8                       1004e025     sqlite3.obj
 0001:0004d027       $LN7                       1004e027     sqlite3.obj
 0001:0004d030       _localtime_s               1004e030 f   sqlite3.obj
 0001:0004d080       _lockBtree                 1004e080 f   sqlite3.obj
 0001:0004d4bc       $LN32                      1004e4bc     sqlite3.obj
 0001:0004d4c4       $LN31                      1004e4c4     sqlite3.obj
 0001:0004d4e8       $LN30                      1004e4e8     sqlite3.obj
 0001:0004d4ef       $LN29                      1004e4ef     sqlite3.obj
 0001:0004d4f9       $LN28                      1004e4f9     sqlite3.obj
 0001:0004d500       _lockBtreeMutex            1004e500 f   sqlite3.obj
 0001:0004d560       _logBadConnection          1004e560 f   sqlite3.obj
 0001:0004d5b0       _lookupName                1004e5b0 f   sqlite3.obj
 0001:0004dfe0       _mallocWithAlarm           1004efe0 f   sqlite3.obj
 0001:0004e110       _markTermAsChild           1004f110 f   sqlite3.obj
 0001:0004e190       _matchQuality              1004f190 f   sqlite3.obj
 0001:0004e260       _measureAllocationSize     1004f260 f   sqlite3.obj
 0001:0004e2c0       _memIntValue               1004f2c0 f   sqlite3.obj
 0001:0004e348       $LN5                       1004f348     sqlite3.obj
 0001:0004e350       $LN4                       1004f350     sqlite3.obj
 0001:0004e35c       $LN3                       1004f35c     sqlite3.obj
 0001:0004e370       _memRealValue              1004f370 f   sqlite3.obj
 0001:0004e3f4       $LN5                       1004f3f4     sqlite3.obj
 0001:0004e3fc       $LN4                       1004f3fc     sqlite3.obj
 0001:0004e408       $LN3                       1004f408     sqlite3.obj
 0001:0004e410       _memjrnlCreateFile         1004f410 f   sqlite3.obj
 0001:0004e5ac       $LN14                      1004f5ac     sqlite3.obj
 0001:0004e5b4       $LN13                      1004f5b4     sqlite3.obj
 0001:0004e5c0       $LN12                      1004f5c0     sqlite3.obj
 0001:0004e5d0       _memjrnlFreeChunks         1004f5d0 f   sqlite3.obj
 0001:0004e640       _minMaxQuery               1004f640 f   sqlite3.obj
 0001:0004e730       _modifyPagePointer         1004f730 f   sqlite3.obj
 0001:0004e988       $LN23                      1004f988     sqlite3.obj
 0001:0004e990       $LN22                      1004f990     sqlite3.obj
 0001:0004e99c       $LN21                      1004f99c     sqlite3.obj
 0001:0004e9b0       _moveToChild               1004f9b0 f   sqlite3.obj
 0001:0004ea90       _moveToLeftmost            1004fa90 f   sqlite3.obj
 0001:0004eb30       _moveToParent              1004fb30 f   sqlite3.obj
 0001:0004ebe0       _moveToRightmost           1004fbe0 f   sqlite3.obj
 0001:0004eca0       _moveToRoot                1004fca0 f   sqlite3.obj
 0001:0004ef10       _multiSelect               1004ff10 f   sqlite3.obj
 0001:0004fb10       $LN52                      10050b10     sqlite3.obj
 0001:0004fb18       $LN51                      10050b18     sqlite3.obj
 0001:0004fb48       $LN50                      10050b48     sqlite3.obj
 0001:0004fb56       $LN49                      10050b56     sqlite3.obj
 0001:0004fb60       $LN48                      10050b60     sqlite3.obj
 0001:0004fb67       $LN47                      10050b67     sqlite3.obj
 0001:0004fb70       _multiSelectCollSeq        10050b70 f   sqlite3.obj
 0001:0004fc00       _multiSelectOrderBy        10050c00 f   sqlite3.obj
 0001:000507b4       $LN50                      100517b4     sqlite3.obj
 0001:000507bc       $LN49                      100517bc     sqlite3.obj
 0001:000507d4       $LN48                      100517d4     sqlite3.obj
 0001:000507da       $LN47                      100517da     sqlite3.obj
 0001:000507e0       _multiSelectOrderByKeyInfo 100517e0 f   sqlite3.obj
 0001:00050930       _multiSelectValues         10051930 f   sqlite3.obj
 0001:000509f0       _nameInUsingClause         100519f0 f   sqlite3.obj
 0001:00050a70       _newDatabase               10051a70 f   sqlite3.obj
 0001:00050c20       _nocaseCollatingFunc       10051c20 f   sqlite3.obj
 0001:00050ca0       _notValid                  10051ca0 f   sqlite3.obj
 0001:00050d30       _numberOfCachePages        10051d30 f   sqlite3.obj
 0001:00050db0       _numericType               10051db0 f   sqlite3.obj
 0001:00050e20       _openDatabase              10051e20 f   sqlite3.obj
 0001:00051428       $LN37                      10052428     sqlite3.obj
 0001:00051430       $LN36                      10052430     sqlite3.obj
 0001:00051448       $LN35                      10052448     sqlite3.obj
 0001:00051450       $LN34                      10052450     sqlite3.obj
 0001:00051460       _openStatTable             10052460 f   sqlite3.obj
 0001:00051664       $LN20                      10052664     sqlite3.obj
 0001:0005166c       $LN19                      1005266c     sqlite3.obj
 0001:00051684       $LN18                      10052684     sqlite3.obj
 0001:0005168f       $LN17                      1005268f     sqlite3.obj
 0001:000516a0       _openSubJournal            100526a0 f   sqlite3.obj
 0001:00051740       _operatorMask              10052740 f   sqlite3.obj
 0001:000517b0       _osLocaltime               100527b0 f   sqlite3.obj
 0001:00051810       _out2Prerelease            10052810 f   sqlite3.obj
 0001:00051880       _out2PrereleaseWithClear   10052880 f   sqlite3.obj
 0001:000518d0       _pageFindSlot              100528d0 f   sqlite3.obj
 0001:00051ad0       _pageFreeArray             10052ad0 f   sqlite3.obj
 0001:00051c20       _pageInsertArray           10052c20 f   sqlite3.obj
 0001:00051d88       $LN12                      10052d88     sqlite3.obj
 0001:00051d90       $LN11                      10052d90     sqlite3.obj
 0001:00051d9c       $LN10                      10052d9c     sqlite3.obj
 0001:00051da0       _pageReinit                10052da0 f   sqlite3.obj
 0001:00051e10       _pagerAcquireMapPage       10052e10 f   sqlite3.obj
 0001:00051f50       _pagerAddPageToRollbackJournal 10052f50 f   sqlite3.obj
 0001:000520d0       _pagerBeginReadTransaction 100530d0 f   sqlite3.obj
 0001:00052194       $LN8                       10053194     sqlite3.obj
 0001:0005219c       $LN7                       1005319c     sqlite3.obj
 0001:000521a8       $LN6                       100531a8     sqlite3.obj
 0001:000521b0       _pagerExclusiveLock        100531b0 f   sqlite3.obj
 0001:00052210       _pagerFixMaplimit          10053210 f   sqlite3.obj
 0001:000522e8       $LN9                       100532e8     sqlite3.obj
 0001:000522f0       $LN8                       100532f0     sqlite3.obj
 0001:000522fc       $LN7                       100532fc     sqlite3.obj
 0001:00052300       _pagerFlushOnCommit        10053300 f   sqlite3.obj
 0001:00052390       _pagerFreeMapHdrs          10053390 f   sqlite3.obj
 0001:00052400       _pagerLockDb               10053400 f   sqlite3.obj
 0001:000524b0       _pagerOpenSavepoint        100534b0 f   sqlite3.obj
 0001:00052650       _pagerOpenWal              10053650 f   sqlite3.obj
 0001:00052700       _pagerOpenWalIfPresent     10053700 f   sqlite3.obj
 0001:00052808       $LN14                      10053808     sqlite3.obj
 0001:00052810       $LN13                      10053810     sqlite3.obj
 0001:00052828       $LN12                      10053828     sqlite3.obj
 0001:0005282e       $LN11                      1005382e     sqlite3.obj
 0001:00052840       _pagerOpentemp             10053840 f   sqlite3.obj
 0001:000528a0       _pagerPagecount            100538a0 f   sqlite3.obj
 0001:0005299c       $LN8                       1005399c     sqlite3.obj
 0001:000529a4       $LN7                       100539a4     sqlite3.obj
 0001:000529b0       $LN6                       100539b0     sqlite3.obj
 0001:000529c0       _pagerPlaybackSavepoint    100539c0 f   sqlite3.obj
 0001:00052d9c       $LN33                      10053d9c     sqlite3.obj
 0001:00052da4       $LN32                      10053da4     sqlite3.obj
 0001:00052dc8       $LN31                      10053dc8     sqlite3.obj
 0001:00052dcf       $LN30                      10053dcf     sqlite3.obj
 0001:00052dd5       $LN29                      10053dd5     sqlite3.obj
 0001:00052de0       _pagerReleaseMapPage       10053de0 f   sqlite3.obj
 0001:00052e80       _pagerRollbackWal          10053e80 f   sqlite3.obj
 0001:00052f30       _pagerStress               10053f30 f   sqlite3.obj
 0001:00053060       _pagerSyncHotJournal       10054060 f   sqlite3.obj
 0001:000530e0       _pagerUndoCallback         100540e0 f   sqlite3.obj
 0001:000531b0       _pagerUnlockAndRollback    100541b0 f   sqlite3.obj
 0001:00053250       _pagerUnlockDb             10054250 f   sqlite3.obj
 0001:000532f0       _pagerUnlockIfUnused       100542f0 f   sqlite3.obj
 0001:00053350       _pagerWalFrames            10054350 f   sqlite3.obj
 0001:000534a0       _pagerWriteLargeSector     100544a0 f   sqlite3.obj
 0001:00053718       $LN25                      10054718     sqlite3.obj
 0001:00053720       $LN24                      10054720     sqlite3.obj
 0001:0005372c       $LN23                      1005472c     sqlite3.obj
 0001:00053740       _pager_cksum               10054740 f   sqlite3.obj
 0001:000537b0       _pager_delmaster           100547b0 f   sqlite3.obj
 0001:00053ab8       $LN23                      10054ab8     sqlite3.obj
 0001:00053ac0       $LN22                      10054ac0     sqlite3.obj
 0001:00053ad8       $LN21                      10054ad8     sqlite3.obj
 0001:00053adf       $LN20                      10054adf     sqlite3.obj
 0001:00053af0       _pager_end_transaction     10054af0 f   sqlite3.obj
 0001:00053e80       _pager_error               10054e80 f   sqlite3.obj
 0001:00053ef0       _pager_incr_changecounter  10054ef0 f   sqlite3.obj
 0001:00054060       $LN12                      10055060     sqlite3.obj
 0001:00054068       $LN11                      10055068     sqlite3.obj
 0001:00054074       $LN10                      10055074     sqlite3.obj
 0001:00054080       _pager_open_journal        10055080 f   sqlite3.obj
 0001:00054240       _pager_playback            10055240 f   sqlite3.obj
 0001:000546b8       $LN40                      100556b8     sqlite3.obj
 0001:000546c0       $LN39                      100556c0     sqlite3.obj
 0001:000546fc       $LN38                      100556fc     sqlite3.obj
 0001:0005470a       $LN37                      1005570a     sqlite3.obj
 0001:0005470e       $LN36                      1005570e     sqlite3.obj
 0001:00054713       $LN35                      10055713     sqlite3.obj
 0001:00054718       $LN34                      10055718     sqlite3.obj
 0001:00054720       _pager_playback_one_page   10055720 f   sqlite3.obj
 0001:00054b8c       $LN38                      10055b8c     sqlite3.obj
 0001:00054b94       $LN37                      10055b94     sqlite3.obj
 0001:00054bb8       $LN36                      10055bb8     sqlite3.obj
 0001:00054bbe       $LN35                      10055bbe     sqlite3.obj
 0001:00054bc3       $LN34                      10055bc3     sqlite3.obj
 0001:00054bd0       _pager_reset               10055bd0 f   sqlite3.obj
 0001:00054c40       _pager_truncate            10055c40 f   sqlite3.obj
 0001:00054dd8       $LN15                      10055dd8     sqlite3.obj
 0001:00054de0       $LN14                      10055de0     sqlite3.obj
 0001:00054dec       $LN13                      10055dec     sqlite3.obj
 0001:00054e00       _pager_unlock              10055e00 f   sqlite3.obj
 0001:00054ff0       _pager_wait_on_lock        10055ff0 f   sqlite3.obj
 0001:00055070       _pager_write               10056070 f   sqlite3.obj
 0001:000551a0       _pager_write_changecounter 100561a0 f   sqlite3.obj
 0001:00055230       _pager_write_pagelist      10056230 f   sqlite3.obj
 0001:00055450       $LN15                      10056450     sqlite3.obj
 0001:00055458       $LN14                      10056458     sqlite3.obj
 0001:00055464       $LN13                      10056464     sqlite3.obj
 0001:00055470       _parseDateOrTime           10056470 f   sqlite3.obj
 0001:00055584       $LN12                      10056584     sqlite3.obj
 0001:0005558c       $LN11                      1005658c     sqlite3.obj
 0001:00055598       $LN10                      10056598     sqlite3.obj
 0001:000555a0       _parseHhMmSs               100565a0 f   sqlite3.obj
 0001:000557a8       $LN17                      100567a8     sqlite3.obj
 0001:000557b0       $LN16                      100567b0     sqlite3.obj
 0001:000557d4       $LN15                      100567d4     sqlite3.obj
 0001:000557d6       $LN14                      100567d6     sqlite3.obj
 0001:000557d8       $LN13                      100567d8     sqlite3.obj
 0001:000557e0       _parseModifier             100567e0 f   sqlite3.obj
 0001:00056130       $LN59                      10057130     sqlite3.obj
 0001:00056138       $LN58                      10057138     sqlite3.obj
 0001:0005615c       $LN57                      1005715c     sqlite3.obj
 0001:0005615f       $LN56                      1005715f     sqlite3.obj
 0001:00056161       $LN55                      10057161     sqlite3.obj
 0001:00056164       $LN60                      10057164     sqlite3.obj
 0001:0005617c       $LN53                      1005717c     sqlite3.obj
 0001:000561d0       _parseTimezone             100571d0 f   sqlite3.obj
 0001:00056350       $LN22                      10057350     sqlite3.obj
 0001:00056358       $LN21                      10057358     sqlite3.obj
 0001:00056370       $LN20                      10057370     sqlite3.obj
 0001:00056374       $LN19                      10057374     sqlite3.obj
 0001:00056380       _parseYyyyMmDd             10057380 f   sqlite3.obj
 0001:000564f4       $LN20                      100574f4     sqlite3.obj
 0001:000564fc       $LN19                      100574fc     sqlite3.obj
 0001:00056520       $LN18                      10057520     sqlite3.obj
 0001:00056522       $LN17                      10057522     sqlite3.obj
 0001:00056524       $LN16                      10057524     sqlite3.obj
 0001:00056530       _parserAddExprIdListTerm   10057530 f   sqlite3.obj
 0001:000565d0       _parserDoubleLinkSelect    100575d0 f   sqlite3.obj
 0001:000566b0       _patternCompare            100576b0 f   sqlite3.obj
 0001:00056ca0       _pcache1Alloc              10057ca0 f   sqlite3.obj
 0001:00056de0       _pcache1AllocPage          10057de0 f   sqlite3.obj
 0001:00056ee0       _pcache1EnforceMaxPage     10057ee0 f   sqlite3.obj
 0001:00056f90       _pcache1FetchNoMutex       10057f90 f   sqlite3.obj
 0001:00057050       _pcache1FetchStage2        10058050 f   sqlite3.obj
 0001:00057270       _pcache1Free               10058270 f   sqlite3.obj
 0001:000573a0       _pcache1FreePage           100583a0 f   sqlite3.obj
 0001:00057420       _pcache1InitBulk           10058420 f   sqlite3.obj
 0001:000575f0       _pcache1PinPage            100585f0 f   sqlite3.obj
 0001:00057660       _pcache1RemoveFromHash     10058660 f   sqlite3.obj
 0001:00057710       _pcache1ResizeHash         10058710 f   sqlite3.obj
 0001:00057830       _pcache1TruncateUnsafe     10058830 f   sqlite3.obj
 0001:00057940       _pcache1UnderMemoryPressure 10058940 f   sqlite3.obj
 0001:000579a0       _pcacheFetchFinishWithInit 100589a0 f   sqlite3.obj
 0001:00057a60       _pcacheManageDirtyList     10058a60 f   sqlite3.obj
 0001:00057b80       _pcacheMergeDirtyList      10058b80 f   sqlite3.obj
 0001:00057c38       $LN12                      10058c38     sqlite3.obj
 0001:00057c40       $LN11                      10058c40     sqlite3.obj
 0001:00057c4c       $LN10                      10058c4c     sqlite3.obj
 0001:00057c60       _pcacheSortDirtyList       10058c60 f   sqlite3.obj
 0001:00057e54       $LN19                      10058e54     sqlite3.obj
 0001:00057e5c       $LN18                      10058e5c     sqlite3.obj
 0001:00057e68       $LN17                      10058e68     sqlite3.obj
 0001:00057e70       _pcacheUnpin               10058e70 f   sqlite3.obj
 0001:00057ee0       _populateCellCache         10058ee0 f   sqlite3.obj
 0001:00057f80       _pragmaLocate              10058f80 f   sqlite3.obj
 0001:00058050       _pragmaVtabCursorClear     10059050 f   sqlite3.obj
 0001:000580e0       _ptrmapGet                 100590e0 f   sqlite3.obj
 0001:00058218       $LN10                      10059218     sqlite3.obj
 0001:00058220       $LN9                       10059220     sqlite3.obj
 0001:0005822c       $LN8                       1005922c     sqlite3.obj
 0001:00058240       _ptrmapPageno              10059240 f   sqlite3.obj
 0001:000582c0       _ptrmapPut                 100592c0 f   sqlite3.obj
 0001:00058438       $LN12                      10059438     sqlite3.obj
 0001:00058440       $LN11                      10059440     sqlite3.obj
 0001:0005844c       $LN10                      1005944c     sqlite3.obj
 0001:00058460       _ptrmapPutOvflPtr          10059460 f   sqlite3.obj
 0001:00058524       $LN7                       10059524     sqlite3.obj
 0001:0005852c       $LN6                       1005952c     sqlite3.obj
 0001:00058538       $LN5                       10059538     sqlite3.obj
 0001:00058540       _pushDownWhereTerms        10059540 f   sqlite3.obj
 0001:000586ec       $LN16                      100596ec     sqlite3.obj
 0001:000586f4       $LN15                      100596f4     sqlite3.obj
 0001:00058700       $LN14                      10059700     sqlite3.obj
 0001:00058710       _pushOntoSorter            10059710 f   sqlite3.obj
 0001:00058c80       _putVarint64               10059c80 f   sqlite3.obj
 0001:00058e00       $LN15                      10059e00     sqlite3.obj
 0001:00058e08       $LN14                      10059e08     sqlite3.obj
 0001:00058e14       $LN13                      10059e14     sqlite3.obj
 0001:00058e20       _querySharedCacheTableLock 10059e20 f   sqlite3.obj
 0001:00058ef0       _read32bits                10059ef0 f   sqlite3.obj
 0001:00058f80       $LN6                       10059f80     sqlite3.obj
 0001:00058f88       $LN5                       10059f88     sqlite3.obj
 0001:00058f94       $LN4                       10059f94     sqlite3.obj
 0001:00058fa0       _readDbPage                10059fa0 f   sqlite3.obj
 0001:0005912c       $LN13                      1005a12c     sqlite3.obj
 0001:00059134       $LN12                      1005a134     sqlite3.obj
 0001:00059140       $LN11                      1005a140     sqlite3.obj
 0001:00059150       _readJournalHdr            1005a150 f   sqlite3.obj
 0001:00059420       $LN22                      1005a420     sqlite3.obj
 0001:00059428       $LN21                      1005a428     sqlite3.obj
 0001:0005944c       $LN20                      1005a44c     sqlite3.obj
 0001:00059458       $LN19                      1005a458     sqlite3.obj
 0001:00059462       $LN18                      1005a462     sqlite3.obj
 0001:00059470       _readMasterJournal         1005a470 f   sqlite3.obj
 0001:0005967c       $LN16                      1005a67c     sqlite3.obj
 0001:00059684       $LN15                      1005a684     sqlite3.obj
 0001:000596b4       $LN14                      1005a6b4     sqlite3.obj
 0001:000596bb       $LN13                      1005a6bb     sqlite3.obj
 0001:000596c1       $LN12                      1005a6c1     sqlite3.obj
 0001:000596c5       $LN11                      1005a6c5     sqlite3.obj
 0001:000596d0       _readsTable                1005a6d0 f   sqlite3.obj
 0001:00059810       _rebuildPage               1005a810 f   sqlite3.obj
 0001:00059a70       _rehash                    1005aa70 f   sqlite3.obj
 0001:00059ba0       _reindexDatabases          1005aba0 f   sqlite3.obj
 0001:00059c50       _reindexTable              1005ac50 f   sqlite3.obj
 0001:00059d00       _releaseAllSavepoints      1005ad00 f   sqlite3.obj
 0001:00059dd0       _releaseMemArray           1005add0 f   sqlite3.obj
 0001:00059ed0       _releasePage               1005aed0 f   sqlite3.obj
 0001:00059f20       _releasePageNotNull        1005af20 f   sqlite3.obj
 0001:00059f70       _releasePageOne            1005af70 f   sqlite3.obj
 0001:00059fc0       _reloadTableSchema         1005afc0 f   sqlite3.obj
 0001:0005a110       _relocatePage              1005b110 f   sqlite3.obj
 0001:0005a2c8       $LN17                      1005b2c8     sqlite3.obj
 0001:0005a2d0       $LN16                      1005b2d0     sqlite3.obj
 0001:0005a2e8       $LN15                      1005b2e8     sqlite3.obj
 0001:0005a2eb       $LN14                      1005b2eb     sqlite3.obj
 0001:0005a300       _removeElementGivenHash    1005b300 f   sqlite3.obj
 0001:0005a3e0       _removeFromSharingList     1005b3e0 f   sqlite3.obj
 0001:0005a4d0       _renderLogMsg              1005b4d0 f   sqlite3.obj
 0001:0005a584       $LN6                       1005b584     sqlite3.obj
 0001:0005a58c       $LN5                       1005b58c     sqlite3.obj
 0001:0005a5a4       $LN4                       1005b5a4     sqlite3.obj
 0001:0005a5a9       $LN3                       1005b5a9     sqlite3.obj
 0001:0005a5b0       _reportError               1005b5b0 f   sqlite3.obj
 0001:0005a610       _resetAccumulator          1005b610 f   sqlite3.obj
 0001:0005a740       _resizeIndexObject         1005b740 f   sqlite3.obj
 0001:0005a860       _resolveAlias              1005b860 f   sqlite3.obj
 0001:0005a9b0       _resolveAsName             1005b9b0 f   sqlite3.obj
 0001:0005aa50       _resolveAttachExpr         1005ba50 f   sqlite3.obj
 0001:0005aac0       _resolveCompoundOrderBy    1005bac0 f   sqlite3.obj
 0001:0005ae28       $LN35                      1005be28     sqlite3.obj
 0001:0005ae30       $LN34                      1005be30     sqlite3.obj
 0001:0005ae3c       $LN33                      1005be3c     sqlite3.obj
 0001:0005ae50       _resolveExprStep           1005be50 f   sqlite3.obj
 0001:0005b520       $LN53                      1005c520     sqlite3.obj
 0001:0005b538       $LN52                      1005c538     sqlite3.obj
 0001:0005b5c0       _resolveOrderByTermToExprList 1005c5c0 f   sqlite3.obj
 0001:0005b6dc       $LN10                      1005c6dc     sqlite3.obj
 0001:0005b6e4       $LN9                       1005c6e4     sqlite3.obj
 0001:0005b6f0       $LN8                       1005c6f0     sqlite3.obj
 0001:0005b700       _resolveOrderGroupBy       1005c700 f   sqlite3.obj
 0001:0005b8e8       $LN19                      1005c8e8     sqlite3.obj
 0001:0005b8f0       $LN18                      1005c8f0     sqlite3.obj
 0001:0005b8fc       $LN17                      1005c8fc     sqlite3.obj
 0001:0005b910       _resolveOutOfRangeError    1005c910 f   sqlite3.obj
 0001:0005b960       _resolveP2Values           1005c960 f   sqlite3.obj
 0001:0005bb6c       $LN21                      1005cb6c     sqlite3.obj
 0001:0005bba0       _resolveSelectStep         1005cba0 f   sqlite3.obj
 0001:0005c1e4       $LN54                      1005d1e4     sqlite3.obj
 0001:0005c1ec       $LN53                      1005d1ec     sqlite3.obj
 0001:0005c1f8       $LN52                      1005d1f8     sqlite3.obj
 0001:0005c200       _returnSingleInt           1005d200 f   sqlite3.obj
 0001:0005c260       _returnSingleText          1005d260 f   sqlite3.obj
 0001:0005c2c0       _rowSetEntryAlloc          1005d2c0 f   sqlite3.obj
 0001:0005c380       _rowSetEntryMerge          1005d380 f   sqlite3.obj
 0001:0005c4a0       $LN15                      1005d4a0     sqlite3.obj
 0001:0005c4a8       $LN14                      1005d4a8     sqlite3.obj
 0001:0005c4b4       $LN13                      1005d4b4     sqlite3.obj
 0001:0005c4c0       _rowSetEntrySort           1005d4c0 f   sqlite3.obj
 0001:0005c620       $LN16                      1005d620     sqlite3.obj
 0001:0005c628       $LN15                      1005d628     sqlite3.obj
 0001:0005c634       $LN14                      1005d634     sqlite3.obj
 0001:0005c640       _rowSetListToTree          1005d640 f   sqlite3.obj
 0001:0005c6f0       _rowSetNDeepTree           1005d6f0 f   sqlite3.obj
 0001:0005c7c0       _rowSetTreeToList          1005d7c0 f   sqlite3.obj
 0001:0005c878       $LN9                       1005d878     sqlite3.obj
 0001:0005c880       $LN8                       1005d880     sqlite3.obj
 0001:0005c88c       $LN7                       1005d88c     sqlite3.obj
 0001:0005c890       _samplePushPrevious        1005d890 f   sqlite3.obj
 0001:0005c8c0       _saveAllCursors            1005d8c0 f   sqlite3.obj
 0001:0005c960       _saveCursorKey             1005d960 f   sqlite3.obj
 0001:0005ca40       _saveCursorPosition        1005da40 f   sqlite3.obj
 0001:0005cad0       _saveCursorsOnList         1005dad0 f   sqlite3.obj
 0001:0005cb70       _schemaIsValid             1005db70 f   sqlite3.obj
 0001:0005ccb8       $LN15                      1005dcb8     sqlite3.obj
 0001:0005ccc0       $LN14                      1005dcc0     sqlite3.obj
 0001:0005cccc       $LN13                      1005dccc     sqlite3.obj
 0001:0005cce0       _searchWith                1005dce0 f   sqlite3.obj
 0001:0005cda0       _selectAddSubqueryTypeInfo 1005dda0 f   sqlite3.obj
 0001:0005ce70       _selectExpander            1005de70 f   sqlite3.obj
 0001:0005d9b8       $LN79                      1005e9b8     sqlite3.obj
 0001:0005d9c0       $LN78                      1005e9c0     sqlite3.obj
 0001:0005d9cc       $LN77                      1005e9cc     sqlite3.obj
 0001:0005d9e0       _selectInnerLoop           1005e9e0 f   sqlite3.obj
 0001:0005e3c4       $LN67                      1005f3c4     sqlite3.obj
 0001:0005e400       _selectOpName              1005f400 f   sqlite3.obj
 0001:0005e470       _selectPopWith             1005f470 f   sqlite3.obj
 0001:0005e4f0       _serialGet                 1005f4f0 f   sqlite3.obj
 0001:0005e67c       $LN9                       1005f67c     sqlite3.obj
 0001:0005e684       $LN8                       1005f684     sqlite3.obj
 0001:0005e690       $LN7                       1005f690     sqlite3.obj
 0001:0005e6a0       _setAllPagerFlags          1005f6a0 f   sqlite3.obj
 0001:0005e770       _setChildPtrmaps           1005f770 f   sqlite3.obj
 0001:0005e8f4       $LN13                      1005f8f4     sqlite3.obj
 0001:0005e8fc       $LN12                      1005f8fc     sqlite3.obj
 0001:0005e908       $LN11                      1005f908     sqlite3.obj
 0001:0005e910       _setDateTimeToCurrent      1005f910 f   sqlite3.obj
 0001:0005e990       _setDestPgsz               1005f990 f   sqlite3.obj
 0001:0005e9f0       _setGetterMethod           1005f9f0 f   sqlite3.obj
 0001:0005ea60       _setJoinExpr               1005fa60 f   sqlite3.obj
 0001:0005eb30       _setLikeOptFlag            1005fb30 f   sqlite3.obj
 0001:0005eba0       _setPageReferenced         1005fba0 f   sqlite3.obj
 0001:0005ec00       _setPragmaResultColumnNames 1005fc00 f   sqlite3.obj
 0001:0005ece0       _setRawDateNumber          1005fce0 f   sqlite3.obj
 0001:0005ed70       _setResultStrOrError       1005fd70 f   sqlite3.obj
 0001:0005ede0       _setSectorSize             1005fde0 f   sqlite3.obj
 0001:0005ee60       _setSharedCacheTableLock   1005fe60 f   sqlite3.obj
 0001:0005ef40       _setStrAccumError          1005ff40 f   sqlite3.obj
 0001:0005ef80       _setupLookaside            1005ff80 f   sqlite3.obj
 0001:0005f190       _spanBinaryExpr            10060190 f   sqlite3.obj
 0001:0005f1f0       _spanExpr                  100601f0 f   sqlite3.obj
 0001:0005f330       _spanSet                   10060330 f   sqlite3.obj
 0001:0005f380       _spanUnaryPostfix          10060380 f   sqlite3.obj
 0001:0005f3e0       _spanUnaryPrefix           100603e0 f   sqlite3.obj
 0001:0005f450       _sqlite3AbsInt32           10060450 f   sqlite3.obj
 0001:0005f4a0       _sqlite3AddCheckConstraint 100604a0 f   sqlite3.obj
 0001:0005f580       _sqlite3AddCollateType     10060580 f   sqlite3.obj
 0001:0005f6b0       _sqlite3AddColumn          100606b0 f   sqlite3.obj
 0001:0005f930       _sqlite3AddDefaultValue    10060930 f   sqlite3.obj
 0001:0005fa8c       $LN8                       10060a8c     sqlite3.obj
 0001:0005fa94       $LN7                       10060a94     sqlite3.obj
 0001:0005faa0       $LN6                       10060aa0     sqlite3.obj
 0001:0005fab0       _sqlite3AddInt64           10060ab0 f   sqlite3.obj
 0001:0005fbd0       _sqlite3AddNotNull         10060bd0 f   sqlite3.obj
 0001:0005fc50       _sqlite3AddPrimaryKey      10060c50 f   sqlite3.obj
 0001:0005fec0       _sqlite3AffinityType       10060ec0 f   sqlite3.obj
 0001:000600ec       $LN32                      100610ec     sqlite3.obj
 0001:000600f4       $LN31                      100610f4     sqlite3.obj
 0001:00060100       $LN30                      10061100     sqlite3.obj
 0001:00060110       _sqlite3AllocateIndexObject 10061110 f   sqlite3.obj
 0001:00060220       _sqlite3AlterBeginAddColumn 10061220 f   sqlite3.obj
 0001:000604b0       _sqlite3AlterFinishAddColumn 100614b0 f   sqlite3.obj
 0001:00060898       $LN20                      10061898     sqlite3.obj
 0001:000608a0       $LN19                      100618a0     sqlite3.obj
 0001:000608ac       $LN18                      100618ac     sqlite3.obj
 0001:000608c0       _sqlite3AlterFunctions     100618c0 f   sqlite3.obj
 0001:00060910       _sqlite3AlterRenameTable   10061910 f   sqlite3.obj
 0001:00060dc0       _sqlite3AnalysisLoad       10061dc0 f   sqlite3.obj
 0001:00060f74       $LN19                      10061f74     sqlite3.obj
 0001:00060f7c       $LN18                      10061f7c     sqlite3.obj
 0001:00060f88       $LN17                      10061f88     sqlite3.obj
 0001:00060f90       _sqlite3Analyze            10061f90 f   sqlite3.obj
 0001:00061198       $LN22                      10062198     sqlite3.obj
 0001:000611a0       $LN21                      100621a0     sqlite3.obj
 0001:000611ac       $LN20                      100621ac     sqlite3.obj
 0001:000611c0       _sqlite3ApiExit            100621c0 f   sqlite3.obj
 0001:00061220       _sqlite3AppendChar         10062220 f   sqlite3.obj
 0001:00061320       _sqlite3ArrayAllocate      10062320 f   sqlite3.obj
 0001:00061400       _sqlite3AtoF               10062400 f   sqlite3.obj
 0001:00061af0       _sqlite3Atoi               10062af0 f   sqlite3.obj
 0001:00061b68       $LN6                       10062b68     sqlite3.obj
 0001:00061b70       $LN5                       10062b70     sqlite3.obj
 0001:00061b7c       $LN4                       10062b7c     sqlite3.obj
 0001:00061b80       _sqlite3Atoi64             10062b80 f   sqlite3.obj
 0001:00061e70       _sqlite3Attach             10062e70 f   sqlite3.obj
 0001:00061ed0       _sqlite3AuthCheck          10062ed0 f   sqlite3.obj
 0001:00061fd0       _sqlite3AuthContextPop     10062fd0 f   sqlite3.obj
 0001:00062020       _sqlite3AuthContextPush    10063020 f   sqlite3.obj
 0001:00062070       _sqlite3AuthRead           10063070 f   sqlite3.obj
 0001:000621c0       _sqlite3AuthReadCol        100631c0 f   sqlite3.obj
 0001:000622e0       _sqlite3AutoLoadExtensions 100632e0 f   sqlite3.obj
 0001:00062420       $LN12                      10063420     sqlite3.obj
 0001:00062428       $LN11                      10063428     sqlite3.obj
 0001:00062434       $LN10                      10063434     sqlite3.obj
 0001:00062440       _sqlite3AutoincrementBegin 10063440 f   sqlite3.obj
 0001:000625e0       _sqlite3AutoincrementEnd   100635e0 f   sqlite3.obj
 0001:00062630       _sqlite3BackupRestart      10063630 f   sqlite3.obj
 0001:00062680       _sqlite3BackupUpdate       10063680 f   sqlite3.obj
 0001:000626d0       _sqlite3BeginBenignMalloc  100636d0 f   sqlite3.obj
 0001:00062720       _sqlite3BeginTransaction   10063720 f   sqlite3.obj
 0001:00062810       _sqlite3BeginTrigger       10063810 f   sqlite3.obj
 0001:00062d84       $LN43                      10063d84     sqlite3.obj
 0001:00062d8c       $LN42                      10063d8c     sqlite3.obj
 0001:00062da4       $LN41                      10063da4     sqlite3.obj
 0001:00062da9       $LN40                      10063da9     sqlite3.obj
 0001:00062db0       _sqlite3BeginWriteOperation 10063db0 f   sqlite3.obj
 0001:00062e50       _sqlite3BenignMallocHooks  10063e50 f   sqlite3.obj
 0001:00062e90       _sqlite3BinaryCompareCollSeq 10063e90 f   sqlite3.obj
 0001:00062f40       _sqlite3BitvecBuiltinTest  10063f40 f   sqlite3.obj
 0001:00063284       $LN24                      10064284     sqlite3.obj
 0001:0006328c       $LN23                      1006428c     sqlite3.obj
 0001:00063298       $LN22                      10064298     sqlite3.obj
 0001:000632a0       _sqlite3BitvecClear        100642a0 f   sqlite3.obj
 0001:00063440       _sqlite3BitvecCreate       10064440 f   sqlite3.obj
 0001:000634a0       _sqlite3BitvecDestroy      100644a0 f   sqlite3.obj
 0001:00063520       _sqlite3BitvecSet          10064520 f   sqlite3.obj
 0001:000637a0       _sqlite3BitvecSize         100647a0 f   sqlite3.obj
 0001:000637d0       _sqlite3BitvecTest         100647d0 f   sqlite3.obj
 0001:00063840       _sqlite3BitvecTestNotNull  10064840 f   sqlite3.obj
 0001:00063960       _sqlite3BlobCompare        10064960 f   sqlite3.obj
 0001:00063aa0       _sqlite3BtreeBeginStmt     10064aa0 f   sqlite3.obj
 0001:00063b10       _sqlite3BtreeBeginTrans    10064b10 f   sqlite3.obj
 0001:00063eb0       _sqlite3BtreeCheckpoint    10064eb0 f   sqlite3.obj
 0001:00063f50       _sqlite3BtreeClearCursor   10064f50 f   sqlite3.obj
 0001:00063fb0       _sqlite3BtreeClearTable    10064fb0 f   sqlite3.obj
 0001:00064050       _sqlite3BtreeClearTableOfCursor 10065050 f   sqlite3.obj
 0001:000640a0       _sqlite3BtreeClose         100650a0 f   sqlite3.obj
 0001:00064200       _sqlite3BtreeCloseCursor   10065200 f   sqlite3.obj
 0001:000642f0       _sqlite3BtreeCommit        100652f0 f   sqlite3.obj
 0001:00064370       _sqlite3BtreeCommitPhaseOne 10065370 f   sqlite3.obj
 0001:00064450       _sqlite3BtreeCommitPhaseTwo 10065450 f   sqlite3.obj
 0001:00064520       _sqlite3BtreeConnectionCount 10065520 f   sqlite3.obj
 0001:00064550       _sqlite3BtreeCopyFile      10065550 f   sqlite3.obj
 0001:000646d4       $LN11                      100656d4     sqlite3.obj
 0001:000646dc       $LN10                      100656dc     sqlite3.obj
 0001:000646f4       $LN9                       100656f4     sqlite3.obj
 0001:000646fa       $LN8                       100656fa     sqlite3.obj
 0001:00064700       _sqlite3BtreeCount         10065700 f   sqlite3.obj
 0001:000648a0       _sqlite3BtreeCreateTable   100658a0 f   sqlite3.obj
 0001:00064910       _sqlite3BtreeCursor        10065910 f   sqlite3.obj
 0001:000649a0       _sqlite3BtreeCursorHasHint 100659a0 f   sqlite3.obj
 0001:000649f0       _sqlite3BtreeCursorHasMoved 100659f0 f   sqlite3.obj
 0001:00064a40       _sqlite3BtreeCursorHintFlags 10065a40 f   sqlite3.obj
 0001:00064a70       _sqlite3BtreeCursorIsValidNN 10065a70 f   sqlite3.obj
 0001:00064ac0       _sqlite3BtreeCursorRestore 10065ac0 f   sqlite3.obj
 0001:00064b60       _sqlite3BtreeCursorSize    10065b60 f   sqlite3.obj
 0001:00064b90       _sqlite3BtreeCursorZero    10065b90 f   sqlite3.obj
 0001:00064be0       _sqlite3BtreeDelete        10065be0 f   sqlite3.obj
 0001:00065090       $LN34                      10066090     sqlite3.obj
 0001:00065098       $LN33                      10066098     sqlite3.obj
 0001:000650b0       $LN32                      100660b0     sqlite3.obj
 0001:000650b5       $LN31                      100660b5     sqlite3.obj
 0001:000650c0       _sqlite3BtreeDropTable     100660c0 f   sqlite3.obj
 0001:00065130       _sqlite3BtreeEnter         10066130 f   sqlite3.obj
 0001:000651a0       _sqlite3BtreeEnterAll      100661a0 f   sqlite3.obj
 0001:000651f0       _sqlite3BtreeEnterCursor   100661f0 f   sqlite3.obj
 0001:00065240       _sqlite3BtreeEof           10066240 f   sqlite3.obj
 0001:00065290       _sqlite3BtreeFakeValidCursor 10066290 f   sqlite3.obj
 0001:000652c0       _sqlite3BtreeFirst         100662c0 f   sqlite3.obj
 0001:00065340       _sqlite3BtreeGetAutoVacuum 10066340 f   sqlite3.obj
 0001:00065420       _sqlite3BtreeGetFilename   10066420 f   sqlite3.obj
 0001:00065470       _sqlite3BtreeGetJournalname 10066470 f   sqlite3.obj
 0001:000654c0       _sqlite3BtreeGetMeta       100664c0 f   sqlite3.obj
 0001:00065560       _sqlite3BtreeGetOptimalReserve 10066560 f   sqlite3.obj
 0001:000655c0       _sqlite3BtreeGetPageSize   100665c0 f   sqlite3.obj
 0001:000655f0       _sqlite3BtreeGetReserveNoMutex 100665f0 f   sqlite3.obj
 0001:00065630       _sqlite3BtreeIncrVacuum    10066630 f   sqlite3.obj
 0001:00065790       _sqlite3BtreeIncrblobCursor 10066790 f   sqlite3.obj
 0001:000657d0       _sqlite3BtreeInsert        100667d0 f   sqlite3.obj
 0001:00065cf4       $LN44                      10066cf4     sqlite3.obj
 0001:00065cfc       $LN43                      10066cfc     sqlite3.obj
 0001:00065d38       $LN42                      10066d38     sqlite3.obj
 0001:00065d3d       $LN41                      10066d3d     sqlite3.obj
 0001:00065d3f       $LN40                      10066d3f     sqlite3.obj
 0001:00065d45       $LN39                      10066d45     sqlite3.obj
 0001:00065d49       $LN38                      10066d49     sqlite3.obj
 0001:00065d50       _sqlite3BtreeIntegerKey    10066d50 f   sqlite3.obj
 0001:00065da0       _sqlite3BtreeIntegrityCheck 10066da0 f   sqlite3.obj
 0001:00066130       $LN24                      10067130     sqlite3.obj
 0001:00066138       $LN23                      10067138     sqlite3.obj
 0001:0006615c       $LN22                      1006715c     sqlite3.obj
 0001:00066164       $LN21                      10067164     sqlite3.obj
 0001:00066169       $LN20                      10067169     sqlite3.obj
 0001:00066170       _sqlite3BtreeIsInBackup    10067170 f   sqlite3.obj
 0001:000661c0       _sqlite3BtreeIsInReadTrans 100671c0 f   sqlite3.obj
 0001:00066210       _sqlite3BtreeIsInTrans     10067210 f   sqlite3.obj
 0001:00066270       _sqlite3BtreeIsReadonly    10067270 f   sqlite3.obj
 0001:000662c0       _sqlite3BtreeLast          100672c0 f   sqlite3.obj
 0001:00066380       _sqlite3BtreeLastPage      10067380 f   sqlite3.obj
 0001:000663d0       _sqlite3BtreeLeave         100673d0 f   sqlite3.obj
 0001:00066440       _sqlite3BtreeLeaveAll      10067440 f   sqlite3.obj
 0001:00066490       _sqlite3BtreeLeaveCursor   10067490 f   sqlite3.obj
 0001:000664e0       _sqlite3BtreeLockTable     100674e0 f   sqlite3.obj
 0001:00066580       _sqlite3BtreeMaxPageCount  10067580 f   sqlite3.obj
 0001:000665f0       _sqlite3BtreeMovetoUnpacked 100675f0 f   sqlite3.obj
 0001:00066cf8       $LN64                      10067cf8     sqlite3.obj
 0001:00066d00       $LN63                      10067d00     sqlite3.obj
 0001:00066d0c       $LN62                      10067d0c     sqlite3.obj
 0001:00066d20       _sqlite3BtreeNewDb         10067d20 f   sqlite3.obj
 0001:00066d90       _sqlite3BtreeNext          10067d90 f   sqlite3.obj
 0001:00066e70       _sqlite3BtreeOpen          10067e70 f   sqlite3.obj
 0001:0006777c       $LN67                      1006877c     sqlite3.obj
 0001:00067784       $LN66                      10068784     sqlite3.obj
 0001:00067790       $LN65                      10068790     sqlite3.obj
 0001:000677a0       _sqlite3BtreePager         100687a0 f   sqlite3.obj
 0001:000677d0       _sqlite3BtreePayload       100687d0 f   sqlite3.obj
 0001:00067820       _sqlite3BtreePayloadChecked 10068820 f   sqlite3.obj
 0001:000678a0       _sqlite3BtreePayloadFetch  100688a0 f   sqlite3.obj
 0001:000678f0       _sqlite3BtreePayloadSize   100688f0 f   sqlite3.obj
 0001:00067940       _sqlite3BtreePrevious      10068940 f   sqlite3.obj
 0001:000679e0       _sqlite3BtreePutData       100689e0 f   sqlite3.obj
 0001:00067ab0       _sqlite3BtreeRollback      10068ab0 f   sqlite3.obj
 0001:00067c30       $LN15                      10068c30     sqlite3.obj
 0001:00067c38       $LN14                      10068c38     sqlite3.obj
 0001:00067c50       $LN13                      10068c50     sqlite3.obj
 0001:00067c56       $LN12                      10068c56     sqlite3.obj
 0001:00067c60       _sqlite3BtreeRowCountEst   10068c60 f   sqlite3.obj
 0001:00067d20       _sqlite3BtreeSavepoint     10068d20 f   sqlite3.obj
 0001:00067e20       _sqlite3BtreeSchema        10068e20 f   sqlite3.obj
 0001:00067eb0       _sqlite3BtreeSchemaLocked  10068eb0 f   sqlite3.obj
 0001:00067f10       _sqlite3BtreeSecureDelete  10068f10 f   sqlite3.obj
 0001:00067fc0       _sqlite3BtreeSetAutoVacuum 10068fc0 f   sqlite3.obj
 0001:000680c0       _sqlite3BtreeSetCacheSize  100690c0 f   sqlite3.obj
 0001:00068130       _sqlite3BtreeSetMmapLimit  10069130 f   sqlite3.obj
 0001:000681a0       _sqlite3BtreeSetPageSize   100691a0 f   sqlite3.obj
 0001:000682b0       _sqlite3BtreeSetPagerFlags 100692b0 f   sqlite3.obj
 0001:00068320       _sqlite3BtreeSetSpillSize  10069320 f   sqlite3.obj
 0001:00068390       _sqlite3BtreeSetVersion    10069390 f   sqlite3.obj
 0001:000684b0       _sqlite3BtreeSharable      100694b0 f   sqlite3.obj
 0001:000684e0       _sqlite3BtreeTripAllCursors 100694e0 f   sqlite3.obj
 0001:000685e0       _sqlite3BtreeUpdateMeta    100695e0 f   sqlite3.obj
 0001:00068690       _sqlite3CantopenError      10069690 f   sqlite3.obj
 0001:000686e0       _sqlite3ChangeCookie       100696e0 f   sqlite3.obj
 0001:00068750       _sqlite3CheckCollSeq       10069750 f   sqlite3.obj
 0001:000687d0       _sqlite3CheckObjectName    100697d0 f   sqlite3.obj
 0001:00068860       _sqlite3Checkpoint         10069860 f   sqlite3.obj
 0001:00068950       _sqlite3ClearStatTables    10069950 f   sqlite3.obj
 0001:00068a28       $LN9                       10069a28     sqlite3.obj
 0001:00068a30       $LN8                       10069a30     sqlite3.obj
 0001:00068a3c       $LN7                       10069a3c     sqlite3.obj
 0001:00068a50       _sqlite3ClearTempRegCache  10069a50 f   sqlite3.obj
 0001:00068a90       _sqlite3Close              10069a90 f   sqlite3.obj
 0001:00068bb0       _sqlite3CloseExtensions    10069bb0 f   sqlite3.obj
 0001:00068c40       _sqlite3CloseSavepoints    10069c40 f   sqlite3.obj
 0001:00068cd0       _sqlite3CodeDropTable      10069cd0 f   sqlite3.obj
 0001:00068e60       _sqlite3CodeRowTrigger     10069e60 f   sqlite3.obj
 0001:00068f00       _sqlite3CodeRowTriggerDirect 10069f00 f   sqlite3.obj
 0001:00069000       _sqlite3CodeSubselect      1006a000 f   sqlite3.obj
 0001:00069794       $LN50                      1006a794     sqlite3.obj
 0001:0006979c       $LN49                      1006a79c     sqlite3.obj
 0001:000697cc       $LN48                      1006a7cc     sqlite3.obj
 0001:000697d1       $LN47                      1006a7d1     sqlite3.obj
 0001:000697db       $LN46                      1006a7db     sqlite3.obj
 0001:000697e4       $LN45                      1006a7e4     sqlite3.obj
 0001:000697f0       _sqlite3CodeVerifyNamedSchema 1006a7f0 f   sqlite3.obj
 0001:00069890       _sqlite3CodeVerifySchema   1006a890 f   sqlite3.obj
 0001:00069950       _sqlite3CollapseDatabaseArray 1006a950 f   sqlite3.obj
 0001:00069a80       _sqlite3ColumnDefault      1006aa80 f   sqlite3.obj
 0001:00069b78       $LN8                       1006ab78     sqlite3.obj
 0001:00069b80       $LN7                       1006ab80     sqlite3.obj
 0001:00069b8c       $LN6                       1006ab8c     sqlite3.obj
 0001:00069ba0       _sqlite3ColumnOfIndex      1006aba0 f   sqlite3.obj
 0001:00069c10       _sqlite3ColumnType         1006ac10 f   sqlite3.obj
 0001:00069c70       _sqlite3ColumnsFromExprList 1006ac70 f   sqlite3.obj
 0001:0006a044       $LN39                      1006b044     sqlite3.obj
 0001:0006a04c       $LN38                      1006b04c     sqlite3.obj
 0001:0006a064       $LN37                      1006b064     sqlite3.obj
 0001:0006a067       $LN36                      1006b067     sqlite3.obj
 0001:0006a070       _sqlite3CommitInternalChanges 1006b070 f   sqlite3.obj
 0001:0006a0b0       _sqlite3CompareAffinity    1006b0b0 f   sqlite3.obj
 0001:0006a140       _sqlite3CompileOptions     1006b140 f   sqlite3.obj
 0001:0006a180       _sqlite3CompleteInsertion  1006b180 f   sqlite3.obj
 0001:0006a430       _sqlite3CorruptError       1006b430 f   sqlite3.obj
 0001:0006a480       _sqlite3CreateColumnExpr   1006b480 f   sqlite3.obj
 0001:0006a570       _sqlite3CreateForeignKey   1006b570 f   sqlite3.obj
 0001:0006a960       _sqlite3CreateFunc         1006b960 f   sqlite3.obj
 0001:0006abe0       _sqlite3CreateIndex        1006bbe0 f   sqlite3.obj
 0001:0006bd24       $LN126                     1006cd24     sqlite3.obj
 0001:0006bd2c       $LN125                     1006cd2c     sqlite3.obj
 0001:0006bd5c       $LN124                     1006cd5c     sqlite3.obj
 0001:0006bd64       $LN123                     1006cd64     sqlite3.obj
 0001:0006bd6b       $LN122                     1006cd6b     sqlite3.obj
 0001:0006bd71       $LN121                     1006cd71     sqlite3.obj
 0001:0006bd80       _sqlite3CreateView         1006cd80 f   sqlite3.obj
 0001:0006bfa8       $LN15                      1006cfa8     sqlite3.obj
 0001:0006bfb0       $LN14                      1006cfb0     sqlite3.obj
 0001:0006bfd4       $LN13                      1006cfd4     sqlite3.obj
 0001:0006bfda       $LN12                      1006cfda     sqlite3.obj
 0001:0006bfdf       $LN11                      1006cfdf     sqlite3.obj
 0001:0006bff0       _sqlite3DbFree             1006cff0 f   sqlite3.obj
 0001:0006c040       _sqlite3DbFreeNN           1006d040 f   sqlite3.obj
 0001:0006c0e0       _sqlite3DbMallocRaw        1006d0e0 f   sqlite3.obj
 0001:0006c150       _sqlite3DbMallocRawNN      1006d150 f   sqlite3.obj
 0001:0006c2e0       _sqlite3DbMallocSize       1006d2e0 f   sqlite3.obj
 0001:0006c350       _sqlite3DbMallocZero       1006d350 f   sqlite3.obj
 0001:0006c3c0       _sqlite3DbNameToBtree      1006d3c0 f   sqlite3.obj
 0001:0006c460       _sqlite3DbRealloc          1006d460 f   sqlite3.obj
 0001:0006c510       _sqlite3DbReallocOrFree    1006d510 f   sqlite3.obj
 0001:0006c580       _sqlite3DbStrDup           1006d580 f   sqlite3.obj
 0001:0006c610       _sqlite3DbStrNDup          1006d610 f   sqlite3.obj
 0001:0006c6a0       _sqlite3DecOrHexToI64      1006d6a0 f   sqlite3.obj
 0001:0006c82c       $LN16                      1006d82c     sqlite3.obj
 0001:0006c834       $LN15                      1006d834     sqlite3.obj
 0001:0006c840       $LN14                      1006d840     sqlite3.obj
 0001:0006c850       _sqlite3DefaultMutex       1006d850 f   sqlite3.obj
 0001:0006c880       _sqlite3DefaultRowEst      1006d880 f   sqlite3.obj
 0001:0006ca10       $LN13                      1006da10     sqlite3.obj
 0001:0006ca18       $LN12                      1006da18     sqlite3.obj
 0001:0006ca24       $LN11                      1006da24     sqlite3.obj
 0001:0006ca30       _sqlite3DeferForeignKey    1006da30 f   sqlite3.obj
 0001:0006ca90       _sqlite3DeleteColumnNames  1006da90 f   sqlite3.obj
 0001:0006cb50       _sqlite3DeleteFrom         1006db50 f   sqlite3.obj
 0001:0006d808       $LN80                      1006e808     sqlite3.obj
 0001:0006d810       $LN79                      1006e810     sqlite3.obj
 0001:0006d84c       $LN78                      1006e84c     sqlite3.obj
 0001:0006d859       $LN77                      1006e859     sqlite3.obj
 0001:0006d85d       $LN76                      1006e85d     sqlite3.obj
 0001:0006d866       $LN75                      1006e866     sqlite3.obj
 0001:0006d86e       $LN74                      1006e86e     sqlite3.obj
 0001:0006d880       _sqlite3DeleteIndexSamples 1006e880 f   sqlite3.obj
 0001:0006d8b0       _sqlite3DeleteTable        1006e8b0 f   sqlite3.obj
 0001:0006d940       _sqlite3DeleteTrigger      1006e940 f   sqlite3.obj
 0001:0006d9f0       _sqlite3DeleteTriggerStep  1006e9f0 f   sqlite3.obj
 0001:0006daa0       _sqlite3Dequote            1006eaa0 f   sqlite3.obj
 0001:0006db90       _sqlite3Detach             1006eb90 f   sqlite3.obj
 0001:0006dbf0       _sqlite3DropIndex          1006ebf0 f   sqlite3.obj
 0001:0006de80       _sqlite3DropTable          1006ee80 f   sqlite3.obj
 0001:0006e1e0       _sqlite3DropTrigger        1006f1e0 f   sqlite3.obj
 0001:0006e370       _sqlite3DropTriggerPtr     1006f370 f   sqlite3.obj
 0001:0006e4e0       _sqlite3EndBenignMalloc    1006f4e0 f   sqlite3.obj
 0001:0006e530       _sqlite3EndTable           1006f530 f   sqlite3.obj
 0001:0006ebf8       $LN35                      1006fbf8     sqlite3.obj
 0001:0006ec00       $LN34                      1006fc00     sqlite3.obj
 0001:0006ec0c       $LN33                      1006fc0c     sqlite3.obj
 0001:0006ec20       _sqlite3EndTransaction     1006fc20 f   sqlite3.obj
 0001:0006ece0       _sqlite3ErrStr             1006fce0 f   sqlite3.obj
 0001:0006ed60       _sqlite3Error              1006fd60 f   sqlite3.obj
 0001:0006edc0       _sqlite3ErrorFinish        1006fdc0 f   sqlite3.obj
 0001:0006ee20       _sqlite3ErrorMsg           1006fe20 f   sqlite3.obj
 0001:0006eed0       _sqlite3ErrorWithMsg       1006fed0 f   sqlite3.obj
 0001:0006efb0       _sqlite3ExpirePreparedStatements 1006ffb0 f   sqlite3.obj
 0001:0006f010       _sqlite3Expr               10070010 f   sqlite3.obj
 0001:0006f094       $LN5                       10070094     sqlite3.obj
 0001:0006f09c       $LN4                       1007009c     sqlite3.obj
 0001:0006f0a8       $LN3                       100700a8     sqlite3.obj
 0001:0006f0b0       _sqlite3ExprAddCollateString 100700b0 f   sqlite3.obj
 0001:0006f130       $LN5                       10070130     sqlite3.obj
 0001:0006f138       $LN4                       10070138     sqlite3.obj
 0001:0006f144       $LN3                       10070144     sqlite3.obj
 0001:0006f150       _sqlite3ExprAddCollateToken 10070150 f   sqlite3.obj
 0001:0006f1d0       _sqlite3ExprAffinity       100701d0 f   sqlite3.obj
 0001:0006f2f0       _sqlite3ExprAlloc          100702f0 f   sqlite3.obj
 0001:0006f4b4       $LN15                      100704b4     sqlite3.obj
 0001:0006f4bc       $LN14                      100704bc     sqlite3.obj
 0001:0006f4c8       $LN13                      100704c8     sqlite3.obj
 0001:0006f4d0       _sqlite3ExprAnalyzeAggList 100704d0 f   sqlite3.obj
 0001:0006f550       _sqlite3ExprAnalyzeAggregates 10070550 f   sqlite3.obj
 0001:0006f5dc       $LN5                       100705dc     sqlite3.obj
 0001:0006f5e4       $LN4                       100705e4     sqlite3.obj
 0001:0006f5f0       $LN3                       100705f0     sqlite3.obj
 0001:0006f600       _sqlite3ExprAnd            10070600 f   sqlite3.obj
 0001:0006f6f0       _sqlite3ExprAssignVarNumber 100706f0 f   sqlite3.obj
 0001:0006f9bc       $LN24                      100709bc     sqlite3.obj
 0001:0006f9c4       $LN23                      100709c4     sqlite3.obj
 0001:0006f9d0       $LN22                      100709d0     sqlite3.obj
 0001:0006f9e0       _sqlite3ExprAttachSubtrees 100709e0 f   sqlite3.obj
 0001:0006faa0       _sqlite3ExprCacheAffinityChange 10070aa0 f   sqlite3.obj
 0001:0006faf0       _sqlite3ExprCacheClear     10070af0 f   sqlite3.obj
 0001:0006fb90       _sqlite3ExprCachePinRegister 10070b90 f   sqlite3.obj
 0001:0006fc00       _sqlite3ExprCachePop       10070c00 f   sqlite3.obj
 0001:0006fc90       _sqlite3ExprCachePush      10070c90 f   sqlite3.obj
 0001:0006fcd0       _sqlite3ExprCacheRemove    10070cd0 f   sqlite3.obj
 0001:0006fd60       _sqlite3ExprCacheStore     10070d60 f   sqlite3.obj
 0001:0006fe80       _sqlite3ExprCanBeNull      10070e80 f   sqlite3.obj
 0001:0006ff84       $LN16                      10070f84     sqlite3.obj
 0001:0006ff90       $LN15                      10070f90     sqlite3.obj
 0001:0006ffd0       _sqlite3ExprCheckHeight    10070fd0 f   sqlite3.obj
 0001:00070050       _sqlite3ExprCheckIN        10071050 f   sqlite3.obj
 0001:00070100       _sqlite3ExprCode           10071100 f   sqlite3.obj
 0001:000701b0       _sqlite3ExprCodeAndCache   100711b0 f   sqlite3.obj
 0001:00070250       _sqlite3ExprCodeAtInit     10071250 f   sqlite3.obj
 0001:000703c0       _sqlite3ExprCodeCopy       100713c0 f   sqlite3.obj
 0001:00070440       _sqlite3ExprCodeExprList   10071440 f   sqlite3.obj
 0001:00070640       _sqlite3ExprCodeFactorable 10071640 f   sqlite3.obj
 0001:000706c0       _sqlite3ExprCodeGetColumn  100716c0 f   sqlite3.obj
 0001:000707e0       _sqlite3ExprCodeGetColumnOfTable 100717e0 f   sqlite3.obj
 0001:00070900       _sqlite3ExprCodeGetColumnToReg 10071900 f   sqlite3.obj
 0001:00070980       _sqlite3ExprCodeIN         10071980 f   sqlite3.obj
 0001:0007114c       $LN48                      1007214c     sqlite3.obj
 0001:00071154       $LN47                      10072154     sqlite3.obj
 0001:00071178       $LN46                      10072178     sqlite3.obj
 0001:00071182       $LN45                      10072182     sqlite3.obj
 0001:00071189       $LN44                      10072189     sqlite3.obj
 0001:000711a0       _sqlite3ExprCodeLoadIndexColumn 100721a0 f   sqlite3.obj
 0001:00071250       _sqlite3ExprCodeMove       10072250 f   sqlite3.obj
 0001:000712c0       _sqlite3ExprCodeTarget     100722c0 f   sqlite3.obj
 0001:000724e4       $LN109                     100734e4     sqlite3.obj
 0001:000724ec       $LN108                     100734ec     sqlite3.obj
 0001:0007251c       $LN107                     1007351c     sqlite3.obj
 0001:00072526       $LN106                     10073526     sqlite3.obj
 0001:0007252c       $LN105                     1007352c     sqlite3.obj
 0001:00072535       $LN104                     10073535     sqlite3.obj
 0001:00072540       $LN110                     10073540     sqlite3.obj
 0001:000725b0       $LN103                     100735b0     sqlite3.obj
 0001:00072640       _sqlite3ExprCodeTemp       10073640 f   sqlite3.obj
 0001:00072720       _sqlite3ExprCollSeq        10073720 f   sqlite3.obj
 0001:00072930       _sqlite3ExprCollSeqMatch   10073930 f   sqlite3.obj
 0001:000729c0       _sqlite3ExprCompare        100739c0 f   sqlite3.obj
 0001:00072cf0       _sqlite3ExprCompareSkip    10073cf0 f   sqlite3.obj
 0001:00072d50       _sqlite3ExprCoveredByIndex 10073d50 f   sqlite3.obj
 0001:00072e04       $LN8                       10073e04     sqlite3.obj
 0001:00072e0c       $LN7                       10073e0c     sqlite3.obj
 0001:00072e24       $LN6                       10073e24     sqlite3.obj
 0001:00072e29       $LN5                       10073e29     sqlite3.obj
 0001:00072e30       _sqlite3ExprDelete         10073e30 f   sqlite3.obj
 0001:00072e80       _sqlite3ExprDeleteNN       10073e80 f   sqlite3.obj
 0001:00072f80       _sqlite3ExprDup            10073f80 f   sqlite3.obj
 0001:00072ff0       _sqlite3ExprForVectorField 10073ff0 f   sqlite3.obj
 0001:000730a0       _sqlite3ExprFunction       100740a0 f   sqlite3.obj
 0001:00073130       _sqlite3ExprIfFalse        10074130 f   sqlite3.obj
 0001:000734f4       $LN31                      100744f4     sqlite3.obj
 0001:000734fc       $LN30                      100744fc     sqlite3.obj
 0001:00073514       $LN29                      10074514     sqlite3.obj
 0001:0007351d       $LN28                      1007451d     sqlite3.obj
 0001:00073528       $LN32                      10074528     sqlite3.obj
 0001:0007354c       $LN27                      1007454c     sqlite3.obj
 0001:000735d0       _sqlite3ExprIfFalseDup     100745d0 f   sqlite3.obj
 0001:00073660       _sqlite3ExprIfTrue         10074660 f   sqlite3.obj
 0001:00073a2c       $LN31                      10074a2c     sqlite3.obj
 0001:00073a34       $LN30                      10074a34     sqlite3.obj
 0001:00073a4c       $LN29                      10074a4c     sqlite3.obj
 0001:00073a55       $LN28                      10074a55     sqlite3.obj
 0001:00073a60       $LN32                      10074a60     sqlite3.obj
 0001:00073a84       $LN27                      10074a84     sqlite3.obj
 0001:00073b10       _sqlite3ExprImpliesExpr    10074b10 f   sqlite3.obj
 0001:00073c20       _sqlite3ExprIsConstant     10074c20 f   sqlite3.obj
 0001:00073c70       _sqlite3ExprIsConstantNotJoin 10074c70 f   sqlite3.obj
 0001:00073cc0       _sqlite3ExprIsConstantOrFunction 10074cc0 f   sqlite3.obj
 0001:00073d10       _sqlite3ExprIsConstantOrGroupBy 10074d10 f   sqlite3.obj
 0001:00073d9c       $LN5                       10074d9c     sqlite3.obj
 0001:00073da4       $LN4                       10074da4     sqlite3.obj
 0001:00073db0       $LN3                       10074db0     sqlite3.obj
 0001:00073dc0       _sqlite3ExprIsInteger      10074dc0 f   sqlite3.obj
 0001:00073eb0       $LN13                      10074eb0     sqlite3.obj
 0001:00073eb8       $LN12                      10074eb8     sqlite3.obj
 0001:00073ec4       $LN11                      10074ec4     sqlite3.obj
 0001:00073ed0       _sqlite3ExprIsTableConstant 10074ed0 f   sqlite3.obj
 0001:00073f20       _sqlite3ExprIsVector       10074f20 f   sqlite3.obj
 0001:00073f80       _sqlite3ExprListAppend     10074f80 f   sqlite3.obj
 0001:00074090       _sqlite3ExprListAppendVector 10075090 f   sqlite3.obj
 0001:00074240       _sqlite3ExprListCheckLength 10075240 f   sqlite3.obj
 0001:000742b0       _sqlite3ExprListCompare    100752b0 f   sqlite3.obj
 0001:000743b0       _sqlite3ExprListDelete     100753b0 f   sqlite3.obj
 0001:00074400       _sqlite3ExprListDup        10075400 f   sqlite3.obj
 0001:000745c0       _sqlite3ExprListFlags      100755c0 f   sqlite3.obj
 0001:00074630       _sqlite3ExprListSetName    10075630 f   sqlite3.obj
 0001:000746c0       _sqlite3ExprListSetSortOrder 100756c0 f   sqlite3.obj
 0001:00074710       _sqlite3ExprListSetSpan    10075710 f   sqlite3.obj
 0001:000747a0       _sqlite3ExprNNCollSeq      100757a0 f   sqlite3.obj
 0001:00074800       _sqlite3ExprNeedsNoAffinityChange 10075800 f   sqlite3.obj
 0001:00074984       $LN26                      10075984     sqlite3.obj
 0001:0007499c       $LN25                      1007599c     sqlite3.obj
 0001:000749d0       _sqlite3ExprSetHeightAndFlags 100759d0 f   sqlite3.obj
 0001:00074a30       _sqlite3ExprSkipCollate    10075a30 f   sqlite3.obj
 0001:00074aa0       _sqlite3ExprVectorSize     10075aa0 f   sqlite3.obj
 0001:00074b20       _sqlite3ExprWalkNoop       10075b20 f   sqlite3.obj
 0001:00074b50       _sqlite3FaultSim           10075b50 f   sqlite3.obj
 0001:00074bc0       _sqlite3FindCollSeq        10075bc0 f   sqlite3.obj
 0001:00074c40       _sqlite3FindDb             10075c40 f   sqlite3.obj
 0001:00074cb0       _sqlite3FindDbName         10075cb0 f   sqlite3.obj
 0001:00074d60       _sqlite3FindFunction       10075d60 f   sqlite3.obj
 0001:00074f90       _sqlite3FindInIndex        10075f90 f   sqlite3.obj
 0001:000757c0       _sqlite3FindIndex          100767c0 f   sqlite3.obj
 0001:000758b0       _sqlite3FindTable          100768b0 f   sqlite3.obj
 0001:000759e0       _sqlite3FinishCoding       100769e0 f   sqlite3.obj
 0001:00075ce0       _sqlite3FinishTrigger      10076ce0 f   sqlite3.obj
 0001:00075fc8       $LN18                      10076fc8     sqlite3.obj
 0001:00075fd0       $LN17                      10076fd0     sqlite3.obj
 0001:00075fe8       $LN16                      10076fe8     sqlite3.obj
 0001:00075ff2       $LN15                      10076ff2     sqlite3.obj
 0001:00076000       _sqlite3FixExpr            10077000 f   sqlite3.obj
 0001:00076120       _sqlite3FixExprList        10077120 f   sqlite3.obj
 0001:000761b0       _sqlite3FixInit            100771b0 f   sqlite3.obj
 0001:00076250       _sqlite3FixSelect          10077250 f   sqlite3.obj
 0001:000763a0       _sqlite3FixSrcList         100773a0 f   sqlite3.obj
 0001:000764f0       _sqlite3FixTriggerStep     100774f0 f   sqlite3.obj
 0001:00076590       _sqlite3FkActions          10077590 f   sqlite3.obj
 0001:00076660       _sqlite3FkCheck            10077660 f   sqlite3.obj
 0001:00076cf4       $LN51                      10077cf4     sqlite3.obj
 0001:00076cfc       $LN50                      10077cfc     sqlite3.obj
 0001:00076d38       $LN49                      10077d38     sqlite3.obj
 0001:00076d3e       $LN48                      10077d3e     sqlite3.obj
 0001:00076d43       $LN47                      10077d43     sqlite3.obj
 0001:00076d48       $LN46                      10077d48     sqlite3.obj
 0001:00076d4f       $LN45                      10077d4f     sqlite3.obj
 0001:00076d60       _sqlite3FkDelete           10077d60 f   sqlite3.obj
 0001:00076ea0       _sqlite3FkDropTable        10077ea0 f   sqlite3.obj
 0001:00077030       _sqlite3FkLocateIndex      10078030 f   sqlite3.obj
 0001:00077310       _sqlite3FkOldmask          10078310 f   sqlite3.obj
 0001:000774b0       $LN23                      100784b0     sqlite3.obj
 0001:000774b8       $LN22                      100784b8     sqlite3.obj
 0001:000774c4       $LN21                      100784c4     sqlite3.obj
 0001:000774d0       _sqlite3FkReferences       100784d0 f   sqlite3.obj
 0001:00077520       _sqlite3FkRequired         10078520 f   sqlite3.obj
 0001:00077680       _sqlite3FunctionUsesThisSrc 10078680 f   sqlite3.obj
 0001:0007773c       $LN8                       1007873c     sqlite3.obj
 0001:00077744       $LN7                       10078744     sqlite3.obj
 0001:0007775c       $LN6                       1007875c     sqlite3.obj
 0001:00077760       $LN5                       10078760     sqlite3.obj
 0001:00077770       _sqlite3GenerateConstraintChecks 10078770 f   sqlite3.obj
 0001:000784f4       $LN109                     100794f4     sqlite3.obj
 0001:00078504       $LN110                     10079504     sqlite3.obj
 0001:00078520       _sqlite3GenerateIndexKey   10079520 f   sqlite3.obj
 0001:00078720       _sqlite3GenerateRowDelete  10079720 f   sqlite3.obj
 0001:00078a80       _sqlite3GenerateRowIndexDelete 10079a80 f   sqlite3.obj
 0001:00078c08       $LN15                      10079c08     sqlite3.obj
 0001:00078c10       $LN14                      10079c10     sqlite3.obj
 0001:00078c1c       $LN13                      10079c1c     sqlite3.obj
 0001:00078c30       _sqlite3Get4byte           10079c30 f   sqlite3.obj
 0001:00078ca0       $LN5                       10079ca0     sqlite3.obj
 0001:00078ca8       $LN4                       10079ca8     sqlite3.obj
 0001:00078cb4       $LN3                       10079cb4     sqlite3.obj
 0001:00078cc0       _sqlite3GetBoolean         10079cc0 f   sqlite3.obj
 0001:00078d30       _sqlite3GetCollSeq         10079d30 f   sqlite3.obj
 0001:00078e20       _sqlite3GetFuncCollSeq     10079e20 f   sqlite3.obj
 0001:00078e70       _sqlite3GetInt32           10079e70 f   sqlite3.obj
 0001:00079140       $LN28                      1007a140     sqlite3.obj
 0001:00079148       $LN27                      1007a148     sqlite3.obj
 0001:00079154       $LN26                      1007a154     sqlite3.obj
 0001:00079160       _sqlite3GetTempRange       1007a160 f   sqlite3.obj
 0001:00079200       _sqlite3GetTempReg         1007a200 f   sqlite3.obj
 0001:00079280       _sqlite3GetToken           1007a280 f   sqlite3.obj
 0001:00079be8       $LN132                     1007abe8     sqlite3.obj
 0001:00079c60       _sqlite3GetVTable          1007ac60 f   sqlite3.obj
 0001:00079cb0       _sqlite3GetVarint          1007acb0 f   sqlite3.obj
 0001:0007a0a0       _sqlite3GetVarint32        1007b0a0 f   sqlite3.obj
 0001:0007a1f4       $LN10                      1007b1f4     sqlite3.obj
 0001:0007a1fc       $LN9                       1007b1fc     sqlite3.obj
 0001:0007a208       $LN8                       1007b208     sqlite3.obj
 0001:0007a210       _sqlite3GetVdbe            1007b210 f   sqlite3.obj
 0001:0007a280       _sqlite3HaltConstraint     1007b280 f   sqlite3.obj
 0001:0007a310       _sqlite3HashClear          1007b310 f   sqlite3.obj
 0001:0007a3b0       _sqlite3HashFind           1007b3b0 f   sqlite3.obj
 0001:0007a400       _sqlite3HashInit           1007b400 f   sqlite3.obj
 0001:0007a450       _sqlite3HashInsert         1007b450 f   sqlite3.obj
 0001:0007a5d8       $LN14                      1007b5d8     sqlite3.obj
 0001:0007a5e0       $LN13                      1007b5e0     sqlite3.obj
 0001:0007a5ec       $LN12                      1007b5ec     sqlite3.obj
 0001:0007a5f0       _sqlite3HeaderSizeBtree    1007b5f0 f   sqlite3.obj
 0001:0007a620       _sqlite3HeaderSizePcache   1007b620 f   sqlite3.obj
 0001:0007a650       _sqlite3HeaderSizePcache1  1007b650 f   sqlite3.obj
 0001:0007a680       _sqlite3HeapNearlyFull     1007b680 f   sqlite3.obj
 0001:0007a6b0       _sqlite3HexToBlob          1007b6b0 f   sqlite3.obj
 0001:0007a780       _sqlite3HexToInt           1007b780 f   sqlite3.obj
 0001:0007a7c0       _sqlite3IdListAppend       1007b7c0 f   sqlite3.obj
 0001:0007a898       $LN8                       1007b898     sqlite3.obj
 0001:0007a8a0       $LN7                       1007b8a0     sqlite3.obj
 0001:0007a8ac       $LN6                       1007b8ac     sqlite3.obj
 0001:0007a8b0       _sqlite3IdListDelete       1007b8b0 f   sqlite3.obj
 0001:0007a950       _sqlite3IdListDup          1007b950 f   sqlite3.obj
 0001:0007aa60       _sqlite3IdListIndex        1007ba60 f   sqlite3.obj
 0001:0007aae0       _sqlite3InRhsIsConstant    1007bae0 f   sqlite3.obj
 0001:0007ab40       _sqlite3IndexAffinityOk    1007bb40 f   sqlite3.obj
 0001:0007ac00       _sqlite3IndexAffinityStr   1007bc00 f   sqlite3.obj
 0001:0007ad40       _sqlite3IndexedByLookup    1007bd40 f   sqlite3.obj
 0001:0007ae10       _sqlite3Init               1007be10 f   sqlite3.obj
 0001:0007af30       _sqlite3InitCallback       1007bf30 f   sqlite3.obj
 0001:0007b230       $LN23                      1007c230     sqlite3.obj
 0001:0007b238       $LN22                      1007c238     sqlite3.obj
 0001:0007b244       $LN21                      1007c244     sqlite3.obj
 0001:0007b250       _sqlite3InitOne            1007c250 f   sqlite3.obj
 0001:0007b77c       $LN36                      1007c77c     sqlite3.obj
 0001:0007b784       $LN35                      1007c784     sqlite3.obj
 0001:0007b7a8       $LN34                      1007c7a8     sqlite3.obj
 0001:0007b7b1       $LN33                      1007c7b1     sqlite3.obj
 0001:0007b7b6       $LN32                      1007c7b6     sqlite3.obj
 0001:0007b7c0       _sqlite3Insert             1007c7c0 f   sqlite3.obj
 0001:0007cc44       $LN148                     1007dc44     sqlite3.obj
 0001:0007cc4c       $LN147                     1007dc4c     sqlite3.obj
 0001:0007cc94       $LN146                     1007dc94     sqlite3.obj
 0001:0007cc9e       $LN145                     1007dc9e     sqlite3.obj
 0001:0007cca2       $LN144                     1007dca2     sqlite3.obj
 0001:0007cca8       $LN143                     1007dca8     sqlite3.obj
 0001:0007ccad       $LN142                     1007dcad     sqlite3.obj
 0001:0007ccb5       $LN141                     1007dcb5     sqlite3.obj
 0001:0007ccc0       _sqlite3InsertBuiltinFuncs 1007dcc0 f   sqlite3.obj
 0001:0007cdc0       _sqlite3IntFloatCompare    1007ddc0 f   sqlite3.obj
 0001:0007cf10       _sqlite3InvalidFunction    1007df10 f   sqlite3.obj
 0001:0007cf80       _sqlite3InvokeBusyHandler  1007df80 f   sqlite3.obj
 0001:0007d020       _sqlite3IsIdChar           1007e020 f   sqlite3.obj
 0001:0007d080       _sqlite3IsLikeFunction     1007e080 f   sqlite3.obj
 0001:0007d1f0       _sqlite3IsNaN              1007e1f0 f   sqlite3.obj
 0001:0007d260       _sqlite3IsReadOnly         1007e260 f   sqlite3.obj
 0001:0007d330       _sqlite3IsRowid            1007e330 f   sqlite3.obj
 0001:0007d3c0       _sqlite3JoinType           1007e3c0 f   sqlite3.obj
 0001:0007d56c       $LN18                      1007e56c     sqlite3.obj
 0001:0007d574       $LN17                      1007e574     sqlite3.obj
 0001:0007d580       $LN16                      1007e580     sqlite3.obj
 0001:0007d590       _sqlite3JournalIsInMemory  1007e590 f   sqlite3.obj
 0001:0007d5e0       _sqlite3JournalModename    1007e5e0 f   sqlite3.obj
 0001:0007d620       _sqlite3JournalOpen        1007e620 f   sqlite3.obj
 0001:0007d6e0       _sqlite3JournalSize        1007e6e0 f   sqlite3.obj
 0001:0007d730       _sqlite3KeyInfoAlloc       1007e730 f   sqlite3.obj
 0001:0007d810       _sqlite3KeyInfoOfIndex     1007e810 f   sqlite3.obj
 0001:0007d950       _sqlite3KeyInfoRef         1007e950 f   sqlite3.obj
 0001:0007d990       _sqlite3KeyInfoUnref       1007e990 f   sqlite3.obj
 0001:0007d9f0       _sqlite3KeywordCode        1007e9f0 f   sqlite3.obj
 0001:0007da68       $LN5                       1007ea68     sqlite3.obj
 0001:0007da70       $LN4                       1007ea70     sqlite3.obj
 0001:0007da7c       $LN3                       1007ea7c     sqlite3.obj
 0001:0007da80       _sqlite3LeaveMutexAndCloseZombie 1007ea80 f   sqlite3.obj
 0001:0007ddd0       _sqlite3LoadExtension      1007edd0 f   sqlite3.obj
 0001:0007e340       $LN35                      1007f340     sqlite3.obj
 0001:0007e348       $LN34                      1007f348     sqlite3.obj
 0001:0007e354       $LN33                      1007f354     sqlite3.obj
 0001:0007e360       _sqlite3LocateCollSeq      1007f360 f   sqlite3.obj
 0001:0007e410       _sqlite3LocateTable        1007f410 f   sqlite3.obj
 0001:0007e580       _sqlite3LocateTableItem    1007f580 f   sqlite3.obj
 0001:0007e610       _sqlite3LockAndPrepare     1007f610 f   sqlite3.obj
 0001:0007e720       _sqlite3LogEst             1007f720 f   sqlite3.obj
 0001:0007e830       _sqlite3LogEstAdd          1007f830 f   sqlite3.obj
 0001:0007e8f0       _sqlite3LogEstFromDouble   1007f8f0 f   sqlite3.obj
 0001:0007e9b4       $LN7                       1007f9b4     sqlite3.obj
 0001:0007e9bc       $LN6                       1007f9bc     sqlite3.obj
 0001:0007e9c8       $LN5                       1007f9c8     sqlite3.obj
 0001:0007e9d0       _sqlite3LookasideUsed      1007f9d0 f   sqlite3.obj
 0001:0007ea60       _sqlite3MPrintf            1007fa60 f   sqlite3.obj
 0001:0007eac0       _sqlite3Malloc             1007fac0 f   sqlite3.obj
 0001:0007eb8c       $LN11                      1007fb8c     sqlite3.obj
 0001:0007eb94       $LN10                      1007fb94     sqlite3.obj
 0001:0007eba0       $LN9                       1007fba0     sqlite3.obj
 0001:0007ebb0       _sqlite3MallocAlarm        1007fbb0 f   sqlite3.obj
 0001:0007ec20       _sqlite3MallocEnd          1007fc20 f   sqlite3.obj
 0001:0007ec90       _sqlite3MallocInit         1007fc90 f   sqlite3.obj
 0001:0007ed60       _sqlite3MallocMutex        1007fd60 f   sqlite3.obj
 0001:0007ed90       _sqlite3MallocSize         1007fd90 f   sqlite3.obj
 0001:0007ede0       _sqlite3MallocZero         1007fde0 f   sqlite3.obj
 0001:0007ee40       _sqlite3MatchSpanName      1007fe40 f   sqlite3.obj
 0001:0007ef70       _sqlite3MaterializeView    1007ff70 f   sqlite3.obj
 0001:0007f0c0       $LN6                       100800c0     sqlite3.obj
 0001:0007f0c8       $LN5                       100800c8     sqlite3.obj
 0001:0007f0d4       $LN4                       100800d4     sqlite3.obj
 0001:0007f0e0       _sqlite3MayAbort           100800e0 f   sqlite3.obj
 0001:0007f140       _sqlite3MemCompare         10080140 f   sqlite3.obj
 0001:0007f370       _sqlite3MemJournalOpen     10080370 f   sqlite3.obj
 0001:0007f3c0       _sqlite3MemSetDefault      100803c0 f   sqlite3.obj
 0001:0007f410       _sqlite3MemoryBarrier      10080410 f   sqlite3.obj
 0001:0007f440       _sqlite3MisuseError        10080440 f   sqlite3.obj
 0001:0007f490       _sqlite3MulInt64           10080490 f   sqlite3.obj
 0001:0007f6b0       _sqlite3MultiWrite         100806b0 f   sqlite3.obj
 0001:0007f710       _sqlite3MutexAlloc         10080710 f   sqlite3.obj
 0001:0007f770       _sqlite3MutexEnd           10080770 f   sqlite3.obj
 0001:0007f7d0       _sqlite3MutexInit          100807d0 f   sqlite3.obj
 0001:0007f8c0       _sqlite3NameFromToken      100808c0 f   sqlite3.obj
 0001:0007f930       _sqlite3NestedParse        10080930 f   sqlite3.obj
 0001:0007fa70       $LN8                       10080a70     sqlite3.obj
 0001:0007fa78       $LN7                       10080a78     sqlite3.obj
 0001:0007fa90       $LN6                       10080a90     sqlite3.obj
 0001:0007fa98       $LN5                       10080a98     sqlite3.obj
 0001:0007faa0       _sqlite3NoopDestructor     10080aa0 f   sqlite3.obj
 0001:0007fad0       _sqlite3NoopMutex          10080ad0 f   sqlite3.obj
 0001:0007fb00       _sqlite3NotPureFunc        10080b00 f   sqlite3.obj
 0001:0007fb70       _sqlite3OomClear           10080b70 f   sqlite3.obj
 0001:0007fbe0       _sqlite3OomFault           10080be0 f   sqlite3.obj
 0001:0007fc50       _sqlite3OpcodeName         10080c50 f   sqlite3.obj
 0001:0007fc80       _sqlite3OpenMasterTable    10080c80 f   sqlite3.obj
 0001:0007fd10       _sqlite3OpenTable          10080d10 f   sqlite3.obj
 0001:0007fe10       _sqlite3OpenTableAndIndices 10080e10 f   sqlite3.obj
 0001:00080020       _sqlite3OpenTempDatabase   10081020 f   sqlite3.obj
 0001:0008013c       $LN8                       1008113c     sqlite3.obj
 0001:00080144       $LN7                       10081144     sqlite3.obj
 0001:00080150       $LN6                       10081150     sqlite3.obj
 0001:00080160       _sqlite3OsAccess           10081160 f   sqlite3.obj
 0001:000801c0       _sqlite3OsCheckReservedLock 100811c0 f   sqlite3.obj
 0001:00080210       _sqlite3OsClose            10081210 f   sqlite3.obj
 0001:00080270       _sqlite3OsCloseFree        10081270 f   sqlite3.obj
 0001:000802c0       _sqlite3OsCurrentTimeInt64 100812c0 f   sqlite3.obj
 0001:00080388       $LN7                       10081388     sqlite3.obj
 0001:00080390       $LN6                       10081390     sqlite3.obj
 0001:0008039c       $LN5                       1008139c     sqlite3.obj
 0001:000803a0       _sqlite3OsDelete           100813a0 f   sqlite3.obj
 0001:00080400       _sqlite3OsDeviceCharacteristics 10081400 f   sqlite3.obj
 0001:00080450       _sqlite3OsDlClose          10081450 f   sqlite3.obj
 0001:000804a0       _sqlite3OsDlError          100814a0 f   sqlite3.obj
 0001:00080500       _sqlite3OsDlOpen           10081500 f   sqlite3.obj
 0001:00080550       _sqlite3OsDlSym            10081550 f   sqlite3.obj
 0001:000805b0       _sqlite3OsFetch            100815b0 f   sqlite3.obj
 0001:00080610       _sqlite3OsFileControl      10081610 f   sqlite3.obj
 0001:00080670       _sqlite3OsFileControlHint  10081670 f   sqlite3.obj
 0001:000806d0       _sqlite3OsFileSize         100816d0 f   sqlite3.obj
 0001:00080720       _sqlite3OsFullPathname     10081720 f   sqlite3.obj
 0001:00080790       _sqlite3OsGetLastError     10081790 f   sqlite3.obj
 0001:00080800       _sqlite3OsInit             10081800 f   sqlite3.obj
 0001:00080860       _sqlite3OsLock             10081860 f   sqlite3.obj
 0001:000808b0       _sqlite3OsOpen             100818b0 f   sqlite3.obj
 0001:00080920       _sqlite3OsOpenMalloc       10081920 f   sqlite3.obj
 0001:000809c0       _sqlite3OsRandomness       100819c0 f   sqlite3.obj
 0001:00080a20       _sqlite3OsRead             10081a20 f   sqlite3.obj
 0001:00080a80       _sqlite3OsSectorSize       10081a80 f   sqlite3.obj
 0001:00080af0       _sqlite3OsShmBarrier       10081af0 f   sqlite3.obj
 0001:00080b40       _sqlite3OsShmLock          10081b40 f   sqlite3.obj
 0001:00080ba0       _sqlite3OsShmMap           10081ba0 f   sqlite3.obj
 0001:00080c00       _sqlite3OsShmUnmap         10081c00 f   sqlite3.obj
 0001:00080c50       _sqlite3OsSleep            10081c50 f   sqlite3.obj
 0001:00080ca0       _sqlite3OsSync             10081ca0 f   sqlite3.obj
 0001:00080d10       _sqlite3OsTruncate         10081d10 f   sqlite3.obj
 0001:00080d70       _sqlite3OsUnfetch          10081d70 f   sqlite3.obj
 0001:00080dd0       _sqlite3OsUnlock           10081dd0 f   sqlite3.obj
 0001:00080e20       _sqlite3OsWrite            10081e20 f   sqlite3.obj
 0001:00080e80       _sqlite3PCacheBufferSetup  10081e80 f   sqlite3.obj
 0001:00080f90       _sqlite3PCachePercentDirty 10081f90 f   sqlite3.obj
 0001:00081040       _sqlite3PCacheSetDefault   10082040 f   sqlite3.obj
 0001:00081090       _sqlite3PExpr              10082090 f   sqlite3.obj
 0001:00081170       _sqlite3PExprAddSelect     10082170 f   sqlite3.obj
 0001:000811f0       _sqlite3PageFree           100821f0 f   sqlite3.obj
 0001:00081230       _sqlite3PageMalloc         10082230 f   sqlite3.obj
 0001:00081270       _sqlite3PagerBackupPtr     10082270 f   sqlite3.obj
 0001:000812a0       _sqlite3PagerBegin         100822a0 f   sqlite3.obj
 0001:00081400       _sqlite3PagerCacheStat     10082400 f   sqlite3.obj
 0001:00081460       _sqlite3PagerCheckpoint    10082460 f   sqlite3.obj
 0001:00081520       _sqlite3PagerClearCache    10082520 f   sqlite3.obj
 0001:00081570       _sqlite3PagerClose         10082570 f   sqlite3.obj
 0001:000816d0       _sqlite3PagerCloseWal      100826d0 f   sqlite3.obj
 0001:00081834       $LN11                      10082834     sqlite3.obj
 0001:0008183c       $LN10                      1008283c     sqlite3.obj
 0001:00081848       $LN9                       10082848     sqlite3.obj
 0001:00081860       _sqlite3PagerCommitPhaseOne 10082860 f   sqlite3.obj
 0001:00081b68       $LN30                      10082b68     sqlite3.obj
 0001:00081b70       $LN29                      10082b70     sqlite3.obj
 0001:00081b7c       $LN28                      10082b7c     sqlite3.obj
 0001:00081b90       _sqlite3PagerCommitPhaseTwo 10082b90 f   sqlite3.obj
 0001:00081c40       _sqlite3PagerDataVersion   10082c40 f   sqlite3.obj
 0001:00081c70       _sqlite3PagerDontWrite     10082c70 f   sqlite3.obj
 0001:00081ce0       _sqlite3PagerExclusiveLock 10082ce0 f   sqlite3.obj
 0001:00081d60       _sqlite3PagerFile          10082d60 f   sqlite3.obj
 0001:00081d90       _sqlite3PagerFilename      10082d90 f   sqlite3.obj
 0001:00081df0       _sqlite3PagerFlush         10082df0 f   sqlite3.obj
 0001:00081e90       _sqlite3PagerGet           10082e90 f   sqlite3.obj
 0001:00081ef0       _sqlite3PagerGetData       10082ef0 f   sqlite3.obj
 0001:00081f20       _sqlite3PagerGetExtra      10082f20 f   sqlite3.obj
 0001:00081f50       _sqlite3PagerGetJournalMode 10082f50 f   sqlite3.obj
 0001:00081f80       _sqlite3PagerIsMemdb       10082f80 f   sqlite3.obj
 0001:00081fb0       _sqlite3PagerIsreadonly    10082fb0 f   sqlite3.obj
 0001:00081fe0       _sqlite3PagerJournalSizeLimit 10082fe0 f   sqlite3.obj
 0001:00082060       _sqlite3PagerJournalname   10083060 f   sqlite3.obj
 0001:00082090       _sqlite3PagerJrnlFile      10083090 f   sqlite3.obj
 0001:00082100       _sqlite3PagerLockingMode   10083100 f   sqlite3.obj
 0001:00082170       _sqlite3PagerLookup        10083170 f   sqlite3.obj
 0001:000821f0       _sqlite3PagerMaxPageCount  100831f0 f   sqlite3.obj
 0001:00082230       _sqlite3PagerMemUsed       10083230 f   sqlite3.obj
 0001:000822b0       _sqlite3PagerMovepage      100832b0 f   sqlite3.obj
 0001:000824bc       $LN16                      100834bc     sqlite3.obj
 0001:000824c4       $LN15                      100834c4     sqlite3.obj
 0001:000824d0       $LN14                      100834d0     sqlite3.obj
 0001:000824e0       _sqlite3PagerOkToChangeJournalMode 100834e0 f   sqlite3.obj
 0001:00082550       _sqlite3PagerOpen          10083550 f   sqlite3.obj
 0001:00082d1c       $LN43                      10083d1c     sqlite3.obj
 0001:00082d24       $LN42                      10083d24     sqlite3.obj
 0001:00082d3c       $LN41                      10083d3c     sqlite3.obj
 0001:00082d41       $LN40                      10083d41     sqlite3.obj
 0001:00082d50       _sqlite3PagerOpenSavepoint 10083d50 f   sqlite3.obj
 0001:00082db0       _sqlite3PagerOpenWal       10083db0 f   sqlite3.obj
 0001:00082e60       _sqlite3PagerPageRefcount  10083e60 f   sqlite3.obj
 0001:00082ea0       _sqlite3PagerPagecount     10083ea0 f   sqlite3.obj
 0001:00082ed0       _sqlite3PagerReadFileheader 10083ed0 f   sqlite3.obj
 0001:00082f60       _sqlite3PagerRef           10083f60 f   sqlite3.obj
 0001:00082fa0       _sqlite3PagerRekey         10083fa0 f   sqlite3.obj
 0001:00082ff0       _sqlite3PagerRollback      10083ff0 f   sqlite3.obj
 0001:00083130       _sqlite3PagerSavepoint     10084130 f   sqlite3.obj
 0001:000832a0       _sqlite3PagerSetBusyhandler 100842a0 f   sqlite3.obj
 0001:00083320       _sqlite3PagerSetCachesize  10084320 f   sqlite3.obj
 0001:00083370       _sqlite3PagerSetFlags      10084370 f   sqlite3.obj
 0001:000834f0       _sqlite3PagerSetJournalMode 100844f0 f   sqlite3.obj
 0001:00083680       _sqlite3PagerSetMmapLimit  10084680 f   sqlite3.obj
 0001:000836e0       _sqlite3PagerSetPagesize   100846e0 f   sqlite3.obj
 0001:000838c4       $LN15                      100848c4     sqlite3.obj
 0001:000838cc       $LN14                      100848cc     sqlite3.obj
 0001:000838d8       $LN13                      100848d8     sqlite3.obj
 0001:000838e0       _sqlite3PagerSetSpillsize  100848e0 f   sqlite3.obj
 0001:00083930       _sqlite3PagerSharedLock    10084930 f   sqlite3.obj
 0001:00083c98       $LN34                      10084c98     sqlite3.obj
 0001:00083ca0       $LN33                      10084ca0     sqlite3.obj
 0001:00083cd0       $LN32                      10084cd0     sqlite3.obj
 0001:00083cdb       $LN31                      10084cdb     sqlite3.obj
 0001:00083ce0       $LN30                      10084ce0     sqlite3.obj
 0001:00083ce8       $LN29                      10084ce8     sqlite3.obj
 0001:00083d00       _sqlite3PagerShrink        10084d00 f   sqlite3.obj
 0001:00083d50       _sqlite3PagerSync          10084d50 f   sqlite3.obj
 0001:00083df0       _sqlite3PagerTempSpace     10084df0 f   sqlite3.obj
 0001:00083e20       _sqlite3PagerTruncateImage 10084e20 f   sqlite3.obj
 0001:00083e50       _sqlite3PagerUnref         10084e50 f   sqlite3.obj
 0001:00083ea0       _sqlite3PagerUnrefNotNull  10084ea0 f   sqlite3.obj
 0001:00083f00       _sqlite3PagerUnrefPageOne  10084f00 f   sqlite3.obj
 0001:00083f60       _sqlite3PagerVfs           10084f60 f   sqlite3.obj
 0001:00083f90       _sqlite3PagerWalCallback   10084f90 f   sqlite3.obj
 0001:00083fe0       _sqlite3PagerWalSupported  10084fe0 f   sqlite3.obj
 0001:00084060       _sqlite3PagerWrite         10085060 f   sqlite3.obj
 0001:00084120       _sqlite3ParseUri           10085120 f   sqlite3.obj
 0001:000848e0       _sqlite3Parser             100858e0 f   sqlite3.obj
 0001:00084a04       $LN13                      10085a04     sqlite3.obj
 0001:00084a0c       $LN12                      10085a0c     sqlite3.obj
 0001:00084a18       $LN11                      10085a18     sqlite3.obj
 0001:00084a30       _sqlite3ParserFinalize     10085a30 f   sqlite3.obj
 0001:00084a90       _sqlite3ParserInit         10085a90 f   sqlite3.obj
 0001:00084b00       _sqlite3ParserReset        10085b00 f   sqlite3.obj
 0001:00084b90       _sqlite3Pcache1Mutex       10085b90 f   sqlite3.obj
 0001:00084bc0       _sqlite3PcacheCleanAll     10085bc0 f   sqlite3.obj
 0001:00084c10       _sqlite3PcacheClear        10085c10 f   sqlite3.obj
 0001:00084c50       _sqlite3PcacheClearSyncFlags 10085c50 f   sqlite3.obj
 0001:00084cb0       _sqlite3PcacheClearWritable 10085cb0 f   sqlite3.obj
 0001:00084d10       _sqlite3PcacheClose        10085d10 f   sqlite3.obj
 0001:00084d60       _sqlite3PcacheDirtyList    10085d60 f   sqlite3.obj
 0001:00084dd0       _sqlite3PcacheDrop         10085dd0 f   sqlite3.obj
 0001:00084e60       _sqlite3PcacheFetch        10085e60 f   sqlite3.obj
 0001:00084ed0       _sqlite3PcacheFetchFinish  10085ed0 f   sqlite3.obj
 0001:00084f50       _sqlite3PcacheFetchStress  10085f50 f   sqlite3.obj
 0001:000850a0       _sqlite3PcacheInitialize   100860a0 f   sqlite3.obj
 0001:00085100       _sqlite3PcacheMakeClean    10086100 f   sqlite3.obj
 0001:00085190       _sqlite3PcacheMakeDirty    10086190 f   sqlite3.obj
 0001:00085210       _sqlite3PcacheMove         10086210 f   sqlite3.obj
 0001:000852b0       _sqlite3PcacheOpen         100862b0 f   sqlite3.obj
 0001:00085350       _sqlite3PcachePageRefcount 10086350 f   sqlite3.obj
 0001:00085380       _sqlite3PcachePagecount    10086380 f   sqlite3.obj
 0001:000853d0       _sqlite3PcacheRef          100863d0 f   sqlite3.obj
 0001:00085420       _sqlite3PcacheRefCount     10086420 f   sqlite3.obj
 0001:00085450       _sqlite3PcacheRelease      10086450 f   sqlite3.obj
 0001:000854f0       _sqlite3PcacheSetCachesize 100864f0 f   sqlite3.obj
 0001:00085560       _sqlite3PcacheSetPageSize  10086560 f   sqlite3.obj
 0001:00085630       _sqlite3PcacheSetSpillsize 10086630 f   sqlite3.obj
 0001:000856d0       _sqlite3PcacheShrink       100866d0 f   sqlite3.obj
 0001:00085720       _sqlite3PcacheShutdown     10086720 f   sqlite3.obj
 0001:00085780       _sqlite3PcacheSize         10086780 f   sqlite3.obj
 0001:000857b0       _sqlite3PcacheTruncate     100867b0 f   sqlite3.obj
 0001:000858a0       _sqlite3Pragma             100868a0 f   sqlite3.obj
 0001:00089064       $LN382                     1008a064     sqlite3.obj
 0001:0008906c       $LN381                     1008a06c     sqlite3.obj
 0001:00089138       $LN380                     1008a138     sqlite3.obj
 0001:0008913a       $LN379                     1008a13a     sqlite3.obj
 0001:0008913c       $LN378                     1008a13c     sqlite3.obj
 0001:00089141       $LN377                     1008a141     sqlite3.obj
 0001:00089149       $LN376                     1008a149     sqlite3.obj
 0001:00089152       $LN375                     1008a152     sqlite3.obj
 0001:00089158       $LN374                     1008a158     sqlite3.obj
 0001:0008915f       $LN373                     1008a15f     sqlite3.obj
 0001:00089164       $LN372                     1008a164     sqlite3.obj
 0001:0008916d       $LN371                     1008a16d     sqlite3.obj
 0001:00089171       $LN370                     1008a171     sqlite3.obj
 0001:00089175       $LN369                     1008a175     sqlite3.obj
 0001:00089178       $LN368                     1008a178     sqlite3.obj
 0001:0008917d       $LN367                     1008a17d     sqlite3.obj
 0001:00089184       $LN366                     1008a184     sqlite3.obj
 0001:0008918b       $LN365                     1008a18b     sqlite3.obj
 0001:00089192       $LN364                     1008a192     sqlite3.obj
 0001:00089198       $LN383                     1008a198     sqlite3.obj
 0001:00089240       _sqlite3PragmaVtabRegister 1008a240 f   sqlite3.obj
 0001:000892c0       _sqlite3Prepare            1008a2c0 f   sqlite3.obj
 0001:00089724       $LN36                      1008a724     sqlite3.obj
 0001:0008972c       $LN35                      1008a72c     sqlite3.obj
 0001:00089744       $LN34                      1008a744     sqlite3.obj
 0001:0008974b       $LN33                      1008a74b     sqlite3.obj
 0001:00089760       _sqlite3Prepare16          1008a760 f   sqlite3.obj
 0001:00089904       $LN14                      1008a904     sqlite3.obj
 0001:0008990c       $LN13                      1008a90c     sqlite3.obj
 0001:00089918       $LN12                      1008a918     sqlite3.obj
 0001:00089920       _sqlite3PrimaryKeyIndex    1008a920 f   sqlite3.obj
 0001:00089980       _sqlite3PrngRestoreState   1008a980 f   sqlite3.obj
 0001:000899d0       _sqlite3PrngSaveState      1008a9d0 f   sqlite3.obj
 0001:00089a20       _sqlite3Put4byte           1008aa20 f   sqlite3.obj
 0001:00089a94       $LN5                       1008aa94     sqlite3.obj
 0001:00089a9c       $LN4                       1008aa9c     sqlite3.obj
 0001:00089aa8       $LN3                       1008aaa8     sqlite3.obj
 0001:00089ab0       _sqlite3PutVarint          1008aab0 f   sqlite3.obj
 0001:00089b80       _sqlite3ReadSchema         1008ab80 f   sqlite3.obj
 0001:00089c10       _sqlite3Realloc            1008ac10 f   sqlite3.obj
 0001:00089e20       _sqlite3RefillIndex        1008ae20 f   sqlite3.obj
 0001:0008a254       $LN14                      1008b254     sqlite3.obj
 0001:0008a25c       $LN13                      1008b25c     sqlite3.obj
 0001:0008a268       $LN12                      1008b268     sqlite3.obj
 0001:0008a280       _sqlite3RegisterBuiltinFunctions 1008b280 f   sqlite3.obj
 0001:0008a2d0       _sqlite3RegisterDateTimeFunctions 1008b2d0 f   sqlite3.obj
 0001:0008a320       _sqlite3RegisterLikeFunctions 1008b320 f   sqlite3.obj
 0001:0008a420       _sqlite3RegisterPerConnectionBuiltinFunctions 1008b420 f   sqlite3.obj
 0001:0008a480       _sqlite3Reindex            1008b480 f   sqlite3.obj
 0001:0008a694       $LN16                      1008b694     sqlite3.obj
 0001:0008a69c       $LN15                      1008b69c     sqlite3.obj
 0001:0008a6a8       $LN14                      1008b6a8     sqlite3.obj
 0001:0008a6c0       _sqlite3ReleaseTempRange   1008b6c0 f   sqlite3.obj
 0001:0008a740       _sqlite3ReleaseTempReg     1008b740 f   sqlite3.obj
 0001:0008a7f0       _sqlite3Reprepare          1008b7f0 f   sqlite3.obj
 0001:0008a8f0       $LN8                       1008b8f0     sqlite3.obj
 0001:0008a8f8       $LN7                       1008b8f8     sqlite3.obj
 0001:0008a904       $LN6                       1008b904     sqlite3.obj
 0001:0008a910       _sqlite3ResetAllSchemasOfConnection 1008b910 f   sqlite3.obj
 0001:0008a9d0       _sqlite3ResetOneSchema     1008b9d0 f   sqlite3.obj
 0001:0008aac0       _sqlite3ResolveExprListNames 1008bac0 f   sqlite3.obj
 0001:0008ab40       _sqlite3ResolveExprNames   1008bb40 f   sqlite3.obj
 0001:0008acb0       $LN10                      1008bcb0     sqlite3.obj
 0001:0008acb8       $LN9                       1008bcb8     sqlite3.obj
 0001:0008acc4       $LN8                       1008bcc4     sqlite3.obj
 0001:0008acd0       _sqlite3ResolveOrderGroupBy 1008bcd0 f   sqlite3.obj
 0001:0008ae00       _sqlite3ResolvePartIdxLabel 1008be00 f   sqlite3.obj
 0001:0008ae60       _sqlite3ResolveSelectNames 1008be60 f   sqlite3.obj
 0001:0008aee8       $LN5                       1008bee8     sqlite3.obj
 0001:0008aef0       $LN4                       1008bef0     sqlite3.obj
 0001:0008aefc       $LN3                       1008befc     sqlite3.obj
 0001:0008af00       _sqlite3ResolveSelfReference 1008bf00 f   sqlite3.obj
 0001:0008b000       $LN8                       1008c000     sqlite3.obj
 0001:0008b008       $LN7                       1008c008     sqlite3.obj
 0001:0008b020       $LN6                       1008c020     sqlite3.obj
 0001:0008b024       $LN5                       1008c024     sqlite3.obj
 0001:0008b030       _sqlite3ResultSetOfSelect  1008c030 f   sqlite3.obj
 0001:0008b170       _sqlite3RollbackAll        1008c170 f   sqlite3.obj
 0001:0008b340       _sqlite3RootPageMoved      1008c340 f   sqlite3.obj
 0001:0008b400       _sqlite3RowSetClear        1008c400 f   sqlite3.obj
 0001:0008b4b0       _sqlite3RowSetInit         1008c4b0 f   sqlite3.obj
 0001:0008b540       _sqlite3RowSetInsert       1008c540 f   sqlite3.obj
 0001:0008b610       _sqlite3RowSetNext         1008c610 f   sqlite3.obj
 0001:0008b6d0       _sqlite3RowSetTest         1008c6d0 f   sqlite3.obj
 0001:0008b900       $LN27                      1008c900     sqlite3.obj
 0001:0008b908       $LN26                      1008c908     sqlite3.obj
 0001:0008b920       $LN25                      1008c920     sqlite3.obj
 0001:0008b926       $LN24                      1008c926     sqlite3.obj
 0001:0008b930       _sqlite3RowidConstraint    1008c930 f   sqlite3.obj
 0001:0008b9f0       _sqlite3RunParser          1008c9f0 f   sqlite3.obj
 0001:0008be08       $LN33                      1008ce08     sqlite3.obj
 0001:0008be10       $LN32                      1008ce10     sqlite3.obj
 0001:0008be28       $LN31                      1008ce28     sqlite3.obj
 0001:0008be30       $LN30                      1008ce30     sqlite3.obj
 0001:0008be40       _sqlite3RunVacuum          1008ce40 f   sqlite3.obj
 0001:0008c3a4       $LN27                      1008d3a4     sqlite3.obj
 0001:0008c3ac       $LN26                      1008d3ac     sqlite3.obj
 0001:0008c3b8       $LN25                      1008d3b8     sqlite3.obj
 0001:0008c3c0       _sqlite3SafetyCheckOk      1008d3c0 f   sqlite3.obj
 0001:0008c450       _sqlite3SafetyCheckSickOrOk 1008d450 f   sqlite3.obj
 0001:0008c4c0       _sqlite3Savepoint          1008d4c0 f   sqlite3.obj
 0001:0008c580       _sqlite3SchemaClear        1008d580 f   sqlite3.obj
 0001:0008c6fc       $LN13                      1008d6fc     sqlite3.obj
 0001:0008c704       $LN12                      1008d704     sqlite3.obj
 0001:0008c71c       $LN11                      1008d71c     sqlite3.obj
 0001:0008c722       $LN10                      1008d722     sqlite3.obj
 0001:0008c730       _sqlite3SchemaGet          1008d730 f   sqlite3.obj
 0001:0008c800       _sqlite3SchemaToIndex      1008d800 f   sqlite3.obj
 0001:0008c870       _sqlite3SectorSize         1008d870 f   sqlite3.obj
 0001:0008c8e0       _sqlite3Select             1008d8e0 f   sqlite3.obj
 0001:0008e5bc       $LN137                     1008f5bc     sqlite3.obj
 0001:0008e5c4       $LN136                     1008f5c4     sqlite3.obj
 0001:0008e60c       $LN135                     1008f60c     sqlite3.obj
 0001:0008e614       $LN134                     1008f614     sqlite3.obj
 0001:0008e618       $LN133                     1008f618     sqlite3.obj
 0001:0008e61d       $LN132                     1008f61d     sqlite3.obj
 0001:0008e626       $LN131                     1008f626     sqlite3.obj
 0001:0008e62c       $LN130                     1008f62c     sqlite3.obj
 0001:0008e640       _sqlite3SelectAddColumnTypeAndCollation 1008f640 f   sqlite3.obj
 0001:0008e830       $LN13                      1008f830     sqlite3.obj
 0001:0008e838       $LN12                      1008f838     sqlite3.obj
 0001:0008e844       $LN11                      1008f844     sqlite3.obj
 0001:0008e850       _sqlite3SelectAddTypeInfo  1008f850 f   sqlite3.obj
 0001:0008e8d4       $LN5                       1008f8d4     sqlite3.obj
 0001:0008e8dc       $LN4                       1008f8dc     sqlite3.obj
 0001:0008e8e8       $LN3                       1008f8e8     sqlite3.obj
 0001:0008e8f0       _sqlite3SelectDelete       1008f8f0 f   sqlite3.obj
 0001:0008e940       _sqlite3SelectDestInit     1008f940 f   sqlite3.obj
 0001:0008e9a0       _sqlite3SelectDup          1008f9a0 f   sqlite3.obj
 0001:0008ebd8       $LN9                       1008fbd8     sqlite3.obj
 0001:0008ebe0       $LN8                       1008fbe0     sqlite3.obj
 0001:0008ebec       $LN7                       1008fbec     sqlite3.obj
 0001:0008ec00       _sqlite3SelectExpand       1008fc00 f   sqlite3.obj
 0001:0008ecac       $LN6                       1008fcac     sqlite3.obj
 0001:0008ecb4       $LN5                       1008fcb4     sqlite3.obj
 0001:0008ecc0       $LN4                       1008fcc0     sqlite3.obj
 0001:0008ecd0       _sqlite3SelectExprHeight   1008fcd0 f   sqlite3.obj
 0001:0008ed44       $LN5                       1008fd44     sqlite3.obj
 0001:0008ed4c       $LN4                       1008fd4c     sqlite3.obj
 0001:0008ed58       $LN3                       1008fd58     sqlite3.obj
 0001:0008ed60       _sqlite3SelectNew          1008fd60 f   sqlite3.obj
 0001:0008ef28       $LN12                      1008ff28     sqlite3.obj
 0001:0008ef30       $LN11                      1008ff30     sqlite3.obj
 0001:0008ef3c       $LN10                      1008ff3c     sqlite3.obj
 0001:0008ef50       _sqlite3SelectPrep         1008ff50 f   sqlite3.obj
 0001:0008f010       _sqlite3SelectWalkFail     10090010 f   sqlite3.obj
 0001:0008f050       _sqlite3SelectWalkNoop     10090050 f   sqlite3.obj
 0001:0008f080       _sqlite3SelectWrongNumTermsError 10090080 f   sqlite3.obj
 0001:0008f100       _sqlite3SetHasNullFlag     10090100 f   sqlite3.obj
 0001:0008f1a0       _sqlite3SetString          100901a0 f   sqlite3.obj
 0001:0008f200       _sqlite3SkipAccumulatorLoad 10090200 f   sqlite3.obj
 0001:0008f230       _sqlite3SrcListAppend      10090230 f   sqlite3.obj
 0001:0008f390       _sqlite3SrcListAppendFromTerm 10090390 f   sqlite3.obj
 0001:0008f4d0       _sqlite3SrcListAssignCursors 100904d0 f   sqlite3.obj
 0001:0008f580       _sqlite3SrcListDelete      10090580 f   sqlite3.obj
 0001:0008f6d0       _sqlite3SrcListDup         100906d0 f   sqlite3.obj
 0001:0008f940       _sqlite3SrcListEnlarge     10090940 f   sqlite3.obj
 0001:0008fa90       _sqlite3SrcListFuncArgs    10090a90 f   sqlite3.obj
 0001:0008fb10       _sqlite3SrcListIndexedBy   10090b10 f   sqlite3.obj
 0001:0008fbb0       _sqlite3SrcListLookup      10090bb0 f   sqlite3.obj
 0001:0008fc60       _sqlite3SrcListShiftJoinType 10090c60 f   sqlite3.obj
 0001:0008fce0       _sqlite3StartTable         10090ce0 f   sqlite3.obj
 0001:000902f0       $LN34                      100912f0     sqlite3.obj
 0001:000902f8       $LN33                      100912f8     sqlite3.obj
 0001:00090304       $LN32                      10091304     sqlite3.obj
 0001:00090310       _sqlite3StatusDown         10091310 f   sqlite3.obj
 0001:00090350       _sqlite3StatusHighwater    10091350 f   sqlite3.obj
 0001:000903a0       _sqlite3StatusUp           100913a0 f   sqlite3.obj
 0001:00090410       _sqlite3StatusValue        10091410 f   sqlite3.obj
